
AVRASM ver. 2.1.30  C:\cvavreval\BORG\v4\Master\List\Borg.asm Fri Mar 15 09:54:16 2019

C:\cvavreval\BORG\v4\Master\List\Borg.asm(1061): warning: Register r4 already defined by the .DEF directive
C:\cvavreval\BORG\v4\Master\List\Borg.asm(1062): warning: Register r6 already defined by the .DEF directive
C:\cvavreval\BORG\v4\Master\List\Borg.asm(1063): warning: Register r8 already defined by the .DEF directive
C:\cvavreval\BORG\v4\Master\List\Borg.asm(1064): warning: Register r10 already defined by the .DEF directive
C:\cvavreval\BORG\v4\Master\List\Borg.asm(1065): warning: Register r12 already defined by the .DEF directive
                 
                 
                 ;CodeVisionAVR C Compiler V2.05.0 Professional
                 ;(C) Copyright 1998-2010 Pavel Haiduc, HP InfoTech s.r.l.
                 ;http://www.hpinfotech.com
                 
                 ;Chip type                : ATmega128
                 ;Program type             : Application
                 ;Clock frequency          : 16.000000 MHz
                 ;Memory model             : Small
                 ;Optimize for             : Size
                 ;(s)printf features       : int, width
                 ;(s)scanf features        : int, width
                 ;External RAM size        : 0
                 ;Data Stack size          : 1024 byte(s)
                 ;Heap size                : 0 byte(s)
                 ;Promote 'char' to 'int'  : Yes
                 ;'char' is unsigned       : Yes
                 ;8 bit enums              : Yes
                 ;global 'const' stored in FLASH: No
                 ;Enhanced core instructions    : On
                 ;Smart register allocation     : On
                 ;Automatic register allocation : On
                 
                 	#pragma AVRPART ADMIN PART_NAME ATmega128
                 	#pragma AVRPART MEMORY PROG_FLASH 131072
                 	#pragma AVRPART MEMORY EEPROM 4096
                 	#pragma AVRPART MEMORY INT_SRAM SIZE 4351
                 	#pragma AVRPART MEMORY INT_SRAM START_ADDR 0x100
                 
                 	#define CALL_SUPPORTED 1
                 
                 	.LISTMAC
                 	.EQU UDRE=0x5
                 	.EQU RXC=0x7
                 	.EQU USR=0xB
                 	.EQU UDR=0xC
                 	.EQU SPSR=0xE
                 	.EQU SPDR=0xF
                 	.EQU EERE=0x0
                 	.EQU EEWE=0x1
                 	.EQU EEMWE=0x2
                 	.EQU EECR=0x1C
                 	.EQU EEDR=0x1D
                 	.EQU EEARL=0x1E
                 	.EQU EEARH=0x1F
                 	.EQU WDTCR=0x21
                 	.EQU MCUCR=0x35
                 	.EQU RAMPZ=0x3B
                 	.EQU SPL=0x3D
                 	.EQU SPH=0x3E
                 	.EQU SREG=0x3F
                 	.EQU XMCRA=0x6D
                 	.EQU XMCRB=0x6C
                 
                 	.DEF R0X0=R0
                 	.DEF R0X1=R1
                 	.DEF R0X2=R2
                 	.DEF R0X3=R3
                 	.DEF R0X4=R4
                 	.DEF R0X5=R5
                 	.DEF R0X6=R6
                 	.DEF R0X7=R7
                 	.DEF R0X8=R8
                 	.DEF R0X9=R9
                 	.DEF R0XA=R10
                 	.DEF R0XB=R11
                 	.DEF R0XC=R12
                 	.DEF R0XD=R13
                 	.DEF R0XE=R14
                 	.DEF R0XF=R15
                 	.DEF R0X10=R16
                 	.DEF R0X11=R17
                 	.DEF R0X12=R18
                 	.DEF R0X13=R19
                 	.DEF R0X14=R20
                 	.DEF R0X15=R21
                 	.DEF R0X16=R22
                 	.DEF R0X17=R23
                 	.DEF R0X18=R24
                 	.DEF R0X19=R25
                 	.DEF R0X1A=R26
                 	.DEF R0X1B=R27
                 	.DEF R0X1C=R28
                 	.DEF R0X1D=R29
                 	.DEF R0X1E=R30
                 	.DEF R0X1F=R31
                 
                 	.EQU __SRAM_START=0x0100
                 	.EQU __SRAM_END=0x10FF
                 	.EQU __DSTACK_SIZE=0x0400
                 	.EQU __HEAP_SIZE=0x0000
                 	.EQU __CLEAR_SRAM_SIZE=__SRAM_END-__SRAM_START+1
                 
                 	.MACRO __CPD1N
                 	CPI  R30,LOW(@0)
                 	LDI  R26,HIGH(@0)
                 	CPC  R31,R26
                 	LDI  R26,BYTE3(@0)
                 	CPC  R22,R26
                 	LDI  R26,BYTE4(@0)
                 	CPC  R23,R26
                 	.ENDM
                 
                 	.MACRO __CPD2N
                 	CPI  R26,LOW(@0)
                 	LDI  R30,HIGH(@0)
                 	CPC  R27,R30
                 	LDI  R30,BYTE3(@0)
                 	CPC  R24,R30
                 	LDI  R30,BYTE4(@0)
                 	CPC  R25,R30
                 	.ENDM
                 
                 	.MACRO __CPWRR
                 	CP   R@0,R@2
                 	CPC  R@1,R@3
                 	.ENDM
                 
                 	.MACRO __CPWRN
                 	CPI  R@0,LOW(@2)
                 	LDI  R30,HIGH(@2)
                 	CPC  R@1,R30
                 	.ENDM
                 
                 	.MACRO __ADDB1MN
                 	SUBI R30,LOW(-@0-(@1))
                 	.ENDM
                 
                 	.MACRO __ADDB2MN
                 	SUBI R26,LOW(-@0-(@1))
                 	.ENDM
                 
                 	.MACRO __ADDW1MN
                 	SUBI R30,LOW(-@0-(@1))
                 	SBCI R31,HIGH(-@0-(@1))
                 	.ENDM
                 
                 	.MACRO __ADDW2MN
                 	SUBI R26,LOW(-@0-(@1))
                 	SBCI R27,HIGH(-@0-(@1))
                 	.ENDM
                 
                 	.MACRO __ADDW1FN
                 	SUBI R30,LOW(-2*@0-(@1))
                 	SBCI R31,HIGH(-2*@0-(@1))
                 	.ENDM
                 
                 	.MACRO __ADDD1FN
                 	SUBI R30,LOW(-2*@0-(@1))
                 	SBCI R31,HIGH(-2*@0-(@1))
                 	SBCI R22,BYTE3(-2*@0-(@1))
                 	.ENDM
                 
                 	.MACRO __ADDD1N
                 	SUBI R30,LOW(-@0)
                 	SBCI R31,HIGH(-@0)
                 	SBCI R22,BYTE3(-@0)
                 	SBCI R23,BYTE4(-@0)
                 	.ENDM
                 
                 	.MACRO __ADDD2N
                 	SUBI R26,LOW(-@0)
                 	SBCI R27,HIGH(-@0)
                 	SBCI R24,BYTE3(-@0)
                 	SBCI R25,BYTE4(-@0)
                 	.ENDM
                 
                 	.MACRO __SUBD1N
                 	SUBI R30,LOW(@0)
                 	SBCI R31,HIGH(@0)
                 	SBCI R22,BYTE3(@0)
                 	SBCI R23,BYTE4(@0)
                 	.ENDM
                 
                 	.MACRO __SUBD2N
                 	SUBI R26,LOW(@0)
                 	SBCI R27,HIGH(@0)
                 	SBCI R24,BYTE3(@0)
                 	SBCI R25,BYTE4(@0)
                 	.ENDM
                 
                 	.MACRO __ANDBMNN
                 	LDS  R30,@0+(@1)
                 	ANDI R30,LOW(@2)
                 	STS  @0+(@1),R30
                 	.ENDM
                 
                 	.MACRO __ANDWMNN
                 	LDS  R30,@0+(@1)
                 	ANDI R30,LOW(@2)
                 	STS  @0+(@1),R30
                 	LDS  R30,@0+(@1)+1
                 	ANDI R30,HIGH(@2)
                 	STS  @0+(@1)+1,R30
                 	.ENDM
                 
                 	.MACRO __ANDD1N
                 	ANDI R30,LOW(@0)
                 	ANDI R31,HIGH(@0)
                 	ANDI R22,BYTE3(@0)
                 	ANDI R23,BYTE4(@0)
                 	.ENDM
                 
                 	.MACRO __ANDD2N
                 	ANDI R26,LOW(@0)
                 	ANDI R27,HIGH(@0)
                 	ANDI R24,BYTE3(@0)
                 	ANDI R25,BYTE4(@0)
                 	.ENDM
                 
                 	.MACRO __ORBMNN
                 	LDS  R30,@0+(@1)
                 	ORI  R30,LOW(@2)
                 	STS  @0+(@1),R30
                 	.ENDM
                 
                 	.MACRO __ORWMNN
                 	LDS  R30,@0+(@1)
                 	ORI  R30,LOW(@2)
                 	STS  @0+(@1),R30
                 	LDS  R30,@0+(@1)+1
                 	ORI  R30,HIGH(@2)
                 	STS  @0+(@1)+1,R30
                 	.ENDM
                 
                 	.MACRO __ORD1N
                 	ORI  R30,LOW(@0)
                 	ORI  R31,HIGH(@0)
                 	ORI  R22,BYTE3(@0)
                 	ORI  R23,BYTE4(@0)
                 	.ENDM
                 
                 	.MACRO __ORD2N
                 	ORI  R26,LOW(@0)
                 	ORI  R27,HIGH(@0)
                 	ORI  R24,BYTE3(@0)
                 	ORI  R25,BYTE4(@0)
                 	.ENDM
                 
                 	.MACRO __DELAY_USB
                 	LDI  R24,LOW(@0)
                 __DELAY_USB_LOOP:
                 	DEC  R24
                 	BRNE __DELAY_USB_LOOP
                 	.ENDM
                 
                 	.MACRO __DELAY_USW
                 	LDI  R24,LOW(@0)
                 	LDI  R25,HIGH(@0)
                 __DELAY_USW_LOOP:
                 	SBIW R24,1
                 	BRNE __DELAY_USW_LOOP
                 	.ENDM
                 
                 	.MACRO __GETD1S
                 	LDD  R30,Y+@0
                 	LDD  R31,Y+@0+1
                 	LDD  R22,Y+@0+2
                 	LDD  R23,Y+@0+3
                 	.ENDM
                 
                 	.MACRO __GETD2S
                 	LDD  R26,Y+@0
                 	LDD  R27,Y+@0+1
                 	LDD  R24,Y+@0+2
                 	LDD  R25,Y+@0+3
                 	.ENDM
                 
                 	.MACRO __PUTD1S
                 	STD  Y+@0,R30
                 	STD  Y+@0+1,R31
                 	STD  Y+@0+2,R22
                 	STD  Y+@0+3,R23
                 	.ENDM
                 
                 	.MACRO __PUTD2S
                 	STD  Y+@0,R26
                 	STD  Y+@0+1,R27
                 	STD  Y+@0+2,R24
                 	STD  Y+@0+3,R25
                 	.ENDM
                 
                 	.MACRO __PUTDZ2
                 	STD  Z+@0,R26
                 	STD  Z+@0+1,R27
                 	STD  Z+@0+2,R24
                 	STD  Z+@0+3,R25
                 	.ENDM
                 
                 	.MACRO __CLRD1S
                 	STD  Y+@0,R30
                 	STD  Y+@0+1,R30
                 	STD  Y+@0+2,R30
                 	STD  Y+@0+3,R30
                 	.ENDM
                 
                 	.MACRO __POINTB1MN
                 	LDI  R30,LOW(@0+(@1))
                 	.ENDM
                 
                 	.MACRO __POINTW1MN
                 	LDI  R30,LOW(@0+(@1))
                 	LDI  R31,HIGH(@0+(@1))
                 	.ENDM
                 
                 	.MACRO __POINTD1M
                 	LDI  R30,LOW(@0)
                 	LDI  R31,HIGH(@0)
                 	LDI  R22,BYTE3(@0)
                 	LDI  R23,BYTE4(@0)
                 	.ENDM
                 
                 	.MACRO __POINTW1FN
                 	LDI  R30,LOW(2*@0+(@1))
                 	LDI  R31,HIGH(2*@0+(@1))
                 	.ENDM
                 
                 	.MACRO __POINTD1FN
                 	LDI  R30,LOW(2*@0+(@1))
                 	LDI  R31,HIGH(2*@0+(@1))
                 	LDI  R22,BYTE3(2*@0+(@1))
                 	LDI  R23,BYTE4(2*@0+(@1))
                 	.ENDM
                 
                 	.MACRO __POINTB2MN
                 	LDI  R26,LOW(@0+(@1))
                 	.ENDM
                 
                 	.MACRO __POINTW2MN
                 	LDI  R26,LOW(@0+(@1))
                 	LDI  R27,HIGH(@0+(@1))
                 	.ENDM
                 
                 	.MACRO __POINTBRM
                 	LDI  R@0,LOW(@1)
                 	.ENDM
                 
                 	.MACRO __POINTWRM
                 	LDI  R@0,LOW(@2)
                 	LDI  R@1,HIGH(@2)
                 	.ENDM
                 
                 	.MACRO __POINTBRMN
                 	LDI  R@0,LOW(@1+(@2))
                 	.ENDM
                 
                 	.MACRO __POINTWRMN
                 	LDI  R@0,LOW(@2+(@3))
                 	LDI  R@1,HIGH(@2+(@3))
                 	.ENDM
                 
                 	.MACRO __POINTWRFN
                 	LDI  R@0,LOW(@2*2+(@3))
                 	LDI  R@1,HIGH(@2*2+(@3))
                 	.ENDM
                 
                 	.MACRO __GETD1N
                 	LDI  R30,LOW(@0)
                 	LDI  R31,HIGH(@0)
                 	LDI  R22,BYTE3(@0)
                 	LDI  R23,BYTE4(@0)
                 	.ENDM
                 
                 	.MACRO __GETD2N
                 	LDI  R26,LOW(@0)
                 	LDI  R27,HIGH(@0)
                 	LDI  R24,BYTE3(@0)
                 	LDI  R25,BYTE4(@0)
                 	.ENDM
                 
                 	.MACRO __GETB1MN
                 	LDS  R30,@0+(@1)
                 	.ENDM
                 
                 	.MACRO __GETB1HMN
                 	LDS  R31,@0+(@1)
                 	.ENDM
                 
                 	.MACRO __GETW1MN
                 	LDS  R30,@0+(@1)
                 	LDS  R31,@0+(@1)+1
                 	.ENDM
                 
                 	.MACRO __GETD1MN
                 	LDS  R30,@0+(@1)
                 	LDS  R31,@0+(@1)+1
                 	LDS  R22,@0+(@1)+2
                 	LDS  R23,@0+(@1)+3
                 	.ENDM
                 
                 	.MACRO __GETBRMN
                 	LDS  R@0,@1+(@2)
                 	.ENDM
                 
                 	.MACRO __GETWRMN
                 	LDS  R@0,@2+(@3)
                 	LDS  R@1,@2+(@3)+1
                 	.ENDM
                 
                 	.MACRO __GETWRZ
                 	LDD  R@0,Z+@2
                 	LDD  R@1,Z+@2+1
                 	.ENDM
                 
                 	.MACRO __GETD2Z
                 	LDD  R26,Z+@0
                 	LDD  R27,Z+@0+1
                 	LDD  R24,Z+@0+2
                 	LDD  R25,Z+@0+3
                 	.ENDM
                 
                 	.MACRO __GETB2MN
                 	LDS  R26,@0+(@1)
                 	.ENDM
                 
                 	.MACRO __GETW2MN
                 	LDS  R26,@0+(@1)
                 	LDS  R27,@0+(@1)+1
                 	.ENDM
                 
                 	.MACRO __GETD2MN
                 	LDS  R26,@0+(@1)
                 	LDS  R27,@0+(@1)+1
                 	LDS  R24,@0+(@1)+2
                 	LDS  R25,@0+(@1)+3
                 	.ENDM
                 
                 	.MACRO __PUTB1MN
                 	STS  @0+(@1),R30
                 	.ENDM
                 
                 	.MACRO __PUTW1MN
                 	STS  @0+(@1),R30
                 	STS  @0+(@1)+1,R31
                 	.ENDM
                 
                 	.MACRO __PUTD1MN
                 	STS  @0+(@1),R30
                 	STS  @0+(@1)+1,R31
                 	STS  @0+(@1)+2,R22
                 	STS  @0+(@1)+3,R23
                 	.ENDM
                 
                 	.MACRO __PUTB1EN
                 	LDI  R26,LOW(@0+(@1))
                 	LDI  R27,HIGH(@0+(@1))
                 	CALL __EEPROMWRB
                 	.ENDM
                 
                 	.MACRO __PUTW1EN
                 	LDI  R26,LOW(@0+(@1))
                 	LDI  R27,HIGH(@0+(@1))
                 	CALL __EEPROMWRW
                 	.ENDM
                 
                 	.MACRO __PUTD1EN
                 	LDI  R26,LOW(@0+(@1))
                 	LDI  R27,HIGH(@0+(@1))
                 	CALL __EEPROMWRD
                 	.ENDM
                 
                 	.MACRO __PUTBR0MN
                 	STS  @0+(@1),R0
                 	.ENDM
                 
                 	.MACRO __PUTBMRN
                 	STS  @0+(@1),R@2
                 	.ENDM
                 
                 	.MACRO __PUTWMRN
                 	STS  @0+(@1),R@2
                 	STS  @0+(@1)+1,R@3
                 	.ENDM
                 
                 	.MACRO __PUTBZR
                 	STD  Z+@1,R@0
                 	.ENDM
                 
                 	.MACRO __PUTWZR
                 	STD  Z+@2,R@0
                 	STD  Z+@2+1,R@1
                 	.ENDM
                 
                 	.MACRO __GETW1R
                 	MOV  R30,R@0
                 	MOV  R31,R@1
                 	.ENDM
                 
                 	.MACRO __GETW2R
                 	MOV  R26,R@0
                 	MOV  R27,R@1
                 	.ENDM
                 
                 	.MACRO __GETWRN
                 	LDI  R@0,LOW(@2)
                 	LDI  R@1,HIGH(@2)
                 	.ENDM
                 
                 	.MACRO __PUTW1R
                 	MOV  R@0,R30
                 	MOV  R@1,R31
                 	.ENDM
                 
                 	.MACRO __PUTW2R
                 	MOV  R@0,R26
                 	MOV  R@1,R27
                 	.ENDM
                 
                 	.MACRO __ADDWRN
                 	SUBI R@0,LOW(-@2)
                 	SBCI R@1,HIGH(-@2)
                 	.ENDM
                 
                 	.MACRO __ADDWRR
                 	ADD  R@0,R@2
                 	ADC  R@1,R@3
                 	.ENDM
                 
                 	.MACRO __SUBWRN
                 	SUBI R@0,LOW(@2)
                 	SBCI R@1,HIGH(@2)
                 	.ENDM
                 
                 	.MACRO __SUBWRR
                 	SUB  R@0,R@2
                 	SBC  R@1,R@3
                 	.ENDM
                 
                 	.MACRO __ANDWRN
                 	ANDI R@0,LOW(@2)
                 	ANDI R@1,HIGH(@2)
                 	.ENDM
                 
                 	.MACRO __ANDWRR
                 	AND  R@0,R@2
                 	AND  R@1,R@3
                 	.ENDM
                 
                 	.MACRO __ORWRN
                 	ORI  R@0,LOW(@2)
                 	ORI  R@1,HIGH(@2)
                 	.ENDM
                 
                 	.MACRO __ORWRR
                 	OR   R@0,R@2
                 	OR   R@1,R@3
                 	.ENDM
                 
                 	.MACRO __EORWRR
                 	EOR  R@0,R@2
                 	EOR  R@1,R@3
                 	.ENDM
                 
                 	.MACRO __GETWRS
                 	LDD  R@0,Y+@2
                 	LDD  R@1,Y+@2+1
                 	.ENDM
                 
                 	.MACRO __PUTBSR
                 	STD  Y+@1,R@0
                 	.ENDM
                 
                 	.MACRO __PUTWSR
                 	STD  Y+@2,R@0
                 	STD  Y+@2+1,R@1
                 	.ENDM
                 
                 	.MACRO __MOVEWRR
                 	MOV  R@0,R@2
                 	MOV  R@1,R@3
                 	.ENDM
                 
                 	.MACRO __INWR
                 	IN   R@0,@2
                 	IN   R@1,@2+1
                 	.ENDM
                 
                 	.MACRO __OUTWR
                 	OUT  @2+1,R@1
                 	OUT  @2,R@0
                 	.ENDM
                 
                 	.MACRO __CALL1MN
                 	LDS  R30,@0+(@1)
                 	LDS  R31,@0+(@1)+1
                 	ICALL
                 	.ENDM
                 
                 	.MACRO __CALL1FN
                 	LDI  R30,LOW(2*@0+(@1))
                 	LDI  R31,HIGH(2*@0+(@1))
                 	CALL __GETW1PF
                 	ICALL
                 	.ENDM
                 
                 	.MACRO __CALL2EN
                 	LDI  R26,LOW(@0+(@1))
                 	LDI  R27,HIGH(@0+(@1))
                 	CALL __EEPROMRDW
                 	ICALL
                 	.ENDM
                 
                 	.MACRO __GETW1STACK
                 	IN   R26,SPL
                 	IN   R27,SPH
                 	ADIW R26,@0+1
                 	LD   R30,X+
                 	LD   R31,X
                 	.ENDM
                 
                 	.MACRO __GETD1STACK
                 	IN   R26,SPL
                 	IN   R27,SPH
                 	ADIW R26,@0+1
                 	LD   R30,X+
                 	LD   R31,X+
                 	LD   R22,X
                 	.ENDM
                 
                 	.MACRO __NBST
                 	BST  R@0,@1
                 	IN   R30,SREG
                 	LDI  R31,0x40
                 	EOR  R30,R31
                 	OUT  SREG,R30
                 	.ENDM
                 
                 
                 	.MACRO __PUTB1SN
                 	LDD  R26,Y+@0
                 	LDD  R27,Y+@0+1
                 	SUBI R26,LOW(-@1)
                 	SBCI R27,HIGH(-@1)
                 	ST   X,R30
                 	.ENDM
                 
                 	.MACRO __PUTW1SN
                 	LDD  R26,Y+@0
                 	LDD  R27,Y+@0+1
                 	SUBI R26,LOW(-@1)
                 	SBCI R27,HIGH(-@1)
                 	ST   X+,R30
                 	ST   X,R31
                 	.ENDM
                 
                 	.MACRO __PUTD1SN
                 	LDD  R26,Y+@0
                 	LDD  R27,Y+@0+1
                 	SUBI R26,LOW(-@1)
                 	SBCI R27,HIGH(-@1)
                 	CALL __PUTDP1
                 	.ENDM
                 
                 	.MACRO __PUTB1SNS
                 	LDD  R26,Y+@0
                 	LDD  R27,Y+@0+1
                 	ADIW R26,@1
                 	ST   X,R30
                 	.ENDM
                 
                 	.MACRO __PUTW1SNS
                 	LDD  R26,Y+@0
                 	LDD  R27,Y+@0+1
                 	ADIW R26,@1
                 	ST   X+,R30
                 	ST   X,R31
                 	.ENDM
                 
                 	.MACRO __PUTD1SNS
                 	LDD  R26,Y+@0
                 	LDD  R27,Y+@0+1
                 	ADIW R26,@1
                 	CALL __PUTDP1
                 	.ENDM
                 
                 	.MACRO __PUTB1PMN
                 	LDS  R26,@0
                 	LDS  R27,@0+1
                 	SUBI R26,LOW(-@1)
                 	SBCI R27,HIGH(-@1)
                 	ST   X,R30
                 	.ENDM
                 
                 	.MACRO __PUTW1PMN
                 	LDS  R26,@0
                 	LDS  R27,@0+1
                 	SUBI R26,LOW(-@1)
                 	SBCI R27,HIGH(-@1)
                 	ST   X+,R30
                 	ST   X,R31
                 	.ENDM
                 
                 	.MACRO __PUTD1PMN
                 	LDS  R26,@0
                 	LDS  R27,@0+1
                 	SUBI R26,LOW(-@1)
                 	SBCI R27,HIGH(-@1)
                 	CALL __PUTDP1
                 	.ENDM
                 
                 	.MACRO __PUTB1PMNS
                 	LDS  R26,@0
                 	LDS  R27,@0+1
                 	ADIW R26,@1
                 	ST   X,R30
                 	.ENDM
                 
                 	.MACRO __PUTW1PMNS
                 	LDS  R26,@0
                 	LDS  R27,@0+1
                 	ADIW R26,@1
                 	ST   X+,R30
                 	ST   X,R31
                 	.ENDM
                 
                 	.MACRO __PUTD1PMNS
                 	LDS  R26,@0
                 	LDS  R27,@0+1
                 	ADIW R26,@1
                 	CALL __PUTDP1
                 	.ENDM
                 
                 	.MACRO __PUTB1RN
                 	MOVW R26,R@0
                 	SUBI R26,LOW(-@1)
                 	SBCI R27,HIGH(-@1)
                 	ST   X,R30
                 	.ENDM
                 
                 	.MACRO __PUTW1RN
                 	MOVW R26,R@0
                 	SUBI R26,LOW(-@1)
                 	SBCI R27,HIGH(-@1)
                 	ST   X+,R30
                 	ST   X,R31
                 	.ENDM
                 
                 	.MACRO __PUTD1RN
                 	MOVW R26,R@0
                 	SUBI R26,LOW(-@1)
                 	SBCI R27,HIGH(-@1)
                 	CALL __PUTDP1
                 	.ENDM
                 
                 	.MACRO __PUTB1RNS
                 	MOVW R26,R@0
                 	ADIW R26,@1
                 	ST   X,R30
                 	.ENDM
                 
                 	.MACRO __PUTW1RNS
                 	MOVW R26,R@0
                 	ADIW R26,@1
                 	ST   X+,R30
                 	ST   X,R31
                 	.ENDM
                 
                 	.MACRO __PUTD1RNS
                 	MOVW R26,R@0
                 	ADIW R26,@1
                 	CALL __PUTDP1
                 	.ENDM
                 
                 	.MACRO __PUTB1RON
                 	MOV  R26,R@0
                 	MOV  R27,R@1
                 	SUBI R26,LOW(-@2)
                 	SBCI R27,HIGH(-@2)
                 	ST   X,R30
                 	.ENDM
                 
                 	.MACRO __PUTW1RON
                 	MOV  R26,R@0
                 	MOV  R27,R@1
                 	SUBI R26,LOW(-@2)
                 	SBCI R27,HIGH(-@2)
                 	ST   X+,R30
                 	ST   X,R31
                 	.ENDM
                 
                 	.MACRO __PUTD1RON
                 	MOV  R26,R@0
                 	MOV  R27,R@1
                 	SUBI R26,LOW(-@2)
                 	SBCI R27,HIGH(-@2)
                 	CALL __PUTDP1
                 	.ENDM
                 
                 	.MACRO __PUTB1RONS
                 	MOV  R26,R@0
                 	MOV  R27,R@1
                 	ADIW R26,@2
                 	ST   X,R30
                 	.ENDM
                 
                 	.MACRO __PUTW1RONS
                 	MOV  R26,R@0
                 	MOV  R27,R@1
                 	ADIW R26,@2
                 	ST   X+,R30
                 	ST   X,R31
                 	.ENDM
                 
                 	.MACRO __PUTD1RONS
                 	MOV  R26,R@0
                 	MOV  R27,R@1
                 	ADIW R26,@2
                 	CALL __PUTDP1
                 	.ENDM
                 
                 
                 	.MACRO __GETB1SX
                 	MOVW R30,R28
                 	SUBI R30,LOW(-@0)
                 	SBCI R31,HIGH(-@0)
                 	LD   R30,Z
                 	.ENDM
                 
                 	.MACRO __GETB1HSX
                 	MOVW R30,R28
                 	SUBI R30,LOW(-@0)
                 	SBCI R31,HIGH(-@0)
                 	LD   R31,Z
                 	.ENDM
                 
                 	.MACRO __GETW1SX
                 	MOVW R30,R28
                 	SUBI R30,LOW(-@0)
                 	SBCI R31,HIGH(-@0)
                 	LD   R0,Z+
                 	LD   R31,Z
                 	MOV  R30,R0
                 	.ENDM
                 
                 	.MACRO __GETD1SX
                 	MOVW R30,R28
                 	SUBI R30,LOW(-@0)
                 	SBCI R31,HIGH(-@0)
                 	LD   R0,Z+
                 	LD   R1,Z+
                 	LD   R22,Z+
                 	LD   R23,Z
                 	MOVW R30,R0
                 	.ENDM
                 
                 	.MACRO __GETB2SX
                 	MOVW R26,R28
                 	SUBI R26,LOW(-@0)
                 	SBCI R27,HIGH(-@0)
                 	LD   R26,X
                 	.ENDM
                 
                 	.MACRO __GETW2SX
                 	MOVW R26,R28
                 	SUBI R26,LOW(-@0)
                 	SBCI R27,HIGH(-@0)
                 	LD   R0,X+
                 	LD   R27,X
                 	MOV  R26,R0
                 	.ENDM
                 
                 	.MACRO __GETD2SX
                 	MOVW R26,R28
                 	SUBI R26,LOW(-@0)
                 	SBCI R27,HIGH(-@0)
                 	LD   R0,X+
                 	LD   R1,X+
                 	LD   R24,X+
                 	LD   R25,X
                 	MOVW R26,R0
                 	.ENDM
                 
                 	.MACRO __GETBRSX
                 	MOVW R30,R28
                 	SUBI R30,LOW(-@1)
                 	SBCI R31,HIGH(-@1)
                 	LD   R@0,Z
                 	.ENDM
                 
                 	.MACRO __GETWRSX
                 	MOVW R30,R28
                 	SUBI R30,LOW(-@2)
                 	SBCI R31,HIGH(-@2)
                 	LD   R@0,Z+
                 	LD   R@1,Z
                 	.ENDM
                 
                 	.MACRO __GETBRSX2
                 	MOVW R26,R28
                 	SUBI R26,LOW(-@1)
                 	SBCI R27,HIGH(-@1)
                 	LD   R@0,X
                 	.ENDM
                 
                 	.MACRO __GETWRSX2
                 	MOVW R26,R28
                 	SUBI R26,LOW(-@2)
                 	SBCI R27,HIGH(-@2)
                 	LD   R@0,X+
                 	LD   R@1,X
                 	.ENDM
                 
                 	.MACRO __LSLW8SX
                 	MOVW R30,R28
                 	SUBI R30,LOW(-@0)
                 	SBCI R31,HIGH(-@0)
                 	LD   R31,Z
                 	CLR  R30
                 	.ENDM
                 
                 	.MACRO __PUTB1SX
                 	MOVW R26,R28
                 	SUBI R26,LOW(-@0)
                 	SBCI R27,HIGH(-@0)
                 	ST   X,R30
                 	.ENDM
                 
                 	.MACRO __PUTW1SX
                 	MOVW R26,R28
                 	SUBI R26,LOW(-@0)
                 	SBCI R27,HIGH(-@0)
                 	ST   X+,R30
                 	ST   X,R31
                 	.ENDM
                 
                 	.MACRO __PUTD1SX
                 	MOVW R26,R28
                 	SUBI R26,LOW(-@0)
                 	SBCI R27,HIGH(-@0)
                 	ST   X+,R30
                 	ST   X+,R31
                 	ST   X+,R22
                 	ST   X,R23
                 	.ENDM
                 
                 	.MACRO __CLRW1SX
                 	MOVW R26,R28
                 	SUBI R26,LOW(-@0)
                 	SBCI R27,HIGH(-@0)
                 	ST   X+,R30
                 	ST   X,R30
                 	.ENDM
                 
                 	.MACRO __CLRD1SX
                 	MOVW R26,R28
                 	SUBI R26,LOW(-@0)
                 	SBCI R27,HIGH(-@0)
                 	ST   X+,R30
                 	ST   X+,R30
                 	ST   X+,R30
                 	ST   X,R30
                 	.ENDM
                 
                 	.MACRO __PUTB2SX
                 	MOVW R30,R28
                 	SUBI R30,LOW(-@0)
                 	SBCI R31,HIGH(-@0)
                 	ST   Z,R26
                 	.ENDM
                 
                 	.MACRO __PUTW2SX
                 	MOVW R30,R28
                 	SUBI R30,LOW(-@0)
                 	SBCI R31,HIGH(-@0)
                 	ST   Z+,R26
                 	ST   Z,R27
                 	.ENDM
                 
                 	.MACRO __PUTD2SX
                 	MOVW R30,R28
                 	SUBI R30,LOW(-@0)
                 	SBCI R31,HIGH(-@0)
                 	ST   Z+,R26
                 	ST   Z+,R27
                 	ST   Z+,R24
                 	ST   Z,R25
                 	.ENDM
                 
                 	.MACRO __PUTBSRX
                 	MOVW R30,R28
                 	SUBI R30,LOW(-@1)
                 	SBCI R31,HIGH(-@1)
                 	ST   Z,R@0
                 	.ENDM
                 
                 	.MACRO __PUTWSRX
                 	MOVW R30,R28
                 	SUBI R30,LOW(-@2)
                 	SBCI R31,HIGH(-@2)
                 	ST   Z+,R@0
                 	ST   Z,R@1
                 	.ENDM
                 
                 	.MACRO __PUTB1SNX
                 	MOVW R26,R28
                 	SUBI R26,LOW(-@0)
                 	SBCI R27,HIGH(-@0)
                 	LD   R0,X+
                 	LD   R27,X
                 	MOV  R26,R0
                 	SUBI R26,LOW(-@1)
                 	SBCI R27,HIGH(-@1)
                 	ST   X,R30
                 	.ENDM
                 
                 	.MACRO __PUTW1SNX
                 	MOVW R26,R28
                 	SUBI R26,LOW(-@0)
                 	SBCI R27,HIGH(-@0)
                 	LD   R0,X+
                 	LD   R27,X
                 	MOV  R26,R0
                 	SUBI R26,LOW(-@1)
                 	SBCI R27,HIGH(-@1)
                 	ST   X+,R30
                 	ST   X,R31
                 	.ENDM
                 
                 	.MACRO __PUTD1SNX
                 	MOVW R26,R28
                 	SUBI R26,LOW(-@0)
                 	SBCI R27,HIGH(-@0)
                 	LD   R0,X+
                 	LD   R27,X
                 	MOV  R26,R0
                 	SUBI R26,LOW(-@1)
                 	SBCI R27,HIGH(-@1)
                 	ST   X+,R30
                 	ST   X+,R31
                 	ST   X+,R22
                 	ST   X,R23
                 	.ENDM
                 
                 	.MACRO __MULBRR
                 	MULS R@0,R@1
                 	MOVW R30,R0
                 	.ENDM
                 
                 	.MACRO __MULBRRU
                 	MUL  R@0,R@1
                 	MOVW R30,R0
                 	.ENDM
                 
                 	.MACRO __MULBRR0
                 	MULS R@0,R@1
                 	.ENDM
                 
                 	.MACRO __MULBRRU0
                 	MUL  R@0,R@1
                 	.ENDM
                 
                 	.MACRO __MULBNWRU
                 	LDI  R26,@2
                 	MUL  R26,R@0
                 	MOVW R30,R0
                 	MUL  R26,R@1
                 	ADD  R31,R0
                 	.ENDM
                 
                 ;NAME DEFINITIONS FOR GLOBAL VARIABLES ALLOCATED TO REGISTERS
                 	.DEF _xxx=R4
                 	.DEF _nr_zacisku=R6
                 	.DEF _odczytalem_zacisk=R8
                 	.DEF _il_prob_odczytu=R10
                 	.DEF _start=R12
                 
                 	.CSEG
                 	.ORG 0x00
                 
                 ;START OF CODE MARKER
                 __START_OF_CODE:
                 
                 ;INTERRUPT VECTORS
000000 940c 03da 	JMP  __RESET
000002 940c 0000 	JMP  0x00
000004 940c 0000 	JMP  0x00
000006 940c 0000 	JMP  0x00
000008 940c 0000 	JMP  0x00
00000a 940c 0000 	JMP  0x00
00000c 940c 0000 	JMP  0x00
00000e 940c 0000 	JMP  0x00
000010 940c 0000 	JMP  0x00
000012 940c 0000 	JMP  0x00
000014 940c 0000 	JMP  0x00
000016 940c 0000 	JMP  0x00
000018 940c 0000 	JMP  0x00
00001a 940c 0000 	JMP  0x00
00001c 940c 0000 	JMP  0x00
00001e 940c 0000 	JMP  0x00
000020 940c 0453 	JMP  _timer0_ovf_isr
000022 940c 0000 	JMP  0x00
000024 940c 0000 	JMP  0x00
000026 940c 0000 	JMP  0x00
000028 940c 0000 	JMP  0x00
00002a 940c 0000 	JMP  0x00
00002c 940c 0000 	JMP  0x00
00002e 940c 0000 	JMP  0x00
000030 940c 0000 	JMP  0x00
000032 940c 0000 	JMP  0x00
000034 940c 0000 	JMP  0x00
000036 940c 0000 	JMP  0x00
000038 940c 0000 	JMP  0x00
00003a 940c 0000 	JMP  0x00
00003c 940c 0000 	JMP  0x00
00003e 940c 0000 	JMP  0x00
000040 940c 0000 	JMP  0x00
000042 940c 0000 	JMP  0x00
000044 940c 0000 	JMP  0x00
                 
                 _tbl10_G103:
000046 2710
000047 03e8
000048 0064
000049 000a      	.DB  0x10,0x27,0xE8,0x3,0x64,0x0,0xA,0x0
00004a 0001      	.DB  0x1,0x0
                 _tbl16_G103:
00004b 1000
00004c 0100
00004d 0010
00004e 0001      	.DB  0x0,0x10,0x0,0x1,0x10,0x0,0x1,0x0
                 
                 ;REGISTER BIT VARIABLES INITIALIZATION
                 __REG_BIT_VARS:
00004f 0000      	.DW  0x0000
                 
                 _0x0:
000050 2020
000051 2020
000052 2020
000053 2020      	.DB  0x20,0x20,0x20,0x20,0x20,0x20,0x20,0x20
000054 2020
000055 2020
000056 2020
000057 2020      	.DB  0x20,0x20,0x20,0x20,0x20,0x20,0x20,0x20
000058 2020
000059 2020
00005a 2020
00005b 2020      	.DB  0x20,0x20,0x20,0x20,0x20,0x20,0x20,0x20
00005c 2020
00005d 2020
00005e 2020
00005f 2020      	.DB  0x20,0x20,0x20,0x20,0x20,0x20,0x20,0x20
000060 2020
000061 2020
000062 2020
000063 2020      	.DB  0x20,0x20,0x20,0x20,0x20,0x20,0x20,0x20
000064 2020
000065 2020
000066 2020
000067 2020      	.DB  0x20,0x20,0x20,0x20,0x20,0x20,0x20,0x20
000068 5a00
000069 6361
00006a 7369
00006b 206b      	.DB  0x0,0x5A,0x61,0x63,0x69,0x73,0x6B,0x20
00006c 696e
00006d 2065
00006e 6d7a
00006f 6569      	.DB  0x6E,0x69,0x65,0x20,0x7A,0x6D,0x69,0x65
000070 7a72
000071 6e6f
000072 2079
000073 2075      	.DB  0x72,0x7A,0x6F,0x6E,0x79,0x20,0x75,0x20
000074 7957
000075 6f6b
000076 616e
000077 6377      	.DB  0x57,0x79,0x6B,0x6F,0x6E,0x61,0x77,0x63
000078 0079
000079 734f
00007a 7a20
00007b 6361      	.DB  0x79,0x0,0x4F,0x73,0x20,0x7A,0x61,0x63
00007c 7369
00007d 756b
00007e 6220
00007f 696c      	.DB  0x69,0x73,0x6B,0x75,0x20,0x62,0x6C,0x69
000080 657a
000081 206a
000082 7a73
000083 6661      	.DB  0x7A,0x65,0x6A,0x20,0x73,0x7A,0x61,0x66
000084 0079
000085 734f
000086 7a20
000087 6361      	.DB  0x79,0x0,0x4F,0x73,0x20,0x7A,0x61,0x63
000088 7369
000089 756b
00008a 6420
00008b 6c61      	.DB  0x69,0x73,0x6B,0x75,0x20,0x64,0x61,0x6C
00008c 6a65
00008d 6f20
00008e 2064
00008f 7a73      	.DB  0x65,0x6A,0x20,0x6F,0x64,0x20,0x73,0x7A
000090 6661
000091 0079
000092 6943
000093 6e73      	.DB  0x61,0x66,0x79,0x0,0x43,0x69,0x73,0x6E
000094 6569
000095 696e
000096 2065
000097 617a      	.DB  0x69,0x65,0x6E,0x69,0x65,0x20,0x7A,0x61
000098 6d20
000099 6c61
00009a 2065
00009b 202d      	.DB  0x20,0x6D,0x61,0x6C,0x65,0x20,0x2D,0x20
00009c 6e6d
00009d 6569
00009e 736a
00009f 657a      	.DB  0x6D,0x6E,0x69,0x65,0x6A,0x73,0x7A,0x65
0000a0 6e20
0000a1 7a69
0000a2 3620
0000a3 6220      	.DB  0x20,0x6E,0x69,0x7A,0x20,0x36,0x20,0x62
0000a4 7261
0000a5 3800
0000a6 2d36
0000a7 3130      	.DB  0x61,0x72,0x0,0x38,0x36,0x2D,0x30,0x31
0000a8 3037
0000a9 3800
0000aa 2d36
0000ab 3031      	.DB  0x37,0x30,0x0,0x38,0x36,0x2D,0x31,0x30
0000ac 3334
0000ad 3800
0000ae 2d36
0000af 3631      	.DB  0x34,0x33,0x0,0x38,0x36,0x2D,0x31,0x36
0000b0 3537
0000b1 3800
0000b2 2d36
0000b3 3032      	.DB  0x37,0x35,0x0,0x38,0x36,0x2D,0x32,0x30
0000b4 3839
0000b5 3800
0000b6 2d37
0000b7 3130      	.DB  0x39,0x38,0x0,0x38,0x37,0x2D,0x30,0x31
0000b8 3037
0000b9 3800
0000ba 2d37
0000bb 3031      	.DB  0x37,0x30,0x0,0x38,0x37,0x2D,0x31,0x30
0000bc 3334
0000bd 3800
0000be 2d37
0000bf 3631      	.DB  0x34,0x33,0x0,0x38,0x37,0x2D,0x31,0x36
0000c0 3537
0000c1 3800
0000c2 2d37
0000c3 3032      	.DB  0x37,0x35,0x0,0x38,0x37,0x2D,0x32,0x30
0000c4 3839
0000c5 3800
0000c6 2d36
0000c7 3130      	.DB  0x39,0x38,0x0,0x38,0x36,0x2D,0x30,0x31
0000c8 3239
0000c9 3800
0000ca 2d36
0000cb 3031      	.DB  0x39,0x32,0x0,0x38,0x36,0x2D,0x31,0x30
0000cc 3435
0000cd 3800
0000ce 2d36
0000cf 3631      	.DB  0x35,0x34,0x0,0x38,0x36,0x2D,0x31,0x36
0000d0 3637
0000d1 3800
0000d2 2d36
0000d3 3132      	.DB  0x37,0x36,0x0,0x38,0x36,0x2D,0x32,0x31
0000d4 3233
0000d5 3800
0000d6 2d37
0000d7 3130      	.DB  0x33,0x32,0x0,0x38,0x37,0x2D,0x30,0x31
0000d8 3239
0000d9 3800
0000da 2d37
0000db 3031      	.DB  0x39,0x32,0x0,0x38,0x37,0x2D,0x31,0x30
0000dc 3435
0000dd 3800
0000de 2d37
0000df 3631      	.DB  0x35,0x34,0x0,0x38,0x37,0x2D,0x31,0x36
0000e0 3637
0000e1 3800
0000e2 2d37
0000e3 3132      	.DB  0x37,0x36,0x0,0x38,0x37,0x2D,0x32,0x31
0000e4 3233
0000e5 3800
0000e6 2d36
0000e7 3130      	.DB  0x33,0x32,0x0,0x38,0x36,0x2D,0x30,0x31
0000e8 3339
0000e9 3800
0000ea 2d36
0000eb 3231      	.DB  0x39,0x33,0x0,0x38,0x36,0x2D,0x31,0x32
0000ec 3631
0000ed 3800
0000ee 2d36
0000ef 3831      	.DB  0x31,0x36,0x0,0x38,0x36,0x2D,0x31,0x38
0000f0 3233
0000f1 3800
0000f2 2d36
0000f3 3132      	.DB  0x33,0x32,0x0,0x38,0x36,0x2D,0x32,0x31
0000f4 3437
0000f5 3800
0000f6 2d37
0000f7 3130      	.DB  0x37,0x34,0x0,0x38,0x37,0x2D,0x30,0x31
0000f8 3339
0000f9 3800
0000fa 2d37
0000fb 3231      	.DB  0x39,0x33,0x0,0x38,0x37,0x2D,0x31,0x32
0000fc 3631
0000fd 3800
0000fe 2d37
0000ff 3831      	.DB  0x31,0x36,0x0,0x38,0x37,0x2D,0x31,0x38
000100 3233
000101 3800
000102 2d37
000103 3132      	.DB  0x33,0x32,0x0,0x38,0x37,0x2D,0x32,0x31
000104 3437
000105 3800
000106 2d36
000107 3130      	.DB  0x37,0x34,0x0,0x38,0x36,0x2D,0x30,0x31
000108 3439
000109 3800
00010a 2d36
00010b 3331      	.DB  0x39,0x34,0x0,0x38,0x36,0x2D,0x31,0x33
00010c 3134
00010d 3800
00010e 2d36
00010f 3831      	.DB  0x34,0x31,0x0,0x38,0x36,0x2D,0x31,0x38
000110 3333
000111 3800
000112 2d36
000113 3132      	.DB  0x33,0x33,0x0,0x38,0x36,0x2D,0x32,0x31
000114 3038
000115 3800
000116 2d37
000117 3130      	.DB  0x38,0x30,0x0,0x38,0x37,0x2D,0x30,0x31
000118 3439
000119 3800
00011a 2d37
00011b 3331      	.DB  0x39,0x34,0x0,0x38,0x37,0x2D,0x31,0x33
00011c 3134
00011d 3800
00011e 2d37
00011f 3831      	.DB  0x34,0x31,0x0,0x38,0x37,0x2D,0x31,0x38
000120 3333
000121 3800
000122 2d37
000123 3132      	.DB  0x33,0x33,0x0,0x38,0x37,0x2D,0x32,0x31
000124 3038
000125 3800
000126 2d36
000127 3630      	.DB  0x38,0x30,0x0,0x38,0x36,0x2D,0x30,0x36
000128 3336
000129 3800
00012a 2d36
00012b 3331      	.DB  0x36,0x33,0x0,0x38,0x36,0x2D,0x31,0x33
00012c 3934
00012d 3800
00012e 2d36
00012f 3831      	.DB  0x34,0x39,0x0,0x38,0x36,0x2D,0x31,0x38
000130 3433
000131 3800
000132 2d36
000133 3232      	.DB  0x33,0x34,0x0,0x38,0x36,0x2D,0x32,0x32
000134 3430
000135 3800
000136 2d37
000137 3630      	.DB  0x30,0x34,0x0,0x38,0x37,0x2D,0x30,0x36
000138 3336
000139 3800
00013a 2d37
00013b 3331      	.DB  0x36,0x33,0x0,0x38,0x37,0x2D,0x31,0x33
00013c 3934
00013d 3800
00013e 2d37
00013f 3831      	.DB  0x34,0x39,0x0,0x38,0x37,0x2D,0x31,0x38
000140 3433
000141 3800
000142 2d37
000143 3232      	.DB  0x33,0x34,0x0,0x38,0x37,0x2D,0x32,0x32
000144 3430
000145 3800
000146 2d36
000147 3730      	.DB  0x30,0x34,0x0,0x38,0x36,0x2D,0x30,0x37
000148 3836
000149 3800
00014a 2d36
00014b 3331      	.DB  0x36,0x38,0x0,0x38,0x36,0x2D,0x31,0x33
00014c 3735
00014d 3800
00014e 2d36
00014f 3831      	.DB  0x35,0x37,0x0,0x38,0x36,0x2D,0x31,0x38
000150 3834
000151 3800
000152 2d36
000153 3232      	.DB  0x34,0x38,0x0,0x38,0x36,0x2D,0x32,0x32
000154 3231
000155 3800
000156 2d37
000157 3730      	.DB  0x31,0x32,0x0,0x38,0x37,0x2D,0x30,0x37
000158 3836
000159 3800
00015a 2d37
00015b 3331      	.DB  0x36,0x38,0x0,0x38,0x37,0x2D,0x31,0x33
00015c 3735
00015d 3800
00015e 2d37
00015f 3831      	.DB  0x35,0x37,0x0,0x38,0x37,0x2D,0x31,0x38
000160 3834
000161 3800
000162 2d37
000163 3232      	.DB  0x34,0x38,0x0,0x38,0x37,0x2D,0x32,0x32
000164 3231
000165 3800
000166 2d36
000167 3830      	.DB  0x31,0x32,0x0,0x38,0x36,0x2D,0x30,0x38
000168 3030
000169 3800
00016a 2d36
00016b 3331      	.DB  0x30,0x30,0x0,0x38,0x36,0x2D,0x31,0x33
00016c 3336
00016d 3800
00016e 2d36
00016f 3931      	.DB  0x36,0x33,0x0,0x38,0x36,0x2D,0x31,0x39
000170 3430
000171 3800
000172 2d36
000173 3232      	.DB  0x30,0x34,0x0,0x38,0x36,0x2D,0x32,0x32
000174 3134
000175 3800
000176 2d37
000177 3830      	.DB  0x34,0x31,0x0,0x38,0x37,0x2D,0x30,0x38
000178 3030
000179 3800
00017a 2d37
00017b 3331      	.DB  0x30,0x30,0x0,0x38,0x37,0x2D,0x31,0x33
00017c 3336
00017d 3800
00017e 2d37
00017f 3931      	.DB  0x36,0x33,0x0,0x38,0x37,0x2D,0x31,0x39
000180 3430
000181 3800
000182 2d37
000183 3232      	.DB  0x30,0x34,0x0,0x38,0x37,0x2D,0x32,0x32
000184 3134
000185 3800
000186 2d36
000187 3830      	.DB  0x34,0x31,0x0,0x38,0x36,0x2D,0x30,0x38
000188 3131
000189 3800
00018a 2d36
00018b 3531      	.DB  0x31,0x31,0x0,0x38,0x36,0x2D,0x31,0x35
00018c 3332
00018d 3800
00018e 2d36
00018f 3931      	.DB  0x32,0x33,0x0,0x38,0x36,0x2D,0x31,0x39
000190 3932
000191 3800
000192 2d36
000193 3232      	.DB  0x32,0x39,0x0,0x38,0x36,0x2D,0x32,0x32
000194 3136
000195 3800
000196 2d37
000197 3830      	.DB  0x36,0x31,0x0,0x38,0x37,0x2D,0x30,0x38
000198 3131
000199 3800
00019a 2d37
00019b 3531      	.DB  0x31,0x31,0x0,0x38,0x37,0x2D,0x31,0x35
00019c 3332
00019d 3800
00019e 2d37
00019f 3931      	.DB  0x32,0x33,0x0,0x38,0x37,0x2D,0x31,0x39
0001a0 3932
0001a1 3800
0001a2 2d37
0001a3 3232      	.DB  0x32,0x39,0x0,0x38,0x37,0x2D,0x32,0x32
0001a4 3136
0001a5 3800
0001a6 2d36
0001a7 3830      	.DB  0x36,0x31,0x0,0x38,0x36,0x2D,0x30,0x38
0001a8 3431
0001a9 3800
0001aa 2d36
0001ab 3531      	.DB  0x31,0x34,0x0,0x38,0x36,0x2D,0x31,0x35
0001ac 3033
0001ad 3800
0001ae 2d36
0001af 3931      	.DB  0x33,0x30,0x0,0x38,0x36,0x2D,0x31,0x39
0001b0 3633
0001b1 3800
0001b2 2d36
0001b3 3232      	.DB  0x33,0x36,0x0,0x38,0x36,0x2D,0x32,0x32
0001b4 3538
0001b5 3800
0001b6 2d37
0001b7 3830      	.DB  0x38,0x35,0x0,0x38,0x37,0x2D,0x30,0x38
0001b8 3431
0001b9 3800
0001ba 2d37
0001bb 3531      	.DB  0x31,0x34,0x0,0x38,0x37,0x2D,0x31,0x35
0001bc 3033
0001bd 3800
0001be 2d37
0001bf 3931      	.DB  0x33,0x30,0x0,0x38,0x37,0x2D,0x31,0x39
0001c0 3633
0001c1 3800
0001c2 2d37
0001c3 3232      	.DB  0x33,0x36,0x0,0x38,0x37,0x2D,0x32,0x32
0001c4 3538
0001c5 3800
0001c6 2d36
0001c7 3830      	.DB  0x38,0x35,0x0,0x38,0x36,0x2D,0x30,0x38
0001c8 3531
0001c9 3800
0001ca 2d36
0001cb 3531      	.DB  0x31,0x35,0x0,0x38,0x36,0x2D,0x31,0x35
0001cc 3135
0001cd 3800
0001ce 2d36
0001cf 3931      	.DB  0x35,0x31,0x0,0x38,0x36,0x2D,0x31,0x39
0001d0 3134
0001d1 3800
0001d2 2d36
0001d3 3232      	.DB  0x34,0x31,0x0,0x38,0x36,0x2D,0x32,0x32
0001d4 3638
0001d5 3800
0001d6 2d37
0001d7 3830      	.DB  0x38,0x36,0x0,0x38,0x37,0x2D,0x30,0x38
0001d8 3531
0001d9 3800
0001da 2d37
0001db 3531      	.DB  0x31,0x35,0x0,0x38,0x37,0x2D,0x31,0x35
0001dc 3135
0001dd 3800
0001de 2d37
0001df 3931      	.DB  0x35,0x31,0x0,0x38,0x37,0x2D,0x31,0x39
0001e0 3134
0001e1 3800
0001e2 2d37
0001e3 3232      	.DB  0x34,0x31,0x0,0x38,0x37,0x2D,0x32,0x32
0001e4 3638
0001e5 3800
0001e6 2d36
0001e7 3830      	.DB  0x38,0x36,0x0,0x38,0x36,0x2D,0x30,0x38
0001e8 3631
0001e9 3800
0001ea 2d36
0001eb 3531      	.DB  0x31,0x36,0x0,0x38,0x36,0x2D,0x31,0x35
0001ec 3235
0001ed 3800
0001ee 2d36
0001ef 3032      	.DB  0x35,0x32,0x0,0x38,0x36,0x2D,0x32,0x30
0001f0 3730
0001f1 3800
0001f2 2d36
0001f3 3232      	.DB  0x30,0x37,0x0,0x38,0x36,0x2D,0x32,0x32
0001f4 3239
0001f5 3800
0001f6 2d37
0001f7 3830      	.DB  0x39,0x32,0x0,0x38,0x37,0x2D,0x30,0x38
0001f8 3631
0001f9 3800
0001fa 2d37
0001fb 3531      	.DB  0x31,0x36,0x0,0x38,0x37,0x2D,0x31,0x35
0001fc 3235
0001fd 3800
0001fe 2d37
0001ff 3032      	.DB  0x35,0x32,0x0,0x38,0x37,0x2D,0x32,0x30
000200 3730
000201 3800
000202 2d37
000203 3232      	.DB  0x30,0x37,0x0,0x38,0x37,0x2D,0x32,0x32
000204 3239
000205 3800
000206 2d36
000207 3830      	.DB  0x39,0x32,0x0,0x38,0x36,0x2D,0x30,0x38
000208 3731
000209 3800
00020a 2d36
00020b 3631      	.DB  0x31,0x37,0x0,0x38,0x36,0x2D,0x31,0x36
00020c 3230
00020d 3800
00020e 2d36
00020f 3032      	.DB  0x30,0x32,0x0,0x38,0x36,0x2D,0x32,0x30
000210 3731
000211 3800
000212 2d36
000213 3332      	.DB  0x31,0x37,0x0,0x38,0x36,0x2D,0x32,0x33
000214 3438
000215 3800
000216 2d37
000217 3830      	.DB  0x38,0x34,0x0,0x38,0x37,0x2D,0x30,0x38
000218 3731
000219 3800
00021a 2d37
00021b 3631      	.DB  0x31,0x37,0x0,0x38,0x37,0x2D,0x31,0x36
00021c 3230
00021d 3800
00021e 2d37
00021f 3032      	.DB  0x30,0x32,0x0,0x38,0x37,0x2D,0x32,0x30
000220 3731
000221 3800
000222 2d37
000223 3332      	.DB  0x31,0x37,0x0,0x38,0x37,0x2D,0x32,0x33
000224 3438
000225 3800
000226 2d36
000227 3830      	.DB  0x38,0x34,0x0,0x38,0x36,0x2D,0x30,0x38
000228 3734
000229 3800
00022a 2d36
00022b 3631      	.DB  0x34,0x37,0x0,0x38,0x36,0x2D,0x31,0x36
00022c 3032
00022d 3800
00022e 2d36
00022f 3032      	.DB  0x32,0x30,0x0,0x38,0x36,0x2D,0x32,0x30
000230 3931
000231 3800
000232 2d36
000233 3332      	.DB  0x31,0x39,0x0,0x38,0x36,0x2D,0x32,0x33
000234 3538
000235 3800
000236 2d37
000237 3830      	.DB  0x38,0x35,0x0,0x38,0x37,0x2D,0x30,0x38
000238 3734
000239 3800
00023a 2d37
00023b 3631      	.DB  0x34,0x37,0x0,0x38,0x37,0x2D,0x31,0x36
00023c 3032
00023d 3800
00023e 2d37
00023f 3032      	.DB  0x32,0x30,0x0,0x38,0x37,0x2D,0x32,0x30
000240 3931
000241 3800
000242 2d37
000243 3332      	.DB  0x31,0x39,0x0,0x38,0x37,0x2D,0x32,0x33
000244 3538
000245 3800
000246 2d36
000247 3830      	.DB  0x38,0x35,0x0,0x38,0x36,0x2D,0x30,0x38
000248 3435
000249 3800
00024a 2d36
00024b 3631      	.DB  0x35,0x34,0x0,0x38,0x36,0x2D,0x31,0x36
00024c 3232
00024d 3800
00024e 2d36
00024f 3032      	.DB  0x32,0x32,0x0,0x38,0x36,0x2D,0x32,0x30
000250 3832
000251 3800
000252 2d36
000253 3432      	.DB  0x32,0x38,0x0,0x38,0x36,0x2D,0x32,0x34
000254 3733
000255 3800
000256 2d37
000257 3830      	.DB  0x33,0x37,0x0,0x38,0x37,0x2D,0x30,0x38
000258 3435
000259 3800
00025a 2d37
00025b 3631      	.DB  0x35,0x34,0x0,0x38,0x37,0x2D,0x31,0x36
00025c 3232
00025d 3800
00025e 2d37
00025f 3032      	.DB  0x32,0x32,0x0,0x38,0x37,0x2D,0x32,0x30
000260 3832
000261 3800
000262 2d37
000263 3432      	.DB  0x32,0x38,0x0,0x38,0x37,0x2D,0x32,0x34
000264 3733
000265 3800
000266 2d36
000267 3830      	.DB  0x33,0x37,0x0,0x38,0x36,0x2D,0x30,0x38
000268 3236
000269 3800
00026a 2d36
00026b 3631      	.DB  0x36,0x32,0x0,0x38,0x36,0x2D,0x31,0x36
00026c 3532
00026d 3800
00026e 2d36
00026f 3032      	.DB  0x32,0x35,0x0,0x38,0x36,0x2D,0x32,0x30
000270 3235
000271 3800
000272 2d36
000273 3432      	.DB  0x35,0x32,0x0,0x38,0x36,0x2D,0x32,0x34
000274 3239
000275 3800
000276 2d37
000277 3830      	.DB  0x39,0x32,0x0,0x38,0x37,0x2D,0x30,0x38
000278 3236
000279 3800
00027a 2d37
00027b 3631      	.DB  0x36,0x32,0x0,0x38,0x37,0x2D,0x31,0x36
00027c 3532
00027d 3800
00027e 2d37
00027f 3032      	.DB  0x32,0x35,0x0,0x38,0x37,0x2D,0x32,0x30
000280 3235
000281 3800
000282 2d37
000283 3432      	.DB  0x35,0x32,0x0,0x38,0x37,0x2D,0x32,0x34
000284 3239
000285 3800
000286 2d36
000287 3930      	.DB  0x39,0x32,0x0,0x38,0x36,0x2D,0x30,0x39
000288 3533
000289 3800
00028a 2d36
00028b 3631      	.DB  0x33,0x35,0x0,0x38,0x36,0x2D,0x31,0x36
00028c 3834
00028d 3800
00028e 2d36
00028f 3032      	.DB  0x34,0x38,0x0,0x38,0x36,0x2D,0x32,0x30
000290 3238
000291 3800
000292 2d36
000293 3532      	.DB  0x38,0x32,0x0,0x38,0x36,0x2D,0x32,0x35
000294 3030
000295 3800
000296 2d37
000297 3930      	.DB  0x30,0x30,0x0,0x38,0x37,0x2D,0x30,0x39
000298 3533
000299 3800
00029a 2d37
00029b 3631      	.DB  0x33,0x35,0x0,0x38,0x37,0x2D,0x31,0x36
00029c 3834
00029d 3800
00029e 2d37
00029f 3032      	.DB  0x34,0x38,0x0,0x38,0x37,0x2D,0x32,0x30
0002a0 3238
0002a1 3800
0002a2 2d37
0002a3 3532      	.DB  0x38,0x32,0x0,0x38,0x37,0x2D,0x32,0x35
0002a4 3030
0002a5 3800
0002a6 2d36
0002a7 3031      	.DB  0x30,0x30,0x0,0x38,0x36,0x2D,0x31,0x30
0002a8 3931
0002a9 3800
0002aa 2d36
0002ab 3631      	.DB  0x31,0x39,0x0,0x38,0x36,0x2D,0x31,0x36
0002ac 3934
0002ad 3800
0002ae 2d36
0002af 3032      	.DB  0x34,0x39,0x0,0x38,0x36,0x2D,0x32,0x30
0002b0 3338
0002b1 3800
0002b2 2d36
0002b3 3532      	.DB  0x38,0x33,0x0,0x38,0x36,0x2D,0x32,0x35
0002b4 3538
0002b5 3800
0002b6 2d37
0002b7 3031      	.DB  0x38,0x35,0x0,0x38,0x37,0x2D,0x31,0x30
0002b8 3931
0002b9 3800
0002ba 2d37
0002bb 3631      	.DB  0x31,0x39,0x0,0x38,0x37,0x2D,0x31,0x36
0002bc 3934
0002bd 3800
0002be 2d37
0002bf 3032      	.DB  0x34,0x39,0x0,0x38,0x37,0x2D,0x32,0x30
0002c0 3338
0002c1 3800
0002c2 2d37
0002c3 3632      	.DB  0x38,0x33,0x0,0x38,0x37,0x2D,0x32,0x36
0002c4 3432
0002c5 3800
0002c6 2d36
0002c7 3031      	.DB  0x32,0x34,0x0,0x38,0x36,0x2D,0x31,0x30
0002c8 3732
0002c9 3800
0002ca 2d36
0002cb 3631      	.DB  0x32,0x37,0x0,0x38,0x36,0x2D,0x31,0x36
0002cc 3936
0002cd 3800
0002ce 2d36
0002cf 3032      	.DB  0x36,0x39,0x0,0x38,0x36,0x2D,0x32,0x30
0002d0 3738
0002d1 3800
0002d2 2d36
0002d3 3632      	.DB  0x38,0x37,0x0,0x38,0x36,0x2D,0x32,0x36
0002d4 3432
0002d5 3800
0002d6 2d37
0002d7 3031      	.DB  0x32,0x34,0x0,0x38,0x37,0x2D,0x31,0x30
0002d8 3732
0002d9 3800
0002da 2d37
0002db 3631      	.DB  0x32,0x37,0x0,0x38,0x37,0x2D,0x31,0x36
0002dc 3936
0002dd 3800
0002de 2d37
0002df 3032      	.DB  0x36,0x39,0x0,0x38,0x37,0x2D,0x32,0x30
0002e0 3738
0002e1 3800
0002e2 2d37
0002e3 3532      	.DB  0x38,0x37,0x0,0x38,0x37,0x2D,0x32,0x35
0002e4 3538
0002e5 4e00
0002e6 6569
0002e7 7720      	.DB  0x38,0x35,0x0,0x4E,0x69,0x65,0x20,0x77
0002e8 7a63
0002e9 7479
0002ea 6e61
0002eb 206f      	.DB  0x63,0x7A,0x79,0x74,0x61,0x6E,0x6F,0x20
0002ec 617a
0002ed 6963
0002ee 6b73
0002ef 0075      	.DB  0x7A,0x61,0x63,0x69,0x73,0x6B,0x75,0x0
0002f0 614e
0002f1 6963
0002f2 6e73
0002f3 6a69      	.DB  0x4E,0x61,0x63,0x69,0x73,0x6E,0x69,0x6A
0002f4 5320
0002f5 4154
0002f6 5452
0002f7 6120      	.DB  0x20,0x53,0x54,0x41,0x52,0x54,0x20,0x61
0002f8 7962
0002f9 7720
0002fa 7079
0002fb 7a6f      	.DB  0x62,0x79,0x20,0x77,0x79,0x70,0x6F,0x7A
0002fc 6379
0002fd 6f6a
0002fe 6f6e
0002ff 6177      	.DB  0x79,0x63,0x6A,0x6F,0x6E,0x6F,0x77,0x61
000300 2063
000301 616e
000302 6570
000303 7964      	.DB  0x63,0x20,0x6E,0x61,0x70,0x65,0x64,0x79
000304 5000
000305 7a6f
000306 6379
000307 6f6a      	.DB  0x0,0x50,0x6F,0x7A,0x79,0x63,0x6A,0x6F
000308 756e
000309 656a
00030a 7520
00030b 6c6b      	.DB  0x6E,0x75,0x6A,0x65,0x20,0x75,0x6B,0x6C
00030c 6461
00030d 2079
00030e 696c
00030f 696e      	.DB  0x61,0x64,0x79,0x20,0x6C,0x69,0x6E,0x69
000310 776f
000311 2065
000312 5958
000313 005a      	.DB  0x6F,0x77,0x65,0x20,0x58,0x59,0x5A,0x0
000314 7453
000315 7265
000316 776f
000317 696e      	.DB  0x53,0x74,0x65,0x72,0x6F,0x77,0x6E,0x69
000318 206b
000319 2031
00031a 202d
00031b 7977      	.DB  0x6B,0x20,0x31,0x20,0x2D,0x20,0x77,0x79
00031c 6f70
00031d 797a
00031e 6a63
00031f 6e6f      	.DB  0x70,0x6F,0x7A,0x79,0x63,0x6A,0x6F,0x6E
000320 776f
000321 6c61
000322 6d65
000323 5300      	.DB  0x6F,0x77,0x61,0x6C,0x65,0x6D,0x0,0x53
000324 6574
000325 6f72
000326 6e77
000327 6b69      	.DB  0x74,0x65,0x72,0x6F,0x77,0x6E,0x69,0x6B
000328 3220
000329 2d20
00032a 7720
00032b 7079      	.DB  0x20,0x32,0x20,0x2D,0x20,0x77,0x79,0x70
00032c 7a6f
00032d 6379
00032e 6f6a
00032f 6f6e      	.DB  0x6F,0x7A,0x79,0x63,0x6A,0x6F,0x6E,0x6F
000330 6177
000331 656c
000332 006d
000333 7453      	.DB  0x77,0x61,0x6C,0x65,0x6D,0x0,0x53,0x74
000334 7265
000335 776f
000336 696e
000337 206b      	.DB  0x65,0x72,0x6F,0x77,0x6E,0x69,0x6B,0x20
000338 2033
000339 202d
00033a 7977
00033b 6f70      	.DB  0x33,0x20,0x2D,0x20,0x77,0x79,0x70,0x6F
00033c 797a
00033d 6a63
00033e 6e6f
00033f 776f      	.DB  0x7A,0x79,0x63,0x6A,0x6F,0x6E,0x6F,0x77
000340 6c61
000341 6d65
000342 5300
000343 6574      	.DB  0x61,0x6C,0x65,0x6D,0x0,0x53,0x74,0x65
000344 6f72
000345 6e77
000346 6b69
000347 3420      	.DB  0x72,0x6F,0x77,0x6E,0x69,0x6B,0x20,0x34
000348 2d20
000349 7720
00034a 7079
00034b 7a6f      	.DB  0x20,0x2D,0x20,0x77,0x79,0x70,0x6F,0x7A
00034c 6379
00034d 6f6a
00034e 6f6e
00034f 6177      	.DB  0x79,0x63,0x6A,0x6F,0x6E,0x6F,0x77,0x61
000350 656c
000351 006d
000352 6c41
000353 7261      	.DB  0x6C,0x65,0x6D,0x0,0x41,0x6C,0x61,0x72
000354 206d
000355 7453
000356 7265
000357 776f      	.DB  0x6D,0x20,0x53,0x74,0x65,0x72,0x6F,0x77
000358 696e
000359 206b
00035a 0034
00035b 6c41      	.DB  0x6E,0x69,0x6B,0x20,0x34,0x0,0x41,0x6C
00035c 7261
00035d 206d
00035e 7453
00035f 7265      	.DB  0x61,0x72,0x6D,0x20,0x53,0x74,0x65,0x72
000360 776f
000361 696e
000362 206b
000363 0033      	.DB  0x6F,0x77,0x6E,0x69,0x6B,0x20,0x33,0x0
000364 6c41
000365 7261
000366 206d
000367 7453      	.DB  0x41,0x6C,0x61,0x72,0x6D,0x20,0x53,0x74
000368 7265
000369 776f
00036a 696e
00036b 206b      	.DB  0x65,0x72,0x6F,0x77,0x6E,0x69,0x6B,0x20
00036c 0031
00036d 6c41
00036e 7261
00036f 206d      	.DB  0x31,0x0,0x41,0x6C,0x61,0x72,0x6D,0x20
000370 7453
000371 7265
000372 776f
000373 696e      	.DB  0x53,0x74,0x65,0x72,0x6F,0x77,0x6E,0x69
000374 206b
000375 0032
000376 7957
000377 6f70      	.DB  0x6B,0x20,0x32,0x0,0x57,0x79,0x70,0x6F
000378 797a
000379 6a63
00037a 6e6f
00037b 776f      	.DB  0x7A,0x79,0x63,0x6A,0x6F,0x6E,0x6F,0x77
00037c 6e61
00037d 206f
00037e 6b75
00037f 616c      	.DB  0x61,0x6E,0x6F,0x20,0x75,0x6B,0x6C,0x61
000380 7964
000381 6c20
000382 6e69
000383 6f69      	.DB  0x64,0x79,0x20,0x6C,0x69,0x6E,0x69,0x6F
000384 6577
000385 5820
000386 5a59
000387 5000      	.DB  0x77,0x65,0x20,0x58,0x59,0x5A,0x0,0x50
000388 7a72
000389 6365
00038a 6169
00038b 657a      	.DB  0x72,0x7A,0x65,0x63,0x69,0x61,0x7A,0x65
00038c 696e
00038d 2061
00038e 454c
00038f 5346      	.DB  0x6E,0x69,0x61,0x20,0x4C,0x45,0x46,0x53
000390 3233
000391 315f
000392 5000
000393 7a72      	.DB  0x33,0x32,0x5F,0x31,0x0,0x50,0x72,0x7A
000394 6365
000395 6169
000396 657a
000397 696e      	.DB  0x65,0x63,0x69,0x61,0x7A,0x65,0x6E,0x69
000398 2061
000399 454c
00039a 5346
00039b 3233      	.DB  0x61,0x20,0x4C,0x45,0x46,0x53,0x33,0x32
00039c 325f
00039d 5000
00039e 7a72
00039f 6365      	.DB  0x5F,0x32,0x0,0x50,0x72,0x7A,0x65,0x63
0003a0 6169
0003a1 657a
0003a2 696e
0003a3 2061      	.DB  0x69,0x61,0x7A,0x65,0x6E,0x69,0x61,0x20
0003a4 454c
0003a5 5346
0003a6 585f
0003a7 5f59      	.DB  0x4C,0x45,0x46,0x53,0x5F,0x58,0x59,0x5F
0003a8 0032
0003a9 7250
0003aa 657a
0003ab 6963      	.DB  0x32,0x0,0x50,0x72,0x7A,0x65,0x63,0x69
0003ac 7a61
0003ad 6e65
0003ae 6169
0003af 4c20      	.DB  0x61,0x7A,0x65,0x6E,0x69,0x61,0x20,0x4C
0003b0 4645
0003b1 5f53
0003b2 5958
0003b3 315f      	.DB  0x45,0x46,0x53,0x5F,0x58,0x59,0x5F,0x31
0003b4 5700
0003b5 6d79
0003b6 6569
0003b7 206e      	.DB  0x0,0x57,0x79,0x6D,0x69,0x65,0x6E,0x20
0003b8 7a73
0003b9 7a63
0003ba 746f
0003bb 656b      	.DB  0x73,0x7A,0x63,0x7A,0x6F,0x74,0x6B,0x65
0003bc 7020
0003bd 6465
0003be 657a
0003bf 6b6c      	.DB  0x20,0x70,0x65,0x64,0x7A,0x65,0x6C,0x6B
0003c0 776f
0003c1 0061
0003c2 7957
0003c3 696d      	.DB  0x6F,0x77,0x61,0x0,0x57,0x79,0x6D,0x69
0003c4 6e65
0003c5 6b20
0003c6 6172
0003c7 657a      	.DB  0x65,0x6E,0x20,0x6B,0x72,0x61,0x7A,0x65
0003c8 206b
0003c9 6373
0003ca 6569
0003cb 6e72      	.DB  0x6B,0x20,0x73,0x63,0x69,0x65,0x72,0x6E
0003cc 0079      	.DB  0x79,0x0
                 _0x2020060:
C:\cvavreval\BORG\v4\Master\List\Borg.asm(1346): warning: .cseg .db misalignment - padding zero byte
0003cd 0001      	.DB  0x1
                 _0x2020000:
0003ce 4e2d
0003cf 4e41
0003d0 4900
0003d1 464e      	.DB  0x2D,0x4E,0x41,0x4E,0x0,0x49,0x4E,0x46
C:\cvavreval\BORG\v4\Master\List\Borg.asm(1349): warning: .cseg .db misalignment - padding zero byte
0003d2 0000      	.DB  0x0
                 
                 __GLOBAL_INI_TBL:
0003d3 0001      	.DW  0x01
0003d4 0002      	.DW  0x02
0003d5 009e      	.DW  __REG_BIT_VARS*2
                 
0003d6 0001      	.DW  0x01
0003d7 058f      	.DW  __seed_G101
0003d8 079a      	.DW  _0x2020060*2
                 
                 _0xFFFFFFFF:
0003d9 0000      	.DW  0
                 
                 __RESET:
0003da 94f8      	CLI
0003db 27ee      	CLR  R30
0003dc bbec      	OUT  EECR,R30
                 
                 ;INTERRUPT VECTORS ARE PLACED
                 ;AT THE START OF FLASH
0003dd e0f1      	LDI  R31,1
0003de bff5      	OUT  MCUCR,R31
0003df bfe5      	OUT  MCUCR,R30
0003e0 93e0 006c 	STS  XMCRB,R30
                 
                 ;DISABLE WATCHDOG
0003e2 e1f8      	LDI  R31,0x18
0003e3 bdf1      	OUT  WDTCR,R31
0003e4 bde1      	OUT  WDTCR,R30
                 
                 ;CLEAR R2-R14
0003e5 e08d      	LDI  R24,(14-2)+1
0003e6 e0a2      	LDI  R26,2
0003e7 27bb      	CLR  R27
                 __CLEAR_REG:
0003e8 93ed      	ST   X+,R30
0003e9 958a      	DEC  R24
0003ea f7e9      	BRNE __CLEAR_REG
                 
                 ;CLEAR SRAM
0003eb e080      	LDI  R24,LOW(__CLEAR_SRAM_SIZE)
0003ec e190      	LDI  R25,HIGH(__CLEAR_SRAM_SIZE)
0003ed e0a0      	LDI  R26,LOW(__SRAM_START)
0003ee e0b1      	LDI  R27,HIGH(__SRAM_START)
                 __CLEAR_SRAM:
0003ef 93ed      	ST   X+,R30
0003f0 9701      	SBIW R24,1
0003f1 f7e9      	BRNE __CLEAR_SRAM
                 
                 ;GLOBAL VARIABLES INITIALIZATION
0003f2 eae6      	LDI  R30,LOW(__GLOBAL_INI_TBL*2)
0003f3 e0f7      	LDI  R31,HIGH(__GLOBAL_INI_TBL*2)
                 __GLOBAL_INI_NEXT:
0003f4 9185      	LPM  R24,Z+
0003f5 9195      	LPM  R25,Z+
0003f6 9700      	SBIW R24,0
0003f7 f061      	BREQ __GLOBAL_INI_END
0003f8 91a5      	LPM  R26,Z+
0003f9 91b5      	LPM  R27,Z+
0003fa 9005      	LPM  R0,Z+
0003fb 9015      	LPM  R1,Z+
0003fc 01bf      	MOVW R22,R30
0003fd 01f0      	MOVW R30,R0
                 __GLOBAL_INI_LOOP:
0003fe 9005      	LPM  R0,Z+
0003ff 920d      	ST   X+,R0
000400 9701      	SBIW R24,1
000401 f7e1      	BRNE __GLOBAL_INI_LOOP
000402 01fb      	MOVW R30,R22
000403 cff0      	RJMP __GLOBAL_INI_NEXT
                 __GLOBAL_INI_END:
                 
000404 bf8b      	OUT  RAMPZ,R24
                 
                 ;HARDWARE STACK POINTER INITIALIZATION
000405 efef      	LDI  R30,LOW(__SRAM_END-__HEAP_SIZE)
000406 bfed      	OUT  SPL,R30
000407 e1e0      	LDI  R30,HIGH(__SRAM_END-__HEAP_SIZE)
000408 bfee      	OUT  SPH,R30
                 
                 ;DATA STACK POINTER INITIALIZATION
000409 e0c0      	LDI  R28,LOW(__SRAM_START+__DSTACK_SIZE)
00040a e0d5      	LDI  R29,HIGH(__SRAM_START+__DSTACK_SIZE)
                 
00040b 940c 219b 	JMP  _main
                 
                 	.ESEG
                 	.ORG 0
                 
                 	.DSEG
                 	.ORG 0x500
                 
                 	.CSEG
                 ;/*****************************************************
                 ;This program was produced by the
                 ;CodeWizardAVR V2.05.0 Professional
                 ;Automatic Program Generator
                 ; Copyright 1998-2010 Pavel Haiduc, HP InfoTech s.r.l.
                 ;http://www.hpinfotech.com
                 ;
                 ;Project :
                 ;Version :
                 ;Date    : 2018-08-31
                 ;Author  :
                 ;Company :
                 ;Comments:
                 ;
                 ;
                 ;Chip type               : ATmega128
                 ;Program type            : Application
                 ;AVR Core Clock frequency: 16,000000 MHz
                 ;Memory model            : Small
                 ;External RAM size       : 0
                 ;Data Stack size         : 1024
                 ;*****************************************************/
                 ;
                 ;#include <io.h>
                 	#ifndef __SLEEP_DEFINED__
                 	#define __SLEEP_DEFINED__
                 	.EQU __se_bit=0x20
                 	.EQU __sm_mask=0x1C
                 	.EQU __sm_powerdown=0x10
                 	.EQU __sm_powersave=0x18
                 	.EQU __sm_standby=0x14
                 	.EQU __sm_ext_standby=0x1C
                 	.EQU __sm_adc_noise_red=0x08
                 	.SET power_ctrl_reg=mcucr
                 	#endif
                 ;
                 ;#define DATA_REGISTER_EMPTY (1<<UDRE0)
                 ;#define RX_COMPLETE (1<<RXC0)
                 ;#define FRAMING_ERROR (1<<FE0)
                 ;#define PARITY_ERROR (1<<UPE0)
                 ;#define DATA_OVERRUN (1<<DOR0)
                 ;
                 ;
                 ;#pragma warn-
                 ;
                 ;eeprom int szczotka_druciana_ilosc_cykli,krazek_scierny_ilosc_cykli,krazek_scierny_cykl_po_okregu_ilosc;
                 ;//eeprom int czas_pracy_krazka_sciernego,czas_pracy_szczotki_drucianej;
                 ;eeprom int czas_pracy_krazka_sciernego_h,czas_pracy_szczotki_drucianej_h;
                 ;eeprom int czas_pracy_krazka_sciernego_stala,czas_pracy_szczotki_drucianej_stala;
                 ;
                 ;#pragma warn+
                 ;
                 ;
                 ;// Get a character from the USART1 Receiver
                 ;#pragma used+
                 ;char getchar1(void)
                 ; 0000 002E {
                 
                 	.CSEG
                 ; 0000 002F unsigned char status;
                 ; 0000 0030 char data;
                 ; 0000 0031 while (1)
                 ;	status -> R17
                 ;	data -> R16
                 ; 0000 0032       {
                 ; 0000 0033       while (((status=UCSR1A) & RX_COMPLETE)==0);
                 ; 0000 0034       data=UDR1;
                 ; 0000 0035       if ((status & (FRAMING_ERROR | PARITY_ERROR | DATA_OVERRUN))==0)
                 ; 0000 0036          return data;
                 ; 0000 0037       }
                 ; 0000 0038 }
                 ;#pragma used-
                 ;
                 ;// Write a character to the USART1 Transmitter
                 ;#pragma used+
                 ;void putchar1(char c)
                 ; 0000 003E {
                 ; 0000 003F while ((UCSR1A & DATA_REGISTER_EMPTY)==0);
                 ;	c -> Y+0
                 ; 0000 0040 UDR1=c;
                 ; 0000 0041 }
                 ;#pragma used-
                 ;
                 ;
                 ;
                 ;#include <mega128.h>
                 ;#include <delay.h>
                 ;#include <string.h>
                 ;#include <stdlib.h>
                 ;#include <math.h>
                 ;#include <stdio.h>
                 ;
                 ;// I2C Bus functions
                 ;#asm
                    .equ __i2c_port=0x12 ;PORTD
                    .equ __sda_bit=1
                    .equ __scl_bit=0
                 ; 0000 0052 #endasm
                 ;#include <i2c.h>
                 ;
                 ;
                 ;typedef union{
                 ;   struct{
                 ;      unsigned char b0:1;
                 ;      unsigned char b1:1;
                 ;      unsigned char b2:1;
                 ;      unsigned char b3:1;
                 ;      unsigned char b4:1;
                 ;      unsigned char b5:1;
                 ;      unsigned char b6:1;
                 ;      unsigned char b7:1;
                 ;   }bits;
                 ;   unsigned char byte;
                 ;}BB;
                 ;
                 ;
                 ;typedef union{
                 ;   struct{
                 ;      unsigned char b0:1;
                 ;      unsigned char b1:1;
                 ;      unsigned char b2:1;
                 ;      unsigned char b3:1;
                 ;      unsigned char b4:1;
                 ;      unsigned char b5:1;
                 ;   }bits;
                 ;   unsigned char byte;
                 ;}CC;
                 ;
                 ;typedef union{
                 ;   struct{
                 ;      unsigned char b0:1;
                 ;      unsigned char b1:1;
                 ;      unsigned char b2:1;
                 ;      unsigned char b3:1;
                 ;      unsigned char b4:1;
                 ;      unsigned char b5:1;
                 ;      unsigned char b6:1;
                 ;      unsigned char b7:1;
                 ;   }bits;
                 ;   unsigned char byte;
                 ;}DD;
                 ;
                 ;
                 ;
                 ;
                 ;
                 ;BB PORT_F;
                 ;BB PORTHH,PORT_CZYTNIK;
                 ;BB PORTJJ,PORTKK,PORTLL,PORTMM;
                 ;CC PORT_STER3,PORT_STER4;
                 ;DD PORT_STER1,PORT_STER2;
                 ;
                 ;int xxx;
                 ;int nr_zacisku,odczytalem_zacisk,il_prob_odczytu;
                 ;int macierz_zaciskow[3];
                 ;long int sek1,sek2,sek3,sek4,sek5,sek6,sek7,sek8,sek9,sek10,sek11,sek12;
                 ;//int rzad;
                 ;int start;
                 ;int cykl;
                 ;int aaa,bbb,ccc,ddd;
                 ;int pozycjonowanie_LEFS32_300_1;
                 ;int pozycjonowanie_LEFS32_300_2;
                 ;int il_zaciskow_rzad_1,il_zaciskow_rzad_2;
                 ;int cykl_sterownik_1,cykl_sterownik_3,cykl_sterownik_2,cykl_sterownik_4;
                 ;int adr1,adr2,adr3,adr4;
                 ;int cykl_sterownik_3_wykonalem;
                 ;//int szczotka_druciana_ilosc_cykli;
                 ;int szczotka_druc_cykl;
                 ;int cykl_glowny;
                 ;int start_kontynuacja;
                 ;int ruch_zlozony;
                 ;int krazek_scierny_cykl_po_okregu;
                 ;//int krazek_scierny_cykl_po_okregu_ilosc;
                 ;int krazek_scierny_cykl;
                 ;//int krazek_scierny_ilosc_cykli;
                 ;int cykl_ilosc_zaciskow;
                 ;int wykonalem_komplet_okregow;
                 ;int abs_ster3,abs_ster4;
                 ;int koniec_rzedu_10;
                 ;int rzad_obrabiany;
                 ;int jestem_w_trakcie_czyszczenia_calosci;
                 ;int wykonalem_rzedow;
                 ;bit guzik1_przelaczania_zaciskow,guzik2_przelaczania_zaciskow;
                 ;bit zmienna_przelaczanie_zaciskow;
                 ;int czekaj_az_puszcze, czek1, czek2;
                 ;int czas_przedmuchu;
                 ;int a[10];
                 ;int wymieniono_szczotke_druciana,wymieniono_krazek_scierny;
                 ;int predkosc_pion_szczotka, predkosc_pion_krazek;
                 ;int wejscie_krazka_sciernego_w_pow_boczna_cylindra;
                 ;int predkosc_ruchow_po_okregu_krazek_scierny;
                 ;int test_geometryczny_rzad_1, test_geometryczny_rzad_2;
                 ;int czas_pracy_krazka_sciernego,czas_pracy_szczotki_drucianej;
                 ;int powrot_przedwczesny_druciak;
                 ;
                 ;char sprawdz_pin0(BB PORT, int numer_pcf)
                 ; 0000 00B5 {
                 _sprawdz_pin0:
                 ; 0000 00B6 i2c_start();
                 ;	PORT -> Y+2
                 ;	numer_pcf -> Y+0
00040d 940e 2bb3 	CALL SUBOPT_0x0
                 ; 0000 00B7 i2c_write(numer_pcf);
                 ; 0000 00B8 PORT.byte = i2c_read(0);
                 ; 0000 00B9 i2c_stop();
                 ; 0000 00BA 
                 ; 0000 00BB 
                 ; 0000 00BC return PORT.bits.b0;
00040f c023      	RJMP _0x20A0003
                 ; 0000 00BD }
                 ;
                 ;char sprawdz_pin1(BB PORT, int numer_pcf)
                 ; 0000 00C0 {
                 _sprawdz_pin1:
                 ; 0000 00C1 i2c_start();
                 ;	PORT -> Y+2
                 ;	numer_pcf -> Y+0
000410 940e 2bb3 	CALL SUBOPT_0x0
                 ; 0000 00C2 i2c_write(numer_pcf);
                 ; 0000 00C3 PORT.byte = i2c_read(0);
                 ; 0000 00C4 i2c_stop();
                 ; 0000 00C5 
                 ; 0000 00C6 
                 ; 0000 00C7 return PORT.bits.b1;
000412 95e6      	LSR  R30
000413 c01f      	RJMP _0x20A0003
                 ; 0000 00C8 }
                 ;
                 ;
                 ;char sprawdz_pin2(BB PORT, int numer_pcf)
                 ; 0000 00CC {
                 _sprawdz_pin2:
                 ; 0000 00CD i2c_start();
                 ;	PORT -> Y+2
                 ;	numer_pcf -> Y+0
000414 940e 2bb3 	CALL SUBOPT_0x0
                 ; 0000 00CE i2c_write(numer_pcf);
                 ; 0000 00CF PORT.byte = i2c_read(0);
                 ; 0000 00D0 i2c_stop();
                 ; 0000 00D1 
                 ; 0000 00D2 
                 ; 0000 00D3 return PORT.bits.b2;
000416 95e6      	LSR  R30
000417 95e6      	LSR  R30
000418 c01a      	RJMP _0x20A0003
                 ; 0000 00D4 }
                 ;
                 ;char sprawdz_pin3(BB PORT, int numer_pcf)
                 ; 0000 00D7 {
                 _sprawdz_pin3:
                 ; 0000 00D8 i2c_start();
                 ;	PORT -> Y+2
                 ;	numer_pcf -> Y+0
000419 940e 2bb3 	CALL SUBOPT_0x0
                 ; 0000 00D9 i2c_write(numer_pcf);
                 ; 0000 00DA PORT.byte = i2c_read(0);
                 ; 0000 00DB i2c_stop();
                 ; 0000 00DC 
                 ; 0000 00DD 
                 ; 0000 00DE return PORT.bits.b3;
00041b 95e6      	LSR  R30
00041c 95e6      	LSR  R30
00041d 95e6      	LSR  R30
00041e c014      	RJMP _0x20A0003
                 ; 0000 00DF }
                 ;
                 ;char sprawdz_pin4(BB PORT, int numer_pcf)
                 ; 0000 00E2 {
                 _sprawdz_pin4:
                 ; 0000 00E3 i2c_start();
                 ;	PORT -> Y+2
                 ;	numer_pcf -> Y+0
00041f 940e 2bb3 	CALL SUBOPT_0x0
                 ; 0000 00E4 i2c_write(numer_pcf);
                 ; 0000 00E5 PORT.byte = i2c_read(0);
                 ; 0000 00E6 i2c_stop();
                 ; 0000 00E7 
                 ; 0000 00E8 
                 ; 0000 00E9 return PORT.bits.b4;
000421 95e2      	SWAP R30
000422 c010      	RJMP _0x20A0003
                 ; 0000 00EA }
                 ;
                 ;char sprawdz_pin5(BB PORT, int numer_pcf)
                 ; 0000 00ED {
                 _sprawdz_pin5:
                 ; 0000 00EE i2c_start();
                 ;	PORT -> Y+2
                 ;	numer_pcf -> Y+0
000423 940e 2bb3 	CALL SUBOPT_0x0
                 ; 0000 00EF i2c_write(numer_pcf);
                 ; 0000 00F0 PORT.byte = i2c_read(0);
                 ; 0000 00F1 i2c_stop();
                 ; 0000 00F2 
                 ; 0000 00F3 
                 ; 0000 00F4 return PORT.bits.b5;
000425 95e2      	SWAP R30
000426 70ef      	ANDI R30,0xF
000427 95e6      	LSR  R30
000428 c00a      	RJMP _0x20A0003
                 ; 0000 00F5 }
                 ;
                 ;char sprawdz_pin6(BB PORT, int numer_pcf)
                 ; 0000 00F8 {
                 _sprawdz_pin6:
                 ; 0000 00F9 i2c_start();
                 ;	PORT -> Y+2
                 ;	numer_pcf -> Y+0
000429 940e 2bb3 	CALL SUBOPT_0x0
                 ; 0000 00FA i2c_write(numer_pcf);
                 ; 0000 00FB PORT.byte = i2c_read(0);
                 ; 0000 00FC i2c_stop();
                 ; 0000 00FD 
                 ; 0000 00FE 
                 ; 0000 00FF return PORT.bits.b6;
00042b 940e 2bc2 	CALL SUBOPT_0x1
00042d c005      	RJMP _0x20A0003
                 ; 0000 0100 }
                 ;
                 ;char sprawdz_pin7(BB PORT, int numer_pcf)
                 ; 0000 0103 {
                 _sprawdz_pin7:
                 ; 0000 0104 i2c_start();
                 ;	PORT -> Y+2
                 ;	numer_pcf -> Y+0
00042e 940e 2bb3 	CALL SUBOPT_0x0
                 ; 0000 0105 i2c_write(numer_pcf);
                 ; 0000 0106 PORT.byte = i2c_read(0);
                 ; 0000 0107 i2c_stop();
                 ; 0000 0108 
                 ; 0000 0109 
                 ; 0000 010A return PORT.bits.b7;
000430 1fee      	ROL  R30
000431 e0e0      	LDI  R30,0
000432 1fee      	ROL  R30
                 _0x20A0003:
000433 70e1      	ANDI R30,LOW(0x1)
000434 9623      	ADIW R28,3
000435 9508      	RET
                 ; 0000 010B }
                 ;
                 ;int odczytaj_parametr(int adres1, int adres2)
                 ; 0000 010E {
                 _odczytaj_parametr:
                 ; 0000 010F int z;
                 ; 0000 0110 z = 0;
000436 931a      	ST   -Y,R17
000437 930a      	ST   -Y,R16
                 ;	adres1 -> Y+4
                 ;	adres2 -> Y+2
                 ;	z -> R16,R17
                +
000438 e000     +LDI R16 , LOW ( 0 )
000439 e010     +LDI R17 , HIGH ( 0 )
                 	__GETWRN 16,17,0
                 ; 0000 0111 putchar(90);
00043a 940e 2bc7 	CALL SUBOPT_0x2
                 ; 0000 0112 putchar(165);
                 ; 0000 0113 putchar(4);
00043c e0e4      	LDI  R30,LOW(4)
00043d 93ea      	ST   -Y,R30
00043e 940e 2a4c 	CALL _putchar
                 ; 0000 0114 putchar(131);
000440 e8e3      	LDI  R30,LOW(131)
000441 940e 2bcf 	CALL SUBOPT_0x3
                 ; 0000 0115 putchar(adres1);
                 ; 0000 0116 putchar(adres2);
                 ; 0000 0117 putchar(1);
000443 e0e1      	LDI  R30,LOW(1)
000444 93ea      	ST   -Y,R30
000445 940e 2a4c 	CALL _putchar
                 ; 0000 0118 getchar();
000447 940e 2bda 	CALL SUBOPT_0x4
                 ; 0000 0119 getchar();
                 ; 0000 011A getchar();
                 ; 0000 011B getchar();
000449 940e 2bda 	CALL SUBOPT_0x4
                 ; 0000 011C getchar();
                 ; 0000 011D getchar();
                 ; 0000 011E getchar();
00044b 940e 2bda 	CALL SUBOPT_0x4
                 ; 0000 011F getchar();
                 ; 0000 0120 z = getchar();
00044d 2f0e      	MOV  R16,R30
00044e 2711      	CLR  R17
                 ; 0000 0121 
                 ; 0000 0122 
                 ; 0000 0123 
                 ; 0000 0124 
                 ; 0000 0125 
                 ; 0000 0126 
                 ; 0000 0127 
                 ; 0000 0128 
                 ; 0000 0129 
                 ; 0000 012A 
                 ; 0000 012B 
                 ; 0000 012C 
                 ; 0000 012D return z;
00044f 01f8      	MOVW R30,R16
000450 8119      	LDD  R17,Y+1
000451 8108      	LDD  R16,Y+0
000452 c088      	RJMP _0x20A0002
                 ; 0000 012E }
                 ;
                 ;
                 ;
                 ;int czekaj_na_guzik_start(int adres)
                 ; 0000 0133 {
                 ; 0000 0134 //48 to adres zmiennej 30
                 ; 0000 0135 //16 to adres zmiennj 10
                 ; 0000 0136 
                 ; 0000 0137 int z;
                 ; 0000 0138 z = 0;
                 ;	adres -> Y+2
                 ;	z -> R16,R17
                 ; 0000 0139 putchar(90);
                 ; 0000 013A putchar(165);
                 ; 0000 013B putchar(4);
                 ; 0000 013C putchar(131);
                 ; 0000 013D putchar(0);
                 ; 0000 013E putchar(adres);  //adres zmiennej - 30
                 ; 0000 013F putchar(1);
                 ; 0000 0140 getchar();
                 ; 0000 0141 getchar();
                 ; 0000 0142 getchar();
                 ; 0000 0143 getchar();
                 ; 0000 0144 getchar();
                 ; 0000 0145 getchar();
                 ; 0000 0146 getchar();
                 ; 0000 0147 getchar();
                 ; 0000 0148 z = getchar();
                 ; 0000 0149 //itoa(z,dupa1);
                 ; 0000 014A //lcd_puts(dupa1);
                 ; 0000 014B 
                 ; 0000 014C return z;
                 ; 0000 014D }
                 ;
                 ;
                 ;
                 ;
                 ;// Timer 0 overflow interrupt service routine
                 ;interrupt [TIM0_OVF] void timer0_ovf_isr(void)
                 ; 0000 0154 {
                 _timer0_ovf_isr:
000453 936a      	ST   -Y,R22
000454 937a      	ST   -Y,R23
000455 938a      	ST   -Y,R24
000456 939a      	ST   -Y,R25
000457 93aa      	ST   -Y,R26
000458 93ba      	ST   -Y,R27
000459 93ea      	ST   -Y,R30
00045a 93fa      	ST   -Y,R31
00045b b7ef      	IN   R30,SREG
00045c 93ea      	ST   -Y,R30
                 ; 0000 0155 // Place your code here
                 ; 0000 0156 //16,384 ms
                 ; 0000 0157 sek1++;     //Ster 1
00045d e1a1      	LDI  R26,LOW(_sek1)
00045e e0b5      	LDI  R27,HIGH(_sek1)
00045f 940e 2be0 	CALL SUBOPT_0x5
                 ; 0000 0158 sek2++;     //ster 3
000461 e1a5      	LDI  R26,LOW(_sek2)
000462 e0b5      	LDI  R27,HIGH(_sek2)
000463 940e 2be0 	CALL SUBOPT_0x5
                 ; 0000 0159 
                 ; 0000 015A 
                 ; 0000 015B sek3++;     //ster 2
000465 e1a9      	LDI  R26,LOW(_sek3)
000466 e0b5      	LDI  R27,HIGH(_sek3)
000467 940e 2be0 	CALL SUBOPT_0x5
                 ; 0000 015C sek4++;     //ster 4
000469 e1ad      	LDI  R26,LOW(_sek4)
00046a e0b5      	LDI  R27,HIGH(_sek4)
00046b 940e 2be0 	CALL SUBOPT_0x5
                 ; 0000 015D 
                 ; 0000 015E 
                 ; 0000 015F //sek10++;
                 ; 0000 0160 
                 ; 0000 0161 sek11++;  //do wyboru zacisku
00046d e2a1      	LDI  R26,LOW(_sek11)
00046e e0b5      	LDI  R27,HIGH(_sek11)
00046f 940e 2be0 	CALL SUBOPT_0x5
                 ; 0000 0162 sek12++;  //do czasu przedmuchu
000471 e2a5      	LDI  R26,LOW(_sek12)
000472 e0b5      	LDI  R27,HIGH(_sek12)
000473 940e 2be0 	CALL SUBOPT_0x5
                 ; 0000 0163 
                 ; 0000 0164 
                 ; 0000 0165 
                 ; 0000 0166 if(PORTE.3 == 1)
000475 9b1b      	SBIS 0x3,3
000476 c026      	RJMP _0xD
                 ; 0000 0167       {
                 ; 0000 0168       czas_pracy_szczotki_drucianej++;
000477 e8ab      	LDI  R26,LOW(_czas_pracy_szczotki_drucianej)
000478 e0b5      	LDI  R27,HIGH(_czas_pracy_szczotki_drucianej)
000479 940e 2be9 	CALL SUBOPT_0x6
                 ; 0000 0169       czas_pracy_krazka_sciernego++;
00047b e8a9      	LDI  R26,LOW(_czas_pracy_krazka_sciernego)
00047c e0b5      	LDI  R27,HIGH(_czas_pracy_krazka_sciernego)
00047d 940e 2be9 	CALL SUBOPT_0x6
                 ; 0000 016A       if(czas_pracy_szczotki_drucianej == 61 * 60 * 60)
00047f 91a0 058b 	LDS  R26,_czas_pracy_szczotki_drucianej
000481 91b0 058c 	LDS  R27,_czas_pracy_szczotki_drucianej+1
000483 940e 2bf0 	CALL SUBOPT_0x7
000485 f441      	BRNE _0xE
                 ; 0000 016B             {
                 ; 0000 016C             czas_pracy_szczotki_drucianej = 0;
000486 940e 2bfa 	CALL SUBOPT_0x8
                 ; 0000 016D             czas_pracy_szczotki_drucianej_h++;
000488 940e 2c00 	CALL SUBOPT_0x9
00048a 9631      	ADIW R30,1
00048b 940e 33a9 	CALL __EEPROMWRW
00048d 9731      	SBIW R30,1
                 ; 0000 016E             }
                 ; 0000 016F       if(czas_pracy_krazka_sciernego == 61 * 60 * 60)
                 _0xE:
00048e 91a0 0589 	LDS  R26,_czas_pracy_krazka_sciernego
000490 91b0 058a 	LDS  R27,_czas_pracy_krazka_sciernego+1
000492 940e 2bf0 	CALL SUBOPT_0x7
000494 f441      	BRNE _0xF
                 ; 0000 0170             {
                 ; 0000 0171             czas_pracy_krazka_sciernego = 0;
000495 940e 2c05 	CALL SUBOPT_0xA
                 ; 0000 0172             czas_pracy_krazka_sciernego_h++;
000497 940e 2c0b 	CALL SUBOPT_0xB
000499 9631      	ADIW R30,1
00049a 940e 33a9 	CALL __EEPROMWRW
00049c 9731      	SBIW R30,1
                 ; 0000 0173             }
                 ; 0000 0174       }
                 _0xF:
                 ; 0000 0175 
                 ; 0000 0176 
                 ; 0000 0177       //61 razy - 1s
                 ; 0000 0178       //61 * 60 - 1 minuta
                 ; 0000 0179       //61 * 60 * 60 - 1h
                 ; 0000 017A 
                 ; 0000 017B 
                 ; 0000 017C }
                 _0xD:
00049d 91e9      	LD   R30,Y+
00049e bfef      	OUT  SREG,R30
00049f 91f9      	LD   R31,Y+
0004a0 91e9      	LD   R30,Y+
0004a1 91b9      	LD   R27,Y+
0004a2 91a9      	LD   R26,Y+
0004a3 9199      	LD   R25,Y+
0004a4 9189      	LD   R24,Y+
0004a5 9179      	LD   R23,Y+
0004a6 9169      	LD   R22,Y+
0004a7 9518      	RETI
                 ;
                 ;
                 ;
                 ;
                 ;
                 ;// Declare your global variables here
                 ;
                 ;void komunikat_na_panel(char flash *fmtstr,int adres2,int adres22)
                 ; 0000 0185 {
                 _komunikat_na_panel:
                 ; 0000 0186 int h;
                 ; 0000 0187 
                 ; 0000 0188 h = 0;
0004a8 931a      	ST   -Y,R17
0004a9 930a      	ST   -Y,R16
                 ;	*fmtstr -> Y+6
                 ;	adres2 -> Y+4
                 ;	adres22 -> Y+2
                 ;	h -> R16,R17
                +
0004aa e000     +LDI R16 , LOW ( 0 )
0004ab e010     +LDI R17 , HIGH ( 0 )
                 	__GETWRN 16,17,0
                 ; 0000 0189 h = strlenf(fmtstr);
0004ac 940e 2c10 	CALL SUBOPT_0xC
0004ae 940e 2a3d 	CALL _strlenf
0004b0 018f      	MOVW R16,R30
                 ; 0000 018A h = h + 3;
                +
0004b1 5f0d     +SUBI R16 , LOW ( - 3 )
0004b2 4f1f     +SBCI R17 , HIGH ( - 3 )
                 	__ADDWRN 16,17,3
                 ; 0000 018B 
                 ; 0000 018C putchar(90);
0004b3 940e 2bc7 	CALL SUBOPT_0x2
                 ; 0000 018D putchar(165);
                 ; 0000 018E putchar(h);       //ilosc liter 43 + 3
0004b5 930a      	ST   -Y,R16
0004b6 940e 2a4c 	CALL _putchar
                 ; 0000 018F putchar(130);  //82
0004b8 e8e2      	LDI  R30,LOW(130)
0004b9 940e 2bcf 	CALL SUBOPT_0x3
                 ; 0000 0190 putchar(adres2);    //
                 ; 0000 0191 putchar(adres22);  //
                 ; 0000 0192 printf(fmtstr);
0004bb 940e 2c10 	CALL SUBOPT_0xC
0004bd e080      	LDI  R24,0
0004be 940e 2b8e 	CALL _printf
0004c0 9622      	ADIW R28,2
                 ; 0000 0193 }
0004c1 8119      	LDD  R17,Y+1
0004c2 8108      	LDD  R16,Y+0
0004c3 9628      	ADIW R28,8
0004c4 9508      	RET
                 ;
                 ;
                 ;
                 ;void wartosc_parametru_panelu(int wartosc, int adres1, int adres2)
                 ; 0000 0198 {
                 _wartosc_parametru_panelu:
                 ; 0000 0199 putchar(90);  //5A
                 ;	wartosc -> Y+4
                 ;	adres1 -> Y+2
                 ;	adres2 -> Y+0
0004c5 940e 2bc7 	CALL SUBOPT_0x2
                 ; 0000 019A putchar(165); //A5
                 ; 0000 019B putchar(5);//05
0004c7 e0e5      	LDI  R30,LOW(5)
0004c8 93ea      	ST   -Y,R30
0004c9 940e 2c15 	CALL SUBOPT_0xD
                 ; 0000 019C putchar(130);  //82    /
                 ; 0000 019D putchar(adres1);    //00
0004cb 81ea      	LDD  R30,Y+2
0004cc 93ea      	ST   -Y,R30
0004cd 940e 2a4c 	CALL _putchar
                 ; 0000 019E putchar(adres2);   //40
0004cf 81e8      	LD   R30,Y
0004d0 93ea      	ST   -Y,R30
0004d1 940e 2a4c 	CALL _putchar
                 ; 0000 019F putchar(0);    //00
0004d3 e0e0      	LDI  R30,LOW(0)
0004d4 93ea      	ST   -Y,R30
0004d5 940e 2a4c 	CALL _putchar
                 ; 0000 01A0 putchar(wartosc);   //80
0004d7 81ec      	LDD  R30,Y+4
0004d8 93ea      	ST   -Y,R30
0004d9 940e 2a4c 	CALL _putchar
                 ; 0000 01A1 }
                 _0x20A0002:
0004db 9626      	ADIW R28,6
0004dc 9508      	RET
                 ;
                 ;
                 ;void zaktualizuj_parametry_panelu()
                 ; 0000 01A5 {
                 _zaktualizuj_parametry_panelu:
                 ; 0000 01A6 wartosc_parametru_panelu(czas_pracy_szczotki_drucianej_h,0,144);
0004dd 940e 2c00 	CALL SUBOPT_0x9
0004df 940e 2c1b 	CALL SUBOPT_0xE
0004e1 940e 2c22 	CALL SUBOPT_0xF
0004e3 dfe1      	RCALL _wartosc_parametru_panelu
                 ; 0000 01A7 
                 ; 0000 01A8 wartosc_parametru_panelu(czas_pracy_krazka_sciernego_h,16,48);
0004e4 940e 2c0b 	CALL SUBOPT_0xB
0004e6 940e 2c27 	CALL SUBOPT_0x10
0004e8 940e 2c2e 	CALL SUBOPT_0x11
0004ea dfda      	RCALL _wartosc_parametru_panelu
                 ; 0000 01A9 
                 ; 0000 01AA }
0004eb 9508      	RET
                 ;
                 ;void komunikat_z_czytnika_kodow(char flash *fmtstr,int rzad, int na_plus_minus)
                 ; 0000 01AD {
                 _komunikat_z_czytnika_kodow:
                 ; 0000 01AE //na_plus_minus = 1;  to jest na plus
                 ; 0000 01AF //na_plus_minus = 0;  to jest na minus
                 ; 0000 01B0 
                 ; 0000 01B1 int h, adres1,adres11,adres2,adres22;
                 ; 0000 01B2 
                 ; 0000 01B3 h = 0;
0004ec 9724      	SBIW R28,4
0004ed 940e 33cb 	CALL __SAVELOCR6
                 ;	*fmtstr -> Y+14
                 ;	rzad -> Y+12
                 ;	na_plus_minus -> Y+10
                 ;	h -> R16,R17
                 ;	adres1 -> R18,R19
                 ;	adres11 -> R20,R21
                 ;	adres2 -> Y+8
                 ;	adres22 -> Y+6
                +
0004ef e000     +LDI R16 , LOW ( 0 )
0004f0 e010     +LDI R17 , HIGH ( 0 )
                 	__GETWRN 16,17,0
                 ; 0000 01B4 h = strlenf(fmtstr);
0004f1 85ee      	LDD  R30,Y+14
0004f2 85ff      	LDD  R31,Y+14+1
0004f3 93fa      	ST   -Y,R31
0004f4 93ea      	ST   -Y,R30
0004f5 940e 2a3d 	CALL _strlenf
0004f7 018f      	MOVW R16,R30
                 ; 0000 01B5 h = h + 3;
                +
0004f8 5f0d     +SUBI R16 , LOW ( - 3 )
0004f9 4f1f     +SBCI R17 , HIGH ( - 3 )
                 	__ADDWRN 16,17,3
                 ; 0000 01B6 
                 ; 0000 01B7 if(rzad == 1)
0004fa 85ac      	LDD  R26,Y+12
0004fb 85bd      	LDD  R27,Y+12+1
0004fc 9711      	SBIW R26,1
0004fd f459      	BRNE _0x10
                 ; 0000 01B8    {
                 ; 0000 01B9    adres1 = 0;
                +
0004fe e020     +LDI R18 , LOW ( 0 )
0004ff e030     +LDI R19 , HIGH ( 0 )
                 	__GETWRN 18,19,0
                 ; 0000 01BA    adres11 = 80;
                +
000500 e540     +LDI R20 , LOW ( 80 )
000501 e050     +LDI R21 , HIGH ( 80 )
                 	__GETWRN 20,21,80
                 ; 0000 01BB    adres2 = 80;
000502 e5e0      	LDI  R30,LOW(80)
000503 e0f0      	LDI  R31,HIGH(80)
000504 87e8      	STD  Y+8,R30
000505 87f9      	STD  Y+8+1,R31
                 ; 0000 01BC    adres22 = 0;
000506 e0e0      	LDI  R30,LOW(0)
000507 83ee      	STD  Y+6,R30
000508 83ef      	STD  Y+6+1,R30
                 ; 0000 01BD    }
                 ; 0000 01BE if(rzad == 2)
                 _0x10:
000509 85ac      	LDD  R26,Y+12
00050a 85bd      	LDD  R27,Y+12+1
00050b 9712      	SBIW R26,2
00050c f459      	BRNE _0x11
                 ; 0000 01BF    {
                 ; 0000 01C0    adres1 = 0;
                +
00050d e020     +LDI R18 , LOW ( 0 )
00050e e030     +LDI R19 , HIGH ( 0 )
                 	__GETWRN 18,19,0
                 ; 0000 01C1    adres11 = 32;
                +
00050f e240     +LDI R20 , LOW ( 32 )
000510 e050     +LDI R21 , HIGH ( 32 )
                 	__GETWRN 20,21,32
                 ; 0000 01C2    adres2 = 64;
000511 e4e0      	LDI  R30,LOW(64)
000512 e0f0      	LDI  R31,HIGH(64)
000513 87e8      	STD  Y+8,R30
000514 87f9      	STD  Y+8+1,R31
                 ; 0000 01C3    adres22 = 0;
000515 e0e0      	LDI  R30,LOW(0)
000516 83ee      	STD  Y+6,R30
000517 83ef      	STD  Y+6+1,R30
                 ; 0000 01C4    }
                 ; 0000 01C5 
                 ; 0000 01C6 putchar(90);
                 _0x11:
000518 940e 2bc7 	CALL SUBOPT_0x2
                 ; 0000 01C7 putchar(165);
                 ; 0000 01C8 putchar(h);       //ilosc liter 43 + 3
00051a 930a      	ST   -Y,R16
00051b 940e 2c15 	CALL SUBOPT_0xD
                 ; 0000 01C9 putchar(130);  //82
                 ; 0000 01CA putchar(adres1);    //
00051d 932a      	ST   -Y,R18
00051e 940e 2a4c 	CALL _putchar
                 ; 0000 01CB putchar(adres11);  //
000520 934a      	ST   -Y,R20
000521 940e 2a4c 	CALL _putchar
                 ; 0000 01CC printf(fmtstr);
000523 85ee      	LDD  R30,Y+14
000524 85ff      	LDD  R31,Y+14+1
000525 93fa      	ST   -Y,R31
000526 93ea      	ST   -Y,R30
000527 e080      	LDI  R24,0
000528 940e 2b8e 	CALL _printf
00052a 9622      	ADIW R28,2
                 ; 0000 01CD 
                 ; 0000 01CE 
                 ; 0000 01CF if(rzad == 1 & macierz_zaciskow[rzad]==0)
00052b 940e 2c33 	CALL SUBOPT_0x12
00052d 85ec      	LDD  R30,Y+12
00052e 85fd      	LDD  R31,Y+12+1
00052f 940e 2c3b 	CALL SUBOPT_0x13
000531 940e 337f 	CALL __GETW1P
000533 e0a0      	LDI  R26,LOW(0)
000534 e0b0      	LDI  R27,HIGH(0)
000535 940e 3361 	CALL __EQW12
000537 21e0      	AND  R30,R0
000538 f051      	BREQ _0x12
                 ; 0000 01D0     {
                 ; 0000 01D1     komunikat_na_panel("                                                ",adres2,adres22);
000539 940e 2c42 	CALL SUBOPT_0x14
                 ; 0000 01D2     komunikat_na_panel("Zacisk nie zmierzony u Wykonawcy",adres2,adres22);
                +
00053b ede1     +LDI R30 , LOW ( 2 * _0x0 + ( 49 ) )
00053c e0f0     +LDI R31 , HIGH ( 2 * _0x0 + ( 49 ) )
                 	__POINTW1FN _0x0,49
00053d 940e 2c50 	CALL SUBOPT_0x15
00053f 940e 2c50 	CALL SUBOPT_0x15
000541 940e 2c55 	CALL SUBOPT_0x16
                 ; 0000 01D3     }
                 ; 0000 01D4 
                 ; 0000 01D5 if(rzad == 1 & na_plus_minus == 1)
                 _0x12:
000543 940e 2c33 	CALL SUBOPT_0x12
000545 940e 2c59 	CALL SUBOPT_0x17
000547 f051      	BREQ _0x13
                 ; 0000 01D6     {
                 ; 0000 01D7     komunikat_na_panel("                                                ",adres2,adres22);
000548 940e 2c42 	CALL SUBOPT_0x14
                 ; 0000 01D8     komunikat_na_panel("Os zacisku blizej szafy",adres2,adres22);
                +
00054a efe2     +LDI R30 , LOW ( 2 * _0x0 + ( 82 ) )
00054b e0f0     +LDI R31 , HIGH ( 2 * _0x0 + ( 82 ) )
                 	__POINTW1FN _0x0,82
00054c 940e 2c50 	CALL SUBOPT_0x15
00054e 940e 2c50 	CALL SUBOPT_0x15
000550 940e 2c55 	CALL SUBOPT_0x16
                 ; 0000 01D9     }
                 ; 0000 01DA 
                 ; 0000 01DB if(rzad == 1 & na_plus_minus == 0)
                 _0x13:
000552 940e 2c33 	CALL SUBOPT_0x12
000554 940e 2c61 	CALL SUBOPT_0x18
000556 f051      	BREQ _0x14
                 ; 0000 01DC     {
                 ; 0000 01DD     komunikat_na_panel("                                                ",adres2,adres22);
000557 940e 2c42 	CALL SUBOPT_0x14
                 ; 0000 01DE     komunikat_na_panel("Os zacisku dalej od szafy",adres2,adres22);
                +
000559 e0ea     +LDI R30 , LOW ( 2 * _0x0 + ( 106 ) )
00055a e0f1     +LDI R31 , HIGH ( 2 * _0x0 + ( 106 ) )
                 	__POINTW1FN _0x0,106
00055b 940e 2c50 	CALL SUBOPT_0x15
00055d 940e 2c50 	CALL SUBOPT_0x15
00055f 940e 2c55 	CALL SUBOPT_0x16
                 ; 0000 01DF     }
                 ; 0000 01E0 
                 ; 0000 01E1 
                 ; 0000 01E2 if(rzad == 2 & na_plus_minus == 1)
                 _0x14:
000561 940e 2c69 	CALL SUBOPT_0x19
000563 940e 2c59 	CALL SUBOPT_0x17
000565 f051      	BREQ _0x15
                 ; 0000 01E3     {
                 ; 0000 01E4     komunikat_na_panel("                                                ",adres2,adres22);
000566 940e 2c42 	CALL SUBOPT_0x14
                 ; 0000 01E5     komunikat_na_panel("Os zacisku dalej od szafy",adres2,adres22);
                +
000568 e0ea     +LDI R30 , LOW ( 2 * _0x0 + ( 106 ) )
000569 e0f1     +LDI R31 , HIGH ( 2 * _0x0 + ( 106 ) )
                 	__POINTW1FN _0x0,106
00056a 940e 2c50 	CALL SUBOPT_0x15
00056c 940e 2c50 	CALL SUBOPT_0x15
00056e 940e 2c55 	CALL SUBOPT_0x16
                 ; 0000 01E6     }
                 ; 0000 01E7 
                 ; 0000 01E8 if(rzad == 2 & na_plus_minus == 0)
                 _0x15:
000570 940e 2c69 	CALL SUBOPT_0x19
000572 940e 2c61 	CALL SUBOPT_0x18
000574 f051      	BREQ _0x16
                 ; 0000 01E9     {
                 ; 0000 01EA     komunikat_na_panel("                                                ",adres2,adres22);
000575 940e 2c42 	CALL SUBOPT_0x14
                 ; 0000 01EB     komunikat_na_panel("Os zacisku blizej szafy",adres2,adres22);
                +
000577 efe2     +LDI R30 , LOW ( 2 * _0x0 + ( 82 ) )
000578 e0f0     +LDI R31 , HIGH ( 2 * _0x0 + ( 82 ) )
                 	__POINTW1FN _0x0,82
000579 940e 2c50 	CALL SUBOPT_0x15
00057b 940e 2c50 	CALL SUBOPT_0x15
00057d 940e 2c55 	CALL SUBOPT_0x16
                 ; 0000 01EC     }
                 ; 0000 01ED 
                 ; 0000 01EE 
                 ; 0000 01EF }
                 _0x16:
00057f 940e 33d2 	CALL __LOADLOCR6
000581 9660      	ADIW R28,16
000582 9508      	RET
                 ;
                 ;void zerowanie_pam_wew()
                 ; 0000 01F2 {
                 _zerowanie_pam_wew:
                 ; 0000 01F3 if(czas_pracy_szczotki_drucianej_h >= 255 | czas_pracy_krazka_sciernego_h >=255 | czas_pracy_krazka_sciernego_stala >= 255 | czas_pracy_szczotki_drucianej_stala >= 255 |
                 ; 0000 01F4    szczotka_druciana_ilosc_cykli >= 255 | krazek_scierny_ilosc_cykli >= 255 | krazek_scierny_cykl_po_okregu_ilosc >=255)
000583 940e 2c00 	CALL SUBOPT_0x9
000585 940e 2c71 	CALL SUBOPT_0x1A
000587 2e0e      	MOV  R0,R30
000588 940e 2c0b 	CALL SUBOPT_0xB
00058a 940e 2c71 	CALL SUBOPT_0x1A
00058c 2a0e      	OR   R0,R30
00058d 940e 2c77 	CALL SUBOPT_0x1B
00058f 940e 2c71 	CALL SUBOPT_0x1A
000591 2a0e      	OR   R0,R30
000592 940e 2c7c 	CALL SUBOPT_0x1C
000594 940e 2c71 	CALL SUBOPT_0x1A
000596 2a0e      	OR   R0,R30
000597 940e 2c81 	CALL SUBOPT_0x1D
000599 940e 2c71 	CALL SUBOPT_0x1A
00059b 2a0e      	OR   R0,R30
00059c 940e 2c86 	CALL SUBOPT_0x1E
00059e 940e 2c71 	CALL SUBOPT_0x1A
0005a0 2a0e      	OR   R0,R30
0005a1 940e 2c8b 	CALL SUBOPT_0x1F
0005a3 940e 2c71 	CALL SUBOPT_0x1A
0005a5 29e0      	OR   R30,R0
0005a6 f0f1      	BREQ _0x17
                 ; 0000 01F5      {
                 ; 0000 01F6      czas_pracy_szczotki_drucianej_h = 0;
0005a7 940e 2c90 	CALL SUBOPT_0x20
                 ; 0000 01F7      czas_pracy_szczotki_drucianej = 0;
0005a9 940e 2bfa 	CALL SUBOPT_0x8
                 ; 0000 01F8      czas_pracy_krazka_sciernego_h = 0;
0005ab 940e 2c97 	CALL SUBOPT_0x21
                 ; 0000 01F9      czas_pracy_krazka_sciernego = 0;
0005ad 940e 2c05 	CALL SUBOPT_0xA
                 ; 0000 01FA      czas_pracy_krazka_sciernego_stala = 5;
0005af e0aa      	LDI  R26,LOW(_czas_pracy_krazka_sciernego_stala)
0005b0 e0b0      	LDI  R27,HIGH(_czas_pracy_krazka_sciernego_stala)
0005b1 e0e5      	LDI  R30,LOW(5)
0005b2 e0f0      	LDI  R31,HIGH(5)
0005b3 940e 33a9 	CALL __EEPROMWRW
                 ; 0000 01FB      czas_pracy_szczotki_drucianej_stala = 5;
0005b5 e0ac      	LDI  R26,LOW(_czas_pracy_szczotki_drucianej_stala)
0005b6 e0b0      	LDI  R27,HIGH(_czas_pracy_szczotki_drucianej_stala)
0005b7 940e 33a9 	CALL __EEPROMWRW
                 ; 0000 01FC      szczotka_druciana_ilosc_cykli = 3;
0005b9 e0a0      	LDI  R26,LOW(_szczotka_druciana_ilosc_cykli)
0005ba e0b0      	LDI  R27,HIGH(_szczotka_druciana_ilosc_cykli)
0005bb 940e 2c9e 	CALL SUBOPT_0x22
                 ; 0000 01FD      krazek_scierny_ilosc_cykli = 3;
0005bd e0a2      	LDI  R26,LOW(_krazek_scierny_ilosc_cykli)
0005be e0b0      	LDI  R27,HIGH(_krazek_scierny_ilosc_cykli)
0005bf 940e 2c9e 	CALL SUBOPT_0x22
                 ; 0000 01FE      krazek_scierny_cykl_po_okregu_ilosc = 3;
0005c1 e0a4      	LDI  R26,LOW(_krazek_scierny_cykl_po_okregu_ilosc)
0005c2 e0b0      	LDI  R27,HIGH(_krazek_scierny_cykl_po_okregu_ilosc)
0005c3 940e 2c9e 	CALL SUBOPT_0x22
                 ; 0000 01FF      }
                 ; 0000 0200 
                 ; 0000 0201 /*
                 ; 0000 0202 if(czas_pracy_krazka_sciernego_h >= 255)
                 ; 0000 0203      {
                 ; 0000 0204      czas_pracy_krazka_sciernego_h = 0;
                 ; 0000 0205      czas_pracy_krazka_sciernego = 0;
                 ; 0000 0206      }
                 ; 0000 0207 if(czas_pracy_krazka_sciernego_stala >= 255)
                 ; 0000 0208      czas_pracy_krazka_sciernego_stala = 5;
                 ; 0000 0209 
                 ; 0000 020A if(czas_pracy_szczotki_drucianej_stala >= 255)
                 ; 0000 020B      czas_pracy_szczotki_drucianej_stala = 5;
                 ; 0000 020C 
                 ; 0000 020D if(szczotka_druciana_ilosc_cykli >= 255)
                 ; 0000 020E 
                 ; 0000 020F if(krazek_scierny_ilosc_cykli >= 255)
                 ; 0000 0210 
                 ; 0000 0211 if(krazek_scierny_cykl_po_okregu_ilosc >=255)
                 ; 0000 0212 */
                 ; 0000 0213 
                 ; 0000 0214 }
                 _0x17:
0005c5 9508      	RET
                 ;
                 ;
                 ;void odpytaj_parametry_panelu()
                 ; 0000 0218 {
                 _odpytaj_parametry_panelu:
                 ; 0000 0219 if(sprawdz_pin0(PORTMM,0x77) == 0 & sprawdz_pin1(PORTMM,0x77) == 0)
0005c6 940e 2ca3 	CALL SUBOPT_0x23
0005c8 de44      	RCALL _sprawdz_pin0
0005c9 e0a0      	LDI  R26,LOW(0)
0005ca 940e 335c 	CALL __EQB12
0005cc 93ef      	PUSH R30
0005cd 940e 2ca3 	CALL SUBOPT_0x23
0005cf de40      	RCALL _sprawdz_pin1
0005d0 e0a0      	LDI  R26,LOW(0)
0005d1 940e 335c 	CALL __EQB12
0005d3 91af      	POP  R26
0005d4 23ea      	AND  R30,R26
0005d5 f029      	BREQ _0x18
                 ; 0000 021A     start = odczytaj_parametr(0,64);
0005d6 940e 2cad 	CALL SUBOPT_0x24
0005d8 940e 2cb2 	CALL SUBOPT_0x25
0005da 016f      	MOVW R12,R30
                 ; 0000 021B il_zaciskow_rzad_1 = odczytaj_parametr(0,128);
                 _0x18:
0005db 940e 2cad 	CALL SUBOPT_0x24
0005dd 940e 2cb8 	CALL SUBOPT_0x26
0005df 940e 2cbe 	CALL SUBOPT_0x27
                 ; 0000 021C il_zaciskow_rzad_2 = odczytaj_parametr(0,48);
0005e1 940e 2c2e 	CALL SUBOPT_0x11
0005e3 940e 2cc3 	CALL SUBOPT_0x28
                 ; 0000 021D 
                 ; 0000 021E szczotka_druciana_ilosc_cykli = odczytaj_parametr(48,64);
0005e5 940e 2cb2 	CALL SUBOPT_0x25
0005e7 940e 2cca 	CALL SUBOPT_0x29
                 ; 0000 021F                                                 //2090
                 ; 0000 0220 krazek_scierny_ilosc_cykli = odczytaj_parametr(32,144);
0005e9 940e 2cd3 	CALL SUBOPT_0x2A
                 ; 0000 0221                                                     //3000
                 ; 0000 0222 krazek_scierny_cykl_po_okregu_ilosc = odczytaj_parametr(48,0);
0005eb 940e 2cdc 	CALL SUBOPT_0x2B
                 ; 0000 0223 
                 ; 0000 0224 
                 ; 0000 0225 czas_pracy_szczotki_drucianej_stala = odczytaj_parametr(16,112);
0005ed 940e 2ce3 	CALL SUBOPT_0x2C
0005ef 940e 2ce8 	CALL SUBOPT_0x2D
0005f1 de44      	RCALL _odczytaj_parametr
0005f2 e0ac      	LDI  R26,LOW(_czas_pracy_szczotki_drucianej_stala)
0005f3 e0b0      	LDI  R27,HIGH(_czas_pracy_szczotki_drucianej_stala)
0005f4 940e 33a9 	CALL __EEPROMWRW
                 ; 0000 0226 
                 ; 0000 0227 czas_pracy_krazka_sciernego_stala = odczytaj_parametr(32,16);
0005f6 e2e0      	LDI  R30,LOW(32)
0005f7 e0f0      	LDI  R31,HIGH(32)
0005f8 940e 2c27 	CALL SUBOPT_0x10
0005fa de3b      	RCALL _odczytaj_parametr
0005fb e0aa      	LDI  R26,LOW(_czas_pracy_krazka_sciernego_stala)
0005fc e0b0      	LDI  R27,HIGH(_czas_pracy_krazka_sciernego_stala)
0005fd 940e 33a9 	CALL __EEPROMWRW
                 ; 0000 0228 
                 ; 0000 0229 czas_pracy_szczotki_drucianej_h = odczytaj_parametr(0,144);
0005ff 940e 2cad 	CALL SUBOPT_0x24
000601 940e 2c22 	CALL SUBOPT_0xF
000603 de32      	RCALL _odczytaj_parametr
000604 e0a8      	LDI  R26,LOW(_czas_pracy_szczotki_drucianej_h)
000605 e0b0      	LDI  R27,HIGH(_czas_pracy_szczotki_drucianej_h)
000606 940e 33a9 	CALL __EEPROMWRW
                 ; 0000 022A 
                 ; 0000 022B czas_pracy_krazka_sciernego_h = odczytaj_parametr(16,48);
000608 940e 2ce3 	CALL SUBOPT_0x2C
00060a 940e 2c2e 	CALL SUBOPT_0x11
00060c de29      	RCALL _odczytaj_parametr
00060d e0a6      	LDI  R26,LOW(_czas_pracy_krazka_sciernego_h)
00060e e0b0      	LDI  R27,HIGH(_czas_pracy_krazka_sciernego_h)
00060f 940e 33a9 	CALL __EEPROMWRW
                 ; 0000 022C 
                 ; 0000 022D test_geometryczny_rzad_1 = odczytaj_parametr(48,80);
000611 940e 2c2e 	CALL SUBOPT_0x11
000613 940e 2ced 	CALL SUBOPT_0x2E
000615 de20      	RCALL _odczytaj_parametr
000616 93e0 0585 	STS  _test_geometryczny_rzad_1,R30
000618 93f0 0586 	STS  _test_geometryczny_rzad_1+1,R31
                 ; 0000 022E 
                 ; 0000 022F test_geometryczny_rzad_2 = odczytaj_parametr(48,96);
00061a 940e 2c2e 	CALL SUBOPT_0x11
00061c 940e 2cf2 	CALL SUBOPT_0x2F
00061e de17      	RCALL _odczytaj_parametr
00061f 93e0 0587 	STS  _test_geometryczny_rzad_2,R30
000621 93f0 0588 	STS  _test_geometryczny_rzad_2+1,R31
                 ; 0000 0230 
                 ; 0000 0231                                                 //2050
                 ; 0000 0232 zerowanie_pam_wew();
000623 df5f      	RCALL _zerowanie_pam_wew
                 ; 0000 0233 
                 ; 0000 0234 }
000624 9508      	RET
                 ;
                 ;void wyrrrjscia_i_wejscia_opis()
                 ; 0000 0237 {
                 ; 0000 0238 
                 ; 0000 0239 
                 ; 0000 023A //IN0
                 ; 0000 023B 
                 ; 0000 023C //komunikacja miedzy slave a master
                 ; 0000 023D //sprawdz_pin0(PORTHH,0x73)
                 ; 0000 023E //sprawdz_pin1(PORTHH,0x73)
                 ; 0000 023F //sprawdz_pin2(PORTHH,0x73)
                 ; 0000 0240 //sprawdz_pin3(PORTHH,0x73)
                 ; 0000 0241 //sprawdz_pin4(PORTHH,0x73)
                 ; 0000 0242 //sprawdz_pin5(PORTHH,0x73)
                 ; 0000 0243 //sprawdz_pin6(PORTHH,0x73)
                 ; 0000 0244 //sprawdz_pin7(PORTHH,0x73)
                 ; 0000 0245 
                 ; 0000 0246 //IN1
                 ; 0000 0247 //sprawdz_pin0(PORTJJ,0x79)  BUSY   STEROWNIK1
                 ; 0000 0248 //sprawdz_pin1(PORTJJ,0x79)  AREA   STEROWNIK1
                 ; 0000 0249 //sprawdz_pin2(PORTJJ,0x79)  SETON  STEROWNIK1
                 ; 0000 024A //sprawdz_pin3(PORTJJ,0x79)  INP    STEROWNIK1
                 ; 0000 024B //sprawdz_pin4(PORTJJ,0x79)  SVRE   STEROWNIK1
                 ; 0000 024C //sprawdz_pin5(PORTJJ,0x79)  ALARM  STEROWNIK1
                 ; 0000 024D //sprawdz_pin6(PORTJJ,0x79)  czujnik cisnienia
                 ; 0000 024E //sprawdz_pin7(PORTJJ,0x79)
                 ; 0000 024F 
                 ; 0000 0250 //IN2
                 ; 0000 0251 //sprawdz_pin0(PORTKK,0x75)  B7 BUSY    LECCP STEROWNIK3
                 ; 0000 0252 //sprawdz_pin1(PORTKK,0x75)  B8 AREA    LECP6 STEROWNIK3
                 ; 0000 0253 //sprawdz_pin2(PORTKK,0x75)  B9 SETON   LECP6 STEROWNIK3
                 ; 0000 0254 //sprawdz_pin3(PORTKK,0x75)  B10 INP    LECP6 STEROWNIK3
                 ; 0000 0255 //sprawdz_pin4(PORTKK,0x75)  B7 BUSY    LECCP STEROWNIK4
                 ; 0000 0256 //sprawdz_pin5(PORTKK,0x75)  B8 AREA    LECP6 STEROWNIK4
                 ; 0000 0257 //sprawdz_pin6(PORTKK,0x75)  B9 SETON   LECP6 STEROWNIK4
                 ; 0000 0258 //sprawdz_pin7(PORTKK,0x75)  B10 INP    LECP6 STEROWNIK4
                 ; 0000 0259 
                 ; 0000 025A //IN3
                 ; 0000 025B //sprawdz_pin0(PORTLL,0x71)  BUSY   STEROWNIK2
                 ; 0000 025C //sprawdz_pin1(PORTLL,0x71)  AREA   STEROWNIK2
                 ; 0000 025D //sprawdz_pin2(PORTLL,0x71)  SETON  STEROWNIK2
                 ; 0000 025E //sprawdz_pin3(PORTLL,0x71)  INP    STEROWNIK2
                 ; 0000 025F //sprawdz_pin4(PORTLL,0x71)  SVRE   STEROWNIK2
                 ; 0000 0260 //sprawdz_pin5(PORTLL,0x71)  ALARM  STEROWNIK2
                 ; 0000 0261 //sprawdz_pin6(PORTLL,0x71)  S6A przekadanie rzedow
                 ; 0000 0262 //sprawdz_pin7(PORTLL,0x71)  S6B przekladanie rzedow
                 ; 0000 0263 
                 ; 0000 0264 //IN4
                 ; 0000 0265 //sprawdz_pin0(PORTMM,0x77) J2  czujnik indukcyjny domkniecia pokrywy
                 ; 0000 0266 //sprawdz_pin1(PORTMM,0x77) J3  czujnik indukcyjny domkniecia pokrywy
                 ; 0000 0267 //sprawdz_pin2(PORTMM,0x77)
                 ; 0000 0268 //sprawdz_pin3(PORTMM,0x77)
                 ; 0000 0269 //sprawdz_pin4(PORTMM,0x77)
                 ; 0000 026A //sprawdz_pin5(PORTMM,0x77)
                 ; 0000 026B //sprawdz_pin6(PORTMM,0x77) ALARM STEROWNIK4
                 ; 0000 026C //sprawdz_pin7(PORTMM,0x77) ALARM STEROWNIK3
                 ; 0000 026D 
                 ; 0000 026E //sterownik 1 i sterownik 3 - krazek scierny
                 ; 0000 026F //sterownik 2 i sterownik 4 - druciak
                 ; 0000 0270 
                 ; 0000 0271 //OUT
                 ; 0000 0272 //PORTA.0   IN0  STEROWNIK1        OUT 1
                 ; 0000 0273 //PORTA.1   IN1  STEROWNIK1
                 ; 0000 0274 //PORTA.2   IN2  STEROWNIK1
                 ; 0000 0275 //PORTA.3   IN3  STEROWNIK1
                 ; 0000 0276 //PORTA.4   IN4  STEROWNIK1
                 ; 0000 0277 //PORTA.5   IN5  STEROWNIK1
                 ; 0000 0278 //PORTA.6   IN6  STEROWNIK1
                 ; 0000 0279 //PORTA.7   IN7  STEROWNIK1
                 ; 0000 027A 
                 ; 0000 027B //PORTB.0   IN0  STEROWNIK4        OUT 5
                 ; 0000 027C //PORTB.1   IN1  STEROWNIK4
                 ; 0000 027D //PORTB.2   IN2  STEROWNIK4
                 ; 0000 027E //PORTB.3   IN3  STEROWNIK4
                 ; 0000 027F //PORTB.4   4B CEWKA przedmuch osi
                 ; 0000 0280 //PORTB.5   DRIVE  STEROWNIK4
                 ; 0000 0281 //PORTB.6   swiatlo zielone
                 ; 0000 0282 //PORTB.7   IN5 STEROWNIK 3
                 ; 0000 0283 
                 ; 0000 0284 //PORTC.0   IN0  STEROWNIK2        OUT 3
                 ; 0000 0285 //PORTC.1   IN1  STEROWNIK2
                 ; 0000 0286 //PORTC.2   IN2  STEROWNIK2
                 ; 0000 0287 //PORTC.3   IN3  STEROWNIK2
                 ; 0000 0288 //PORTC.4   IN4  STEROWNIK2
                 ; 0000 0289 //PORTC.5   IN5  STEROWNIK2
                 ; 0000 028A //PORTC.6   IN6  STEROWNIK2
                 ; 0000 028B //PORTC.7   IN7  STEROWNIK2
                 ; 0000 028C 
                 ; 0000 028D //PORTD.0  SDA                     OUT 2
                 ; 0000 028E //PORTD.1  SCL
                 ; 0000 028F //PORTD.2  SETUP   STEROWNIK1 STEROWNIK 2 STEROIWNIK 3 STEROWNIK 4
                 ; 0000 0290 //PORTD.3  DRIVE   STEROWNIK1
                 ; 0000 0291 //PORTD.4  IN8 STEROWNIK1
                 ; 0000 0292 //PORTD.5  IN8 STEROWNIK2
                 ; 0000 0293 //PORTD.6  DRIVE   STEROWNIK2
                 ; 0000 0294 //PORTD.7  swiatlo czerwone i jednoczesnie HOLD
                 ; 0000 0295 
                 ; 0000 0296 //PORTE.0
                 ; 0000 0297 //PORTE.1
                 ; 0000 0298 //PORTE.2  1A CEWKA szczotka druciana                    OUT 6
                 ; 0000 0299 //PORTE.3  1B CEWKA krazek scierny
                 ; 0000 029A //PORTE.4  IN4  STEROWNIK4
                 ; 0000 029B //PORTE.5  IN5  STEROWNIK4
                 ; 0000 029C //PORTE.6  2A CEWKA przerzucanie docisku zaciskow
                 ; 0000 029D //PORTE.7  3A CEWKA zacisnij zaciski
                 ; 0000 029E 
                 ; 0000 029F //PORTF.0   IN0  STEROWNIK3             OUT 4
                 ; 0000 02A0 //PORTF.1   IN1  STEROWNIK3
                 ; 0000 02A1 //PORTF.2   IN2  STEROWNIK3
                 ; 0000 02A2 //PORTF.3   IN3  STEROWNIK3
                 ; 0000 02A3 //PORTF.4   4A CEWKA przedmuch zaciskow
                 ; 0000 02A4 //PORTF.5   DRIVE  STEROWNIK3
                 ; 0000 02A5 //PORTF.6   swiatlo zolte
                 ; 0000 02A6 //PORTF.7   IN4 STEROWNIK 3
                 ; 0000 02A7 
                 ; 0000 02A8 
                 ; 0000 02A9 
                 ; 0000 02AA  //PORT_F.bits.b4 = 0;  //przedmuch zaciskow
                 ; 0000 02AB //PORTF = PORT_F.byte;
                 ; 0000 02AC //PORTB.4 = 1;  //przedmuch osi
                 ; 0000 02AD //PORTE.2 = 1;  //szlifierka 1
                 ; 0000 02AE //PORTE.3 = 1;  //szlifierka 2
                 ; 0000 02AF //PORTE.6 = 0;  //zacisniety rzad 1
                 ; 0000 02B0 //PORTE.6 = 1;  //zacisniety rzad 2
                 ; 0000 02B1 //PORTE.7 = 0;    //zacisnij zaciski
                 ; 0000 02B2 
                 ; 0000 02B3 
                 ; 0000 02B4 //macierz_zaciskow[rzad]=44; brak
                 ; 0000 02B5 //macierz_zaciskow[rzad]=48; brak
                 ; 0000 02B6 //macierz_zaciskow[rzad]=76  brak
                 ; 0000 02B7 //macierz_zaciskow[rzad]=80; brak
                 ; 0000 02B8 //macierz_zaciskow[rzad]=92; brak
                 ; 0000 02B9 //macierz_zaciskow[rzad]=96;  brak
                 ; 0000 02BA //macierz_zaciskow[rzad]=107; brak
                 ; 0000 02BB //macierz_zaciskow[rzad]=111; brak
                 ; 0000 02BC 
                 ; 0000 02BD 
                 ; 0000 02BE 
                 ; 0000 02BF 
                 ; 0000 02C0 /*
                 ; 0000 02C1 
                 ; 0000 02C2 //testy parzystych i nieparzystych IN0-IN8
                 ; 0000 02C3 //testy port/pin
                 ; 0000 02C4 //sterownik 3
                 ; 0000 02C5 //PORTF.0   IN0  STEROWNIK3
                 ; 0000 02C6 //PORTF.1   IN1  STEROWNIK3
                 ; 0000 02C7 //PORTF.2   IN2  STEROWNIK3
                 ; 0000 02C8 //PORTF.3   IN3  STEROWNIK3
                 ; 0000 02C9 //PORTF.7   IN4 STEROWNIK 3
                 ; 0000 02CA //PORTB.7   IN5 STEROWNIK 3
                 ; 0000 02CB 
                 ; 0000 02CC 
                 ; 0000 02CD PORT_F.bits.b0 = 0;
                 ; 0000 02CE PORT_F.bits.b1 = 1;
                 ; 0000 02CF PORT_F.bits.b2 = 0;
                 ; 0000 02D0 PORT_F.bits.b3 = 1;
                 ; 0000 02D1 PORT_F.bits.b7 = 0;
                 ; 0000 02D2 PORTF = PORT_F.byte;
                 ; 0000 02D3 PORTB.7 = 1;
                 ; 0000 02D4 
                 ; 0000 02D5 //sterownik 4
                 ; 0000 02D6 
                 ; 0000 02D7 //PORTB.0   IN0  STEROWNIK4        OUT 5
                 ; 0000 02D8 //PORTB.1   IN1  STEROWNIK4
                 ; 0000 02D9 //PORTB.2   IN2  STEROWNIK4
                 ; 0000 02DA //PORTB.3   IN3  STEROWNIK4
                 ; 0000 02DB //PORTE.4  IN4  STEROWNIK4
                 ; 0000 02DC //PORTE.5  IN5  STEROWNIK4
                 ; 0000 02DD 
                 ; 0000 02DE PORTB.0 = 0;
                 ; 0000 02DF PORTB.1 = 1;
                 ; 0000 02E0 PORTB.2 = 0;
                 ; 0000 02E1 PORTB.3 = 1;
                 ; 0000 02E2 PORTE.4 = 0;
                 ; 0000 02E3 PORTE.5 = 1;
                 ; 0000 02E4 
                 ; 0000 02E5 //ster 1
                 ; 0000 02E6 PORTA.0 = 0;   //IN0  STEROWNIK1        OUT 1
                 ; 0000 02E7 PORTA.1 = 1;  //IN1  STEROWNIK1
                 ; 0000 02E8 PORTA.2 = 0;  // IN2  STEROWNIK1
                 ; 0000 02E9 PORTA.3 = 1;  //IN3  STEROWNIK1
                 ; 0000 02EA PORTA.4 = 0;  // IN4  STEROWNIK1
                 ; 0000 02EB PORTA.5 = 1;  //IN5  STEROWNIK1
                 ; 0000 02EC PORTA.6 = 0;   //IN6  STEROWNIK1
                 ; 0000 02ED PORTA.7 = 1;  //IN7  STEROWNIK1
                 ; 0000 02EE PORTD.4 = 0; //IN8 STEROWNIK1
                 ; 0000 02EF 
                 ; 0000 02F0 
                 ; 0000 02F1 
                 ; 0000 02F2 //sterownik 2
                 ; 0000 02F3 PORTC.0 = 0;   //IN0  STEROWNIK2        OUT 3
                 ; 0000 02F4 PORTC.1  = 1;  //IN1  STEROWNIK2
                 ; 0000 02F5 PORTC.2 = 0;    //IN2  STEROWNIK2
                 ; 0000 02F6 PORTC.3= 1;   //IN3  STEROWNIK2
                 ; 0000 02F7 PORTC.4 = 0;   // IN4  STEROWNIK2
                 ; 0000 02F8 PORTC.5= 1;   //IN5  STEROWNIK2
                 ; 0000 02F9 PORTC.6 = 0;   // IN6  STEROWNIK2
                 ; 0000 02FA PORTC.7= 1;   //IN7  STEROWNIK2
                 ; 0000 02FB PORTD.5 = 0;  //IN8 STEROWNIK2
                 ; 0000 02FC 
                 ; 0000 02FD */
                 ; 0000 02FE 
                 ; 0000 02FF }
                 ;
                 ;void sprawdz_cisnienie()
                 ; 0000 0302 {
                 _sprawdz_cisnienie:
                 ; 0000 0303 int i;
                 ; 0000 0304 //i = 0;
                 ; 0000 0305 i = 1;
000625 931a      	ST   -Y,R17
000626 930a      	ST   -Y,R16
                 ;	i -> R16,R17
                +
000627 e001     +LDI R16 , LOW ( 1 )
000628 e010     +LDI R17 , HIGH ( 1 )
                 	__GETWRN 16,17,1
                 ; 0000 0306 
                 ; 0000 0307 while(i == 0)
                 _0x19:
000629 2e00      	MOV  R0,R16
00062a 2a01      	OR   R0,R17
00062b f4a9      	BRNE _0x1B
                 ; 0000 0308     {
                 ; 0000 0309     if(sprawdz_pin6(PORTJJ,0x79) == 0)
00062c 940e 2cf7 	CALL SUBOPT_0x30
00062e ddfa      	RCALL _sprawdz_pin6
00062f 30e0      	CPI  R30,0
000630 f429      	BRNE _0x1C
                 ; 0000 030A         {
                 ; 0000 030B         i = 1;
                +
000631 e001     +LDI R16 , LOW ( 1 )
000632 e010     +LDI R17 , HIGH ( 1 )
                 	__GETWRN 16,17,1
                 ; 0000 030C         komunikat_na_panel("                                                ",adr1,adr2);
                +
000633 eae0     +LDI R30 , LOW ( 2 * _0x0 + ( 0 ) )
000634 e0f0     +LDI R31 , HIGH ( 2 * _0x0 + ( 0 ) )
                 	__POINTW1FN _0x0,0
000635 c006      	RJMP _0x471
                 ; 0000 030D         }
                 ; 0000 030E     else
                 _0x1C:
                 ; 0000 030F         {
                 ; 0000 0310         i = 0;
                +
000636 e000     +LDI R16 , LOW ( 0 )
000637 e010     +LDI R17 , HIGH ( 0 )
                 	__GETWRN 16,17,0
                 ; 0000 0311         komunikat_na_panel("                                                ",adr1,adr2);
000638 940e 2d01 	CALL SUBOPT_0x31
                 ; 0000 0312         komunikat_na_panel("Cisnienie za male - mniejsze niz 6 bar",adr1,adr2);
                +
00063a e2e4     +LDI R30 , LOW ( 2 * _0x0 + ( 132 ) )
00063b e0f1     +LDI R31 , HIGH ( 2 * _0x0 + ( 132 ) )
                 	__POINTW1FN _0x0,132
                 _0x471:
00063c 93fa      	ST   -Y,R31
00063d 93ea      	ST   -Y,R30
00063e 940e 2d10 	CALL SUBOPT_0x32
                 ; 0000 0313         }
                 ; 0000 0314     }
000640 cfe8      	RJMP _0x19
                 _0x1B:
                 ; 0000 0315 }
000641 9109      	LD   R16,Y+
000642 9119      	LD   R17,Y+
000643 9508      	RET
                 ;
                 ;
                 ;int odczyt_wybranego_zacisku()
                 ; 0000 0319 {                         //11
                 _odczyt_wybranego_zacisku:
                 ; 0000 031A int rzad;
                 ; 0000 031B 
                 ; 0000 031C PORT_CZYTNIK.bits.b0 = sprawdz_pin0(PORTHH,0x73);
000644 931a      	ST   -Y,R17
000645 930a      	ST   -Y,R16
                 ;	rzad -> R16,R17
000646 940e 2d1b 	CALL SUBOPT_0x33
000648 ddc4      	RCALL _sprawdz_pin0
000649 70e1      	ANDI R30,LOW(0x1)
00064a 2e0e      	MOV  R0,R30
00064b 91e0 0502 	LDS  R30,_PORT_CZYTNIK
00064d 7fee      	ANDI R30,0xFE
00064e 940e 2d25 	CALL SUBOPT_0x34
                 ; 0000 031D PORT_CZYTNIK.bits.b1 = sprawdz_pin1(PORTHH,0x73);
000650 ddbf      	RCALL _sprawdz_pin1
000651 70e1      	ANDI R30,LOW(0x1)
000652 0fee      	LSL  R30
000653 2e0e      	MOV  R0,R30
000654 91e0 0502 	LDS  R30,_PORT_CZYTNIK
000656 7fed      	ANDI R30,0xFD
000657 940e 2d25 	CALL SUBOPT_0x34
                 ; 0000 031E PORT_CZYTNIK.bits.b2 = sprawdz_pin2(PORTHH,0x73);
000659 ddba      	RCALL _sprawdz_pin2
00065a 70e1      	ANDI R30,LOW(0x1)
00065b 0fee      	LSL  R30
00065c 0fee      	LSL  R30
00065d 2e0e      	MOV  R0,R30
00065e 91e0 0502 	LDS  R30,_PORT_CZYTNIK
000660 7feb      	ANDI R30,0xFB
000661 940e 2d25 	CALL SUBOPT_0x34
                 ; 0000 031F PORT_CZYTNIK.bits.b3 = sprawdz_pin3(PORTHH,0x73);
000663 ddb5      	RCALL _sprawdz_pin3
000664 70e1      	ANDI R30,LOW(0x1)
000665 0fee      	LSL  R30
000666 0fee      	LSL  R30
000667 0fee      	LSL  R30
000668 2e0e      	MOV  R0,R30
000669 91e0 0502 	LDS  R30,_PORT_CZYTNIK
00066b 7fe7      	ANDI R30,0XF7
00066c 940e 2d25 	CALL SUBOPT_0x34
                 ; 0000 0320 PORT_CZYTNIK.bits.b4 = sprawdz_pin4(PORTHH,0x73);
00066e ddb0      	RCALL _sprawdz_pin4
00066f 70e1      	ANDI R30,LOW(0x1)
000670 95e2      	SWAP R30
000671 7fe0      	ANDI R30,0xF0
000672 2e0e      	MOV  R0,R30
000673 91e0 0502 	LDS  R30,_PORT_CZYTNIK
000675 7eef      	ANDI R30,0xEF
000676 940e 2d25 	CALL SUBOPT_0x34
                 ; 0000 0321 PORT_CZYTNIK.bits.b5 = sprawdz_pin5(PORTHH,0x73);
000678 ddaa      	RCALL _sprawdz_pin5
000679 70e1      	ANDI R30,LOW(0x1)
00067a 95e2      	SWAP R30
00067b 7fe0      	ANDI R30,0xF0
00067c 0fee      	LSL  R30
00067d 2e0e      	MOV  R0,R30
00067e 91e0 0502 	LDS  R30,_PORT_CZYTNIK
000680 7def      	ANDI R30,0xDF
000681 940e 2d25 	CALL SUBOPT_0x34
                 ; 0000 0322 PORT_CZYTNIK.bits.b6 = sprawdz_pin6(PORTHH,0x73);
000683 dda5      	RCALL _sprawdz_pin6
000684 70e1      	ANDI R30,LOW(0x1)
000685 95e2      	SWAP R30
000686 7fe0      	ANDI R30,0xF0
000687 0fee      	LSL  R30
000688 0fee      	LSL  R30
000689 2e0e      	MOV  R0,R30
00068a 91e0 0502 	LDS  R30,_PORT_CZYTNIK
00068c 7bef      	ANDI R30,0xBF
00068d 940e 2d25 	CALL SUBOPT_0x34
                 ; 0000 0323 PORT_CZYTNIK.bits.b7 = sprawdz_pin7(PORTHH,0x73);
00068f dd9e      	RCALL _sprawdz_pin7
000690 70e1      	ANDI R30,LOW(0x1)
000691 95e7      	ROR  R30
000692 e0e0      	LDI  R30,0
000693 95e7      	ROR  R30
000694 2e0e      	MOV  R0,R30
000695 91e0 0502 	LDS  R30,_PORT_CZYTNIK
000697 77ef      	ANDI R30,0x7F
000698 29e0      	OR   R30,R0
000699 93e0 0502 	STS  _PORT_CZYTNIK,R30
                 ; 0000 0324 
                 ; 0000 0325 rzad = odczytaj_parametr(32,128);       //20,80
00069b 940e 2d29 	CALL SUBOPT_0x35
00069d 940e 2cb8 	CALL SUBOPT_0x26
00069f 018f      	MOVW R16,R30
                 ; 0000 0326 
                 ; 0000 0327 if(PORT_CZYTNIK.byte == 0x01)
0006a0 91a0 0502 	LDS  R26,_PORT_CZYTNIK
0006a2 30a1      	CPI  R26,LOW(0x1)
0006a3 f469      	BRNE _0x1E
                 ; 0000 0328     {
                 ; 0000 0329     macierz_zaciskow[rzad]=1;
0006a4 01f8      	MOVW R30,R16
0006a5 940e 2c3b 	CALL SUBOPT_0x13
0006a7 e0e1      	LDI  R30,LOW(1)
0006a8 e0f0      	LDI  R31,HIGH(1)
0006a9 93ed      	ST   X+,R30
0006aa 93fc      	ST   X,R31
                 ; 0000 032A     komunikat_z_czytnika_kodow("86-0170",rzad,1);
                +
0006ab e4eb     +LDI R30 , LOW ( 2 * _0x0 + ( 171 ) )
0006ac e0f1     +LDI R31 , HIGH ( 2 * _0x0 + ( 171 ) )
                 	__POINTW1FN _0x0,171
0006ad 940e 2d2e 	CALL SUBOPT_0x36
0006af 940e 2d33 	CALL SUBOPT_0x37
                 ; 0000 032B     }
                 ; 0000 032C 
                 ; 0000 032D if(PORT_CZYTNIK.byte == 0x02)
                 _0x1E:
0006b1 91a0 0502 	LDS  R26,_PORT_CZYTNIK
0006b3 30a2      	CPI  R26,LOW(0x2)
0006b4 f471      	BRNE _0x1F
                 ; 0000 032E     {
                 ; 0000 032F     macierz_zaciskow[rzad]=2;
0006b5 01f8      	MOVW R30,R16
0006b6 940e 2c3b 	CALL SUBOPT_0x13
0006b8 e0e2      	LDI  R30,LOW(2)
0006b9 e0f0      	LDI  R31,HIGH(2)
0006ba 93ed      	ST   X+,R30
0006bb 93fc      	ST   X,R31
                 ; 0000 0330     komunikat_z_czytnika_kodow("86-1043",rzad,0);
                +
0006bc e5e3     +LDI R30 , LOW ( 2 * _0x0 + ( 179 ) )
0006bd e0f1     +LDI R31 , HIGH ( 2 * _0x0 + ( 179 ) )
                 	__POINTW1FN _0x0,179
0006be 940e 2d2e 	CALL SUBOPT_0x36
0006c0 940e 2cad 	CALL SUBOPT_0x24
0006c2 de29      	RCALL _komunikat_z_czytnika_kodow
                 ; 0000 0331 
                 ; 0000 0332     }
                 ; 0000 0333 
                 ; 0000 0334 if(PORT_CZYTNIK.byte == 0x03)
                 _0x1F:
0006c3 91a0 0502 	LDS  R26,_PORT_CZYTNIK
0006c5 30a3      	CPI  R26,LOW(0x3)
0006c6 f471      	BRNE _0x20
                 ; 0000 0335     {
                 ; 0000 0336       macierz_zaciskow[rzad]=3;
0006c7 01f8      	MOVW R30,R16
0006c8 940e 2c3b 	CALL SUBOPT_0x13
0006ca e0e3      	LDI  R30,LOW(3)
0006cb e0f0      	LDI  R31,HIGH(3)
0006cc 93ed      	ST   X+,R30
0006cd 93fc      	ST   X,R31
                 ; 0000 0337       komunikat_z_czytnika_kodow("86-1675",rzad,0);
                +
0006ce e5eb     +LDI R30 , LOW ( 2 * _0x0 + ( 187 ) )
0006cf e0f1     +LDI R31 , HIGH ( 2 * _0x0 + ( 187 ) )
                 	__POINTW1FN _0x0,187
0006d0 940e 2d2e 	CALL SUBOPT_0x36
0006d2 940e 2cad 	CALL SUBOPT_0x24
0006d4 de17      	RCALL _komunikat_z_czytnika_kodow
                 ; 0000 0338     }
                 ; 0000 0339 
                 ; 0000 033A if(PORT_CZYTNIK.byte == 0x04)
                 _0x20:
0006d5 91a0 0502 	LDS  R26,_PORT_CZYTNIK
0006d7 30a4      	CPI  R26,LOW(0x4)
0006d8 f471      	BRNE _0x21
                 ; 0000 033B     {
                 ; 0000 033C 
                 ; 0000 033D       macierz_zaciskow[rzad]=4;
0006d9 01f8      	MOVW R30,R16
0006da 940e 2c3b 	CALL SUBOPT_0x13
0006dc e0e4      	LDI  R30,LOW(4)
0006dd e0f0      	LDI  R31,HIGH(4)
0006de 93ed      	ST   X+,R30
0006df 93fc      	ST   X,R31
                 ; 0000 033E       komunikat_z_czytnika_kodow("86-2098",rzad,0);
                +
0006e0 e6e3     +LDI R30 , LOW ( 2 * _0x0 + ( 195 ) )
0006e1 e0f1     +LDI R31 , HIGH ( 2 * _0x0 + ( 195 ) )
                 	__POINTW1FN _0x0,195
0006e2 940e 2d2e 	CALL SUBOPT_0x36
0006e4 940e 2cad 	CALL SUBOPT_0x24
0006e6 de05      	RCALL _komunikat_z_czytnika_kodow
                 ; 0000 033F 
                 ; 0000 0340     }
                 ; 0000 0341 if(PORT_CZYTNIK.byte == 0x05)
                 _0x21:
0006e7 91a0 0502 	LDS  R26,_PORT_CZYTNIK
0006e9 30a5      	CPI  R26,LOW(0x5)
0006ea f471      	BRNE _0x22
                 ; 0000 0342     {
                 ; 0000 0343       macierz_zaciskow[rzad]=5;
0006eb 01f8      	MOVW R30,R16
0006ec 940e 2c3b 	CALL SUBOPT_0x13
0006ee e0e5      	LDI  R30,LOW(5)
0006ef e0f0      	LDI  R31,HIGH(5)
0006f0 93ed      	ST   X+,R30
0006f1 93fc      	ST   X,R31
                 ; 0000 0344       komunikat_z_czytnika_kodow("87-0170",rzad,0);
                +
0006f2 e6eb     +LDI R30 , LOW ( 2 * _0x0 + ( 203 ) )
0006f3 e0f1     +LDI R31 , HIGH ( 2 * _0x0 + ( 203 ) )
                 	__POINTW1FN _0x0,203
0006f4 940e 2d2e 	CALL SUBOPT_0x36
0006f6 940e 2cad 	CALL SUBOPT_0x24
0006f8 ddf3      	RCALL _komunikat_z_czytnika_kodow
                 ; 0000 0345 
                 ; 0000 0346     }
                 ; 0000 0347 if(PORT_CZYTNIK.byte == 0x06)
                 _0x22:
0006f9 91a0 0502 	LDS  R26,_PORT_CZYTNIK
0006fb 30a6      	CPI  R26,LOW(0x6)
0006fc f469      	BRNE _0x23
                 ; 0000 0348     {
                 ; 0000 0349       macierz_zaciskow[rzad]=6;
0006fd 01f8      	MOVW R30,R16
0006fe 940e 2c3b 	CALL SUBOPT_0x13
000700 e0e6      	LDI  R30,LOW(6)
000701 e0f0      	LDI  R31,HIGH(6)
000702 93ed      	ST   X+,R30
000703 93fc      	ST   X,R31
                 ; 0000 034A       komunikat_z_czytnika_kodow("87-1043",rzad,1);
                +
000704 e7e3     +LDI R30 , LOW ( 2 * _0x0 + ( 211 ) )
000705 e0f1     +LDI R31 , HIGH ( 2 * _0x0 + ( 211 ) )
                 	__POINTW1FN _0x0,211
000706 940e 2d2e 	CALL SUBOPT_0x36
000708 940e 2d33 	CALL SUBOPT_0x37
                 ; 0000 034B 
                 ; 0000 034C     }
                 ; 0000 034D 
                 ; 0000 034E if(PORT_CZYTNIK.byte == 0x07)
                 _0x23:
00070a 91a0 0502 	LDS  R26,_PORT_CZYTNIK
00070c 30a7      	CPI  R26,LOW(0x7)
00070d f469      	BRNE _0x24
                 ; 0000 034F     {
                 ; 0000 0350       macierz_zaciskow[rzad]=7;
00070e 01f8      	MOVW R30,R16
00070f 940e 2c3b 	CALL SUBOPT_0x13
000711 e0e7      	LDI  R30,LOW(7)
000712 e0f0      	LDI  R31,HIGH(7)
000713 93ed      	ST   X+,R30
000714 93fc      	ST   X,R31
                 ; 0000 0351       komunikat_z_czytnika_kodow("87-1675",rzad,1);
                +
000715 e7eb     +LDI R30 , LOW ( 2 * _0x0 + ( 219 ) )
000716 e0f1     +LDI R31 , HIGH ( 2 * _0x0 + ( 219 ) )
                 	__POINTW1FN _0x0,219
000717 940e 2d2e 	CALL SUBOPT_0x36
000719 940e 2d33 	CALL SUBOPT_0x37
                 ; 0000 0352 
                 ; 0000 0353     }
                 ; 0000 0354 
                 ; 0000 0355 if(PORT_CZYTNIK.byte == 0x08)
                 _0x24:
00071b 91a0 0502 	LDS  R26,_PORT_CZYTNIK
00071d 30a8      	CPI  R26,LOW(0x8)
00071e f469      	BRNE _0x25
                 ; 0000 0356     {
                 ; 0000 0357       macierz_zaciskow[rzad]=8;
00071f 01f8      	MOVW R30,R16
000720 940e 2c3b 	CALL SUBOPT_0x13
000722 e0e8      	LDI  R30,LOW(8)
000723 e0f0      	LDI  R31,HIGH(8)
000724 93ed      	ST   X+,R30
000725 93fc      	ST   X,R31
                 ; 0000 0358       komunikat_z_czytnika_kodow("87-2098",rzad,1);
                +
000726 e8e3     +LDI R30 , LOW ( 2 * _0x0 + ( 227 ) )
000727 e0f1     +LDI R31 , HIGH ( 2 * _0x0 + ( 227 ) )
                 	__POINTW1FN _0x0,227
000728 940e 2d2e 	CALL SUBOPT_0x36
00072a 940e 2d33 	CALL SUBOPT_0x37
                 ; 0000 0359 
                 ; 0000 035A     }
                 ; 0000 035B if(PORT_CZYTNIK.byte == 0x09)
                 _0x25:
00072c 91a0 0502 	LDS  R26,_PORT_CZYTNIK
00072e 30a9      	CPI  R26,LOW(0x9)
00072f f471      	BRNE _0x26
                 ; 0000 035C     {
                 ; 0000 035D       macierz_zaciskow[rzad]=9;
000730 01f8      	MOVW R30,R16
000731 940e 2c3b 	CALL SUBOPT_0x13
000733 e0e9      	LDI  R30,LOW(9)
000734 e0f0      	LDI  R31,HIGH(9)
000735 93ed      	ST   X+,R30
000736 93fc      	ST   X,R31
                 ; 0000 035E       komunikat_z_czytnika_kodow("86-0192",rzad,0);
                +
000737 e8eb     +LDI R30 , LOW ( 2 * _0x0 + ( 235 ) )
000738 e0f1     +LDI R31 , HIGH ( 2 * _0x0 + ( 235 ) )
                 	__POINTW1FN _0x0,235
000739 940e 2d2e 	CALL SUBOPT_0x36
00073b 940e 2cad 	CALL SUBOPT_0x24
00073d ddae      	RCALL _komunikat_z_czytnika_kodow
                 ; 0000 035F 
                 ; 0000 0360     }
                 ; 0000 0361 if(PORT_CZYTNIK.byte == 0x0A)
                 _0x26:
00073e 91a0 0502 	LDS  R26,_PORT_CZYTNIK
000740 30aa      	CPI  R26,LOW(0xA)
000741 f471      	BRNE _0x27
                 ; 0000 0362     {
                 ; 0000 0363       macierz_zaciskow[rzad]=10;
000742 01f8      	MOVW R30,R16
000743 940e 2c3b 	CALL SUBOPT_0x13
000745 e0ea      	LDI  R30,LOW(10)
000746 e0f0      	LDI  R31,HIGH(10)
000747 93ed      	ST   X+,R30
000748 93fc      	ST   X,R31
                 ; 0000 0364       komunikat_z_czytnika_kodow("86-1054",rzad,0);
                +
000749 e9e3     +LDI R30 , LOW ( 2 * _0x0 + ( 243 ) )
00074a e0f1     +LDI R31 , HIGH ( 2 * _0x0 + ( 243 ) )
                 	__POINTW1FN _0x0,243
00074b 940e 2d2e 	CALL SUBOPT_0x36
00074d 940e 2cad 	CALL SUBOPT_0x24
00074f dd9c      	RCALL _komunikat_z_czytnika_kodow
                 ; 0000 0365 
                 ; 0000 0366     }
                 ; 0000 0367 if(PORT_CZYTNIK.byte == 0x0B)
                 _0x27:
000750 91a0 0502 	LDS  R26,_PORT_CZYTNIK
000752 30ab      	CPI  R26,LOW(0xB)
000753 f471      	BRNE _0x28
                 ; 0000 0368     {
                 ; 0000 0369       macierz_zaciskow[rzad]=11;
000754 01f8      	MOVW R30,R16
000755 940e 2c3b 	CALL SUBOPT_0x13
000757 e0eb      	LDI  R30,LOW(11)
000758 e0f0      	LDI  R31,HIGH(11)
000759 93ed      	ST   X+,R30
00075a 93fc      	ST   X,R31
                 ; 0000 036A       komunikat_z_czytnika_kodow("86-1676",rzad,0);
                +
00075b e9eb     +LDI R30 , LOW ( 2 * _0x0 + ( 251 ) )
00075c e0f1     +LDI R31 , HIGH ( 2 * _0x0 + ( 251 ) )
                 	__POINTW1FN _0x0,251
00075d 940e 2d2e 	CALL SUBOPT_0x36
00075f 940e 2cad 	CALL SUBOPT_0x24
000761 dd8a      	RCALL _komunikat_z_czytnika_kodow
                 ; 0000 036B 
                 ; 0000 036C     }
                 ; 0000 036D if(PORT_CZYTNIK.byte == 0x0C)
                 _0x28:
000762 91a0 0502 	LDS  R26,_PORT_CZYTNIK
000764 30ac      	CPI  R26,LOW(0xC)
000765 f469      	BRNE _0x29
                 ; 0000 036E     {
                 ; 0000 036F       macierz_zaciskow[rzad]=12;
000766 01f8      	MOVW R30,R16
000767 940e 2c3b 	CALL SUBOPT_0x13
000769 e0ec      	LDI  R30,LOW(12)
00076a e0f0      	LDI  R31,HIGH(12)
00076b 93ed      	ST   X+,R30
00076c 93fc      	ST   X,R31
                 ; 0000 0370       komunikat_z_czytnika_kodow("86-2132",rzad,1);
                +
00076d eae3     +LDI R30 , LOW ( 2 * _0x0 + ( 259 ) )
00076e e0f1     +LDI R31 , HIGH ( 2 * _0x0 + ( 259 ) )
                 	__POINTW1FN _0x0,259
00076f 940e 2d2e 	CALL SUBOPT_0x36
000771 940e 2d33 	CALL SUBOPT_0x37
                 ; 0000 0371 
                 ; 0000 0372     }
                 ; 0000 0373 if(PORT_CZYTNIK.byte == 0x0D)
                 _0x29:
000773 91a0 0502 	LDS  R26,_PORT_CZYTNIK
000775 30ad      	CPI  R26,LOW(0xD)
000776 f469      	BRNE _0x2A
                 ; 0000 0374     {
                 ; 0000 0375       macierz_zaciskow[rzad]=13;
000777 01f8      	MOVW R30,R16
000778 940e 2c3b 	CALL SUBOPT_0x13
00077a e0ed      	LDI  R30,LOW(13)
00077b e0f0      	LDI  R31,HIGH(13)
00077c 93ed      	ST   X+,R30
00077d 93fc      	ST   X,R31
                 ; 0000 0376       komunikat_z_czytnika_kodow("87-0192",rzad,1);
                +
00077e eaeb     +LDI R30 , LOW ( 2 * _0x0 + ( 267 ) )
00077f e0f1     +LDI R31 , HIGH ( 2 * _0x0 + ( 267 ) )
                 	__POINTW1FN _0x0,267
000780 940e 2d2e 	CALL SUBOPT_0x36
000782 940e 2d33 	CALL SUBOPT_0x37
                 ; 0000 0377 
                 ; 0000 0378     }
                 ; 0000 0379 if(PORT_CZYTNIK.byte == 0x0E)
                 _0x2A:
000784 91a0 0502 	LDS  R26,_PORT_CZYTNIK
000786 30ae      	CPI  R26,LOW(0xE)
000787 f469      	BRNE _0x2B
                 ; 0000 037A     {
                 ; 0000 037B       macierz_zaciskow[rzad]=14;
000788 01f8      	MOVW R30,R16
000789 940e 2c3b 	CALL SUBOPT_0x13
00078b e0ee      	LDI  R30,LOW(14)
00078c e0f0      	LDI  R31,HIGH(14)
00078d 93ed      	ST   X+,R30
00078e 93fc      	ST   X,R31
                 ; 0000 037C       komunikat_z_czytnika_kodow("87-1054",rzad,1);
                +
00078f ebe3     +LDI R30 , LOW ( 2 * _0x0 + ( 275 ) )
000790 e0f1     +LDI R31 , HIGH ( 2 * _0x0 + ( 275 ) )
                 	__POINTW1FN _0x0,275
000791 940e 2d2e 	CALL SUBOPT_0x36
000793 940e 2d33 	CALL SUBOPT_0x37
                 ; 0000 037D 
                 ; 0000 037E     }
                 ; 0000 037F 
                 ; 0000 0380 if(PORT_CZYTNIK.byte == 0x0F)
                 _0x2B:
000795 91a0 0502 	LDS  R26,_PORT_CZYTNIK
000797 30af      	CPI  R26,LOW(0xF)
000798 f469      	BRNE _0x2C
                 ; 0000 0381     {
                 ; 0000 0382       macierz_zaciskow[rzad]=15;
000799 01f8      	MOVW R30,R16
00079a 940e 2c3b 	CALL SUBOPT_0x13
00079c e0ef      	LDI  R30,LOW(15)
00079d e0f0      	LDI  R31,HIGH(15)
00079e 93ed      	ST   X+,R30
00079f 93fc      	ST   X,R31
                 ; 0000 0383       komunikat_z_czytnika_kodow("87-1676",rzad,1);
                +
0007a0 ebeb     +LDI R30 , LOW ( 2 * _0x0 + ( 283 ) )
0007a1 e0f1     +LDI R31 , HIGH ( 2 * _0x0 + ( 283 ) )
                 	__POINTW1FN _0x0,283
0007a2 940e 2d2e 	CALL SUBOPT_0x36
0007a4 940e 2d33 	CALL SUBOPT_0x37
                 ; 0000 0384 
                 ; 0000 0385     }
                 ; 0000 0386 if(PORT_CZYTNIK.byte == 0x10)
                 _0x2C:
0007a6 91a0 0502 	LDS  R26,_PORT_CZYTNIK
0007a8 31a0      	CPI  R26,LOW(0x10)
0007a9 f471      	BRNE _0x2D
                 ; 0000 0387     {
                 ; 0000 0388       macierz_zaciskow[rzad]=16;
0007aa 01f8      	MOVW R30,R16
0007ab 940e 2c3b 	CALL SUBOPT_0x13
0007ad e1e0      	LDI  R30,LOW(16)
0007ae e0f0      	LDI  R31,HIGH(16)
0007af 93ed      	ST   X+,R30
0007b0 93fc      	ST   X,R31
                 ; 0000 0389       komunikat_z_czytnika_kodow("87-2132",rzad,0);
                +
0007b1 ece3     +LDI R30 , LOW ( 2 * _0x0 + ( 291 ) )
0007b2 e0f1     +LDI R31 , HIGH ( 2 * _0x0 + ( 291 ) )
                 	__POINTW1FN _0x0,291
0007b3 940e 2d2e 	CALL SUBOPT_0x36
0007b5 940e 2cad 	CALL SUBOPT_0x24
0007b7 dd34      	RCALL _komunikat_z_czytnika_kodow
                 ; 0000 038A 
                 ; 0000 038B     }
                 ; 0000 038C 
                 ; 0000 038D if(PORT_CZYTNIK.byte == 0x11)
                 _0x2D:
0007b8 91a0 0502 	LDS  R26,_PORT_CZYTNIK
0007ba 31a1      	CPI  R26,LOW(0x11)
0007bb f471      	BRNE _0x2E
                 ; 0000 038E     {
                 ; 0000 038F       macierz_zaciskow[rzad]=17;
0007bc 01f8      	MOVW R30,R16
0007bd 940e 2c3b 	CALL SUBOPT_0x13
0007bf e1e1      	LDI  R30,LOW(17)
0007c0 e0f0      	LDI  R31,HIGH(17)
0007c1 93ed      	ST   X+,R30
0007c2 93fc      	ST   X,R31
                 ; 0000 0390       komunikat_z_czytnika_kodow("86-0193",rzad,0);
                +
0007c3 eceb     +LDI R30 , LOW ( 2 * _0x0 + ( 299 ) )
0007c4 e0f1     +LDI R31 , HIGH ( 2 * _0x0 + ( 299 ) )
                 	__POINTW1FN _0x0,299
0007c5 940e 2d2e 	CALL SUBOPT_0x36
0007c7 940e 2cad 	CALL SUBOPT_0x24
0007c9 dd22      	RCALL _komunikat_z_czytnika_kodow
                 ; 0000 0391     }
                 ; 0000 0392 
                 ; 0000 0393 if(PORT_CZYTNIK.byte == 0x12)
                 _0x2E:
0007ca 91a0 0502 	LDS  R26,_PORT_CZYTNIK
0007cc 31a2      	CPI  R26,LOW(0x12)
0007cd f471      	BRNE _0x2F
                 ; 0000 0394     {
                 ; 0000 0395       macierz_zaciskow[rzad]=18;
0007ce 01f8      	MOVW R30,R16
0007cf 940e 2c3b 	CALL SUBOPT_0x13
0007d1 e1e2      	LDI  R30,LOW(18)
0007d2 e0f0      	LDI  R31,HIGH(18)
0007d3 93ed      	ST   X+,R30
0007d4 93fc      	ST   X,R31
                 ; 0000 0396       komunikat_z_czytnika_kodow("86-1216",rzad,0);
                +
0007d5 ede3     +LDI R30 , LOW ( 2 * _0x0 + ( 307 ) )
0007d6 e0f1     +LDI R31 , HIGH ( 2 * _0x0 + ( 307 ) )
                 	__POINTW1FN _0x0,307
0007d7 940e 2d2e 	CALL SUBOPT_0x36
0007d9 940e 2cad 	CALL SUBOPT_0x24
0007db dd10      	RCALL _komunikat_z_czytnika_kodow
                 ; 0000 0397 
                 ; 0000 0398     }
                 ; 0000 0399 if(PORT_CZYTNIK.byte == 0x13)
                 _0x2F:
0007dc 91a0 0502 	LDS  R26,_PORT_CZYTNIK
0007de 31a3      	CPI  R26,LOW(0x13)
0007df f471      	BRNE _0x30
                 ; 0000 039A     {
                 ; 0000 039B       macierz_zaciskow[rzad]=19;
0007e0 01f8      	MOVW R30,R16
0007e1 940e 2c3b 	CALL SUBOPT_0x13
0007e3 e1e3      	LDI  R30,LOW(19)
0007e4 e0f0      	LDI  R31,HIGH(19)
0007e5 93ed      	ST   X+,R30
0007e6 93fc      	ST   X,R31
                 ; 0000 039C       komunikat_z_czytnika_kodow("86-1832",rzad,0);
                +
0007e7 edeb     +LDI R30 , LOW ( 2 * _0x0 + ( 315 ) )
0007e8 e0f1     +LDI R31 , HIGH ( 2 * _0x0 + ( 315 ) )
                 	__POINTW1FN _0x0,315
0007e9 940e 2d2e 	CALL SUBOPT_0x36
0007eb 940e 2cad 	CALL SUBOPT_0x24
0007ed dcfe      	RCALL _komunikat_z_czytnika_kodow
                 ; 0000 039D 
                 ; 0000 039E     }
                 ; 0000 039F 
                 ; 0000 03A0 if(PORT_CZYTNIK.byte == 0x14)
                 _0x30:
0007ee 91a0 0502 	LDS  R26,_PORT_CZYTNIK
0007f0 31a4      	CPI  R26,LOW(0x14)
0007f1 f471      	BRNE _0x31
                 ; 0000 03A1     {
                 ; 0000 03A2       macierz_zaciskow[rzad]=20;
0007f2 01f8      	MOVW R30,R16
0007f3 940e 2c3b 	CALL SUBOPT_0x13
0007f5 e1e4      	LDI  R30,LOW(20)
0007f6 e0f0      	LDI  R31,HIGH(20)
0007f7 93ed      	ST   X+,R30
0007f8 93fc      	ST   X,R31
                 ; 0000 03A3       komunikat_z_czytnika_kodow("86-2174",rzad,0);
                +
0007f9 eee3     +LDI R30 , LOW ( 2 * _0x0 + ( 323 ) )
0007fa e0f1     +LDI R31 , HIGH ( 2 * _0x0 + ( 323 ) )
                 	__POINTW1FN _0x0,323
0007fb 940e 2d2e 	CALL SUBOPT_0x36
0007fd 940e 2cad 	CALL SUBOPT_0x24
0007ff dcec      	RCALL _komunikat_z_czytnika_kodow
                 ; 0000 03A4 
                 ; 0000 03A5     }
                 ; 0000 03A6 if(PORT_CZYTNIK.byte == 0x15)
                 _0x31:
000800 91a0 0502 	LDS  R26,_PORT_CZYTNIK
000802 31a5      	CPI  R26,LOW(0x15)
000803 f469      	BRNE _0x32
                 ; 0000 03A7     {
                 ; 0000 03A8       macierz_zaciskow[rzad]=21;
000804 01f8      	MOVW R30,R16
000805 940e 2c3b 	CALL SUBOPT_0x13
000807 e1e5      	LDI  R30,LOW(21)
000808 e0f0      	LDI  R31,HIGH(21)
000809 93ed      	ST   X+,R30
00080a 93fc      	ST   X,R31
                 ; 0000 03A9       komunikat_z_czytnika_kodow("87-0193",rzad,1);
                +
00080b eeeb     +LDI R30 , LOW ( 2 * _0x0 + ( 331 ) )
00080c e0f1     +LDI R31 , HIGH ( 2 * _0x0 + ( 331 ) )
                 	__POINTW1FN _0x0,331
00080d 940e 2d2e 	CALL SUBOPT_0x36
00080f 940e 2d33 	CALL SUBOPT_0x37
                 ; 0000 03AA 
                 ; 0000 03AB     }
                 ; 0000 03AC 
                 ; 0000 03AD if(PORT_CZYTNIK.byte == 0x16)
                 _0x32:
000811 91a0 0502 	LDS  R26,_PORT_CZYTNIK
000813 31a6      	CPI  R26,LOW(0x16)
000814 f469      	BRNE _0x33
                 ; 0000 03AE     {
                 ; 0000 03AF       macierz_zaciskow[rzad]=22;
000815 01f8      	MOVW R30,R16
000816 940e 2c3b 	CALL SUBOPT_0x13
000818 e1e6      	LDI  R30,LOW(22)
000819 e0f0      	LDI  R31,HIGH(22)
00081a 93ed      	ST   X+,R30
00081b 93fc      	ST   X,R31
                 ; 0000 03B0       komunikat_z_czytnika_kodow("87-1216",rzad,1);
                +
00081c efe3     +LDI R30 , LOW ( 2 * _0x0 + ( 339 ) )
00081d e0f1     +LDI R31 , HIGH ( 2 * _0x0 + ( 339 ) )
                 	__POINTW1FN _0x0,339
00081e 940e 2d2e 	CALL SUBOPT_0x36
000820 940e 2d33 	CALL SUBOPT_0x37
                 ; 0000 03B1 
                 ; 0000 03B2     }
                 ; 0000 03B3 if(PORT_CZYTNIK.byte == 0x17)
                 _0x33:
000822 91a0 0502 	LDS  R26,_PORT_CZYTNIK
000824 31a7      	CPI  R26,LOW(0x17)
000825 f469      	BRNE _0x34
                 ; 0000 03B4     {
                 ; 0000 03B5       macierz_zaciskow[rzad]=23;
000826 01f8      	MOVW R30,R16
000827 940e 2c3b 	CALL SUBOPT_0x13
000829 e1e7      	LDI  R30,LOW(23)
00082a e0f0      	LDI  R31,HIGH(23)
00082b 93ed      	ST   X+,R30
00082c 93fc      	ST   X,R31
                 ; 0000 03B6       komunikat_z_czytnika_kodow("87-1832",rzad,1);
                +
00082d efeb     +LDI R30 , LOW ( 2 * _0x0 + ( 347 ) )
00082e e0f1     +LDI R31 , HIGH ( 2 * _0x0 + ( 347 ) )
                 	__POINTW1FN _0x0,347
00082f 940e 2d2e 	CALL SUBOPT_0x36
000831 940e 2d33 	CALL SUBOPT_0x37
                 ; 0000 03B7 
                 ; 0000 03B8     }
                 ; 0000 03B9 
                 ; 0000 03BA if(PORT_CZYTNIK.byte == 0x18)
                 _0x34:
000833 91a0 0502 	LDS  R26,_PORT_CZYTNIK
000835 31a8      	CPI  R26,LOW(0x18)
000836 f469      	BRNE _0x35
                 ; 0000 03BB     {
                 ; 0000 03BC       macierz_zaciskow[rzad]=24;
000837 01f8      	MOVW R30,R16
000838 940e 2c3b 	CALL SUBOPT_0x13
00083a e1e8      	LDI  R30,LOW(24)
00083b e0f0      	LDI  R31,HIGH(24)
00083c 93ed      	ST   X+,R30
00083d 93fc      	ST   X,R31
                 ; 0000 03BD       komunikat_z_czytnika_kodow("87-2174",rzad,1);
                +
00083e e0e3     +LDI R30 , LOW ( 2 * _0x0 + ( 355 ) )
00083f e0f2     +LDI R31 , HIGH ( 2 * _0x0 + ( 355 ) )
                 	__POINTW1FN _0x0,355
000840 940e 2d2e 	CALL SUBOPT_0x36
000842 940e 2d33 	CALL SUBOPT_0x37
                 ; 0000 03BE 
                 ; 0000 03BF     }
                 ; 0000 03C0 if(PORT_CZYTNIK.byte == 0x19)
                 _0x35:
000844 91a0 0502 	LDS  R26,_PORT_CZYTNIK
000846 31a9      	CPI  R26,LOW(0x19)
000847 f471      	BRNE _0x36
                 ; 0000 03C1     {
                 ; 0000 03C2       macierz_zaciskow[rzad]=25;
000848 01f8      	MOVW R30,R16
000849 940e 2c3b 	CALL SUBOPT_0x13
00084b e1e9      	LDI  R30,LOW(25)
00084c e0f0      	LDI  R31,HIGH(25)
00084d 93ed      	ST   X+,R30
00084e 93fc      	ST   X,R31
                 ; 0000 03C3       komunikat_z_czytnika_kodow("86-0194",rzad,0);
                +
00084f e0eb     +LDI R30 , LOW ( 2 * _0x0 + ( 363 ) )
000850 e0f2     +LDI R31 , HIGH ( 2 * _0x0 + ( 363 ) )
                 	__POINTW1FN _0x0,363
000851 940e 2d2e 	CALL SUBOPT_0x36
000853 940e 2cad 	CALL SUBOPT_0x24
000855 dc96      	RCALL _komunikat_z_czytnika_kodow
                 ; 0000 03C4 
                 ; 0000 03C5     }
                 ; 0000 03C6 
                 ; 0000 03C7 if(PORT_CZYTNIK.byte == 0x1A)
                 _0x36:
000856 91a0 0502 	LDS  R26,_PORT_CZYTNIK
000858 31aa      	CPI  R26,LOW(0x1A)
000859 f471      	BRNE _0x37
                 ; 0000 03C8     {
                 ; 0000 03C9       macierz_zaciskow[rzad]=26;
00085a 01f8      	MOVW R30,R16
00085b 940e 2c3b 	CALL SUBOPT_0x13
00085d e1ea      	LDI  R30,LOW(26)
00085e e0f0      	LDI  R31,HIGH(26)
00085f 93ed      	ST   X+,R30
000860 93fc      	ST   X,R31
                 ; 0000 03CA       komunikat_z_czytnika_kodow("86-1341",rzad,0);
                +
000861 e1e3     +LDI R30 , LOW ( 2 * _0x0 + ( 371 ) )
000862 e0f2     +LDI R31 , HIGH ( 2 * _0x0 + ( 371 ) )
                 	__POINTW1FN _0x0,371
000863 940e 2d2e 	CALL SUBOPT_0x36
000865 940e 2cad 	CALL SUBOPT_0x24
000867 dc84      	RCALL _komunikat_z_czytnika_kodow
                 ; 0000 03CB 
                 ; 0000 03CC     }
                 ; 0000 03CD if(PORT_CZYTNIK.byte == 0x1B)
                 _0x37:
000868 91a0 0502 	LDS  R26,_PORT_CZYTNIK
00086a 31ab      	CPI  R26,LOW(0x1B)
00086b f471      	BRNE _0x38
                 ; 0000 03CE     {
                 ; 0000 03CF       macierz_zaciskow[rzad]=27;
00086c 01f8      	MOVW R30,R16
00086d 940e 2c3b 	CALL SUBOPT_0x13
00086f e1eb      	LDI  R30,LOW(27)
000870 e0f0      	LDI  R31,HIGH(27)
000871 93ed      	ST   X+,R30
000872 93fc      	ST   X,R31
                 ; 0000 03D0       komunikat_z_czytnika_kodow("86-1833",rzad,0);
                +
000873 e1eb     +LDI R30 , LOW ( 2 * _0x0 + ( 379 ) )
000874 e0f2     +LDI R31 , HIGH ( 2 * _0x0 + ( 379 ) )
                 	__POINTW1FN _0x0,379
000875 940e 2d2e 	CALL SUBOPT_0x36
000877 940e 2cad 	CALL SUBOPT_0x24
000879 dc72      	RCALL _komunikat_z_czytnika_kodow
                 ; 0000 03D1 
                 ; 0000 03D2     }
                 ; 0000 03D3 if(PORT_CZYTNIK.byte == 0x1C)
                 _0x38:
00087a 91a0 0502 	LDS  R26,_PORT_CZYTNIK
00087c 31ac      	CPI  R26,LOW(0x1C)
00087d f469      	BRNE _0x39
                 ; 0000 03D4     {
                 ; 0000 03D5       macierz_zaciskow[rzad]=28;
00087e 01f8      	MOVW R30,R16
00087f 940e 2c3b 	CALL SUBOPT_0x13
000881 e1ec      	LDI  R30,LOW(28)
000882 e0f0      	LDI  R31,HIGH(28)
000883 93ed      	ST   X+,R30
000884 93fc      	ST   X,R31
                 ; 0000 03D6       komunikat_z_czytnika_kodow("86-2180",rzad,1);
                +
000885 e2e3     +LDI R30 , LOW ( 2 * _0x0 + ( 387 ) )
000886 e0f2     +LDI R31 , HIGH ( 2 * _0x0 + ( 387 ) )
                 	__POINTW1FN _0x0,387
000887 940e 2d2e 	CALL SUBOPT_0x36
000889 940e 2d33 	CALL SUBOPT_0x37
                 ; 0000 03D7 
                 ; 0000 03D8     }
                 ; 0000 03D9 if(PORT_CZYTNIK.byte == 0x1D)
                 _0x39:
00088b 91a0 0502 	LDS  R26,_PORT_CZYTNIK
00088d 31ad      	CPI  R26,LOW(0x1D)
00088e f469      	BRNE _0x3A
                 ; 0000 03DA     {
                 ; 0000 03DB       macierz_zaciskow[rzad]=29;
00088f 01f8      	MOVW R30,R16
000890 940e 2c3b 	CALL SUBOPT_0x13
000892 e1ed      	LDI  R30,LOW(29)
000893 e0f0      	LDI  R31,HIGH(29)
000894 93ed      	ST   X+,R30
000895 93fc      	ST   X,R31
                 ; 0000 03DC       komunikat_z_czytnika_kodow("87-0194",rzad,1);
                +
000896 e2eb     +LDI R30 , LOW ( 2 * _0x0 + ( 395 ) )
000897 e0f2     +LDI R31 , HIGH ( 2 * _0x0 + ( 395 ) )
                 	__POINTW1FN _0x0,395
000898 940e 2d2e 	CALL SUBOPT_0x36
00089a 940e 2d33 	CALL SUBOPT_0x37
                 ; 0000 03DD 
                 ; 0000 03DE     }
                 ; 0000 03DF 
                 ; 0000 03E0 if(PORT_CZYTNIK.byte == 0x1E)
                 _0x3A:
00089c 91a0 0502 	LDS  R26,_PORT_CZYTNIK
00089e 31ae      	CPI  R26,LOW(0x1E)
00089f f469      	BRNE _0x3B
                 ; 0000 03E1     {
                 ; 0000 03E2       macierz_zaciskow[rzad]=30;
0008a0 01f8      	MOVW R30,R16
0008a1 940e 2c3b 	CALL SUBOPT_0x13
0008a3 e1ee      	LDI  R30,LOW(30)
0008a4 e0f0      	LDI  R31,HIGH(30)
0008a5 93ed      	ST   X+,R30
0008a6 93fc      	ST   X,R31
                 ; 0000 03E3       komunikat_z_czytnika_kodow("87-1341",rzad,1);
                +
0008a7 e3e3     +LDI R30 , LOW ( 2 * _0x0 + ( 403 ) )
0008a8 e0f2     +LDI R31 , HIGH ( 2 * _0x0 + ( 403 ) )
                 	__POINTW1FN _0x0,403
0008a9 940e 2d2e 	CALL SUBOPT_0x36
0008ab 940e 2d33 	CALL SUBOPT_0x37
                 ; 0000 03E4 
                 ; 0000 03E5     }
                 ; 0000 03E6 if(PORT_CZYTNIK.byte == 0x1F)
                 _0x3B:
0008ad 91a0 0502 	LDS  R26,_PORT_CZYTNIK
0008af 31af      	CPI  R26,LOW(0x1F)
0008b0 f469      	BRNE _0x3C
                 ; 0000 03E7     {
                 ; 0000 03E8       macierz_zaciskow[rzad]=31;
0008b1 01f8      	MOVW R30,R16
0008b2 940e 2c3b 	CALL SUBOPT_0x13
0008b4 e1ef      	LDI  R30,LOW(31)
0008b5 e0f0      	LDI  R31,HIGH(31)
0008b6 93ed      	ST   X+,R30
0008b7 93fc      	ST   X,R31
                 ; 0000 03E9       komunikat_z_czytnika_kodow("87-1833",rzad,1);
                +
0008b8 e3eb     +LDI R30 , LOW ( 2 * _0x0 + ( 411 ) )
0008b9 e0f2     +LDI R31 , HIGH ( 2 * _0x0 + ( 411 ) )
                 	__POINTW1FN _0x0,411
0008ba 940e 2d2e 	CALL SUBOPT_0x36
0008bc 940e 2d33 	CALL SUBOPT_0x37
                 ; 0000 03EA 
                 ; 0000 03EB     }
                 ; 0000 03EC 
                 ; 0000 03ED if(PORT_CZYTNIK.byte == 0x20)
                 _0x3C:
0008be 91a0 0502 	LDS  R26,_PORT_CZYTNIK
0008c0 32a0      	CPI  R26,LOW(0x20)
0008c1 f471      	BRNE _0x3D
                 ; 0000 03EE     {
                 ; 0000 03EF       macierz_zaciskow[rzad]=32;
0008c2 01f8      	MOVW R30,R16
0008c3 940e 2c3b 	CALL SUBOPT_0x13
0008c5 e2e0      	LDI  R30,LOW(32)
0008c6 e0f0      	LDI  R31,HIGH(32)
0008c7 93ed      	ST   X+,R30
0008c8 93fc      	ST   X,R31
                 ; 0000 03F0       komunikat_z_czytnika_kodow("87-2180",rzad,0);
                +
0008c9 e4e3     +LDI R30 , LOW ( 2 * _0x0 + ( 419 ) )
0008ca e0f2     +LDI R31 , HIGH ( 2 * _0x0 + ( 419 ) )
                 	__POINTW1FN _0x0,419
0008cb 940e 2d2e 	CALL SUBOPT_0x36
0008cd 940e 2cad 	CALL SUBOPT_0x24
0008cf dc1c      	RCALL _komunikat_z_czytnika_kodow
                 ; 0000 03F1 
                 ; 0000 03F2     }
                 ; 0000 03F3 if(PORT_CZYTNIK.byte == 0x21)
                 _0x3D:
0008d0 91a0 0502 	LDS  R26,_PORT_CZYTNIK
0008d2 32a1      	CPI  R26,LOW(0x21)
0008d3 f469      	BRNE _0x3E
                 ; 0000 03F4     {
                 ; 0000 03F5       macierz_zaciskow[rzad]=33;
0008d4 01f8      	MOVW R30,R16
0008d5 940e 2c3b 	CALL SUBOPT_0x13
0008d7 e2e1      	LDI  R30,LOW(33)
0008d8 e0f0      	LDI  R31,HIGH(33)
0008d9 93ed      	ST   X+,R30
0008da 93fc      	ST   X,R31
                 ; 0000 03F6       komunikat_z_czytnika_kodow("86-0663",rzad,1);
                +
0008db e4eb     +LDI R30 , LOW ( 2 * _0x0 + ( 427 ) )
0008dc e0f2     +LDI R31 , HIGH ( 2 * _0x0 + ( 427 ) )
                 	__POINTW1FN _0x0,427
0008dd 940e 2d2e 	CALL SUBOPT_0x36
0008df 940e 2d33 	CALL SUBOPT_0x37
                 ; 0000 03F7 
                 ; 0000 03F8     }
                 ; 0000 03F9 
                 ; 0000 03FA if(PORT_CZYTNIK.byte == 0x22)
                 _0x3E:
0008e1 91a0 0502 	LDS  R26,_PORT_CZYTNIK
0008e3 32a2      	CPI  R26,LOW(0x22)
0008e4 f471      	BRNE _0x3F
                 ; 0000 03FB     {
                 ; 0000 03FC       macierz_zaciskow[rzad]=34;
0008e5 01f8      	MOVW R30,R16
0008e6 940e 2c3b 	CALL SUBOPT_0x13
0008e8 e2e2      	LDI  R30,LOW(34)
0008e9 e0f0      	LDI  R31,HIGH(34)
0008ea 93ed      	ST   X+,R30
0008eb 93fc      	ST   X,R31
                 ; 0000 03FD       komunikat_z_czytnika_kodow("86-1349",rzad,0);
                +
0008ec e5e3     +LDI R30 , LOW ( 2 * _0x0 + ( 435 ) )
0008ed e0f2     +LDI R31 , HIGH ( 2 * _0x0 + ( 435 ) )
                 	__POINTW1FN _0x0,435
0008ee 940e 2d2e 	CALL SUBOPT_0x36
0008f0 940e 2cad 	CALL SUBOPT_0x24
0008f2 dbf9      	RCALL _komunikat_z_czytnika_kodow
                 ; 0000 03FE 
                 ; 0000 03FF     }
                 ; 0000 0400 if(PORT_CZYTNIK.byte == 0x23)
                 _0x3F:
0008f3 91a0 0502 	LDS  R26,_PORT_CZYTNIK
0008f5 32a3      	CPI  R26,LOW(0x23)
0008f6 f471      	BRNE _0x40
                 ; 0000 0401     {
                 ; 0000 0402       macierz_zaciskow[rzad]=35;
0008f7 01f8      	MOVW R30,R16
0008f8 940e 2c3b 	CALL SUBOPT_0x13
0008fa e2e3      	LDI  R30,LOW(35)
0008fb e0f0      	LDI  R31,HIGH(35)
0008fc 93ed      	ST   X+,R30
0008fd 93fc      	ST   X,R31
                 ; 0000 0403       komunikat_z_czytnika_kodow("86-1834",rzad,0);
                +
0008fe e5eb     +LDI R30 , LOW ( 2 * _0x0 + ( 443 ) )
0008ff e0f2     +LDI R31 , HIGH ( 2 * _0x0 + ( 443 ) )
                 	__POINTW1FN _0x0,443
000900 940e 2d2e 	CALL SUBOPT_0x36
000902 940e 2cad 	CALL SUBOPT_0x24
000904 dbe7      	RCALL _komunikat_z_czytnika_kodow
                 ; 0000 0404 
                 ; 0000 0405     }
                 ; 0000 0406 if(PORT_CZYTNIK.byte == 0x24)
                 _0x40:
000905 91a0 0502 	LDS  R26,_PORT_CZYTNIK
000907 32a4      	CPI  R26,LOW(0x24)
000908 f471      	BRNE _0x41
                 ; 0000 0407     {
                 ; 0000 0408       macierz_zaciskow[rzad]=36;
000909 01f8      	MOVW R30,R16
00090a 940e 2c3b 	CALL SUBOPT_0x13
00090c e2e4      	LDI  R30,LOW(36)
00090d e0f0      	LDI  R31,HIGH(36)
00090e 93ed      	ST   X+,R30
00090f 93fc      	ST   X,R31
                 ; 0000 0409       komunikat_z_czytnika_kodow("86-2204",rzad,0);
                +
000910 e6e3     +LDI R30 , LOW ( 2 * _0x0 + ( 451 ) )
000911 e0f2     +LDI R31 , HIGH ( 2 * _0x0 + ( 451 ) )
                 	__POINTW1FN _0x0,451
000912 940e 2d2e 	CALL SUBOPT_0x36
000914 940e 2cad 	CALL SUBOPT_0x24
000916 dbd5      	RCALL _komunikat_z_czytnika_kodow
                 ; 0000 040A 
                 ; 0000 040B     }
                 ; 0000 040C if(PORT_CZYTNIK.byte == 0x25)
                 _0x41:
000917 91a0 0502 	LDS  R26,_PORT_CZYTNIK
000919 32a5      	CPI  R26,LOW(0x25)
00091a f471      	BRNE _0x42
                 ; 0000 040D     {
                 ; 0000 040E       macierz_zaciskow[rzad]=37;
00091b 01f8      	MOVW R30,R16
00091c 940e 2c3b 	CALL SUBOPT_0x13
00091e e2e5      	LDI  R30,LOW(37)
00091f e0f0      	LDI  R31,HIGH(37)
000920 93ed      	ST   X+,R30
000921 93fc      	ST   X,R31
                 ; 0000 040F       komunikat_z_czytnika_kodow("87-0663",rzad,0);
                +
000922 e6eb     +LDI R30 , LOW ( 2 * _0x0 + ( 459 ) )
000923 e0f2     +LDI R31 , HIGH ( 2 * _0x0 + ( 459 ) )
                 	__POINTW1FN _0x0,459
000924 940e 2d2e 	CALL SUBOPT_0x36
000926 940e 2cad 	CALL SUBOPT_0x24
000928 dbc3      	RCALL _komunikat_z_czytnika_kodow
                 ; 0000 0410 
                 ; 0000 0411     }
                 ; 0000 0412 if(PORT_CZYTNIK.byte == 0x26)
                 _0x42:
000929 91a0 0502 	LDS  R26,_PORT_CZYTNIK
00092b 32a6      	CPI  R26,LOW(0x26)
00092c f469      	BRNE _0x43
                 ; 0000 0413     {
                 ; 0000 0414       macierz_zaciskow[rzad]=38;
00092d 01f8      	MOVW R30,R16
00092e 940e 2c3b 	CALL SUBOPT_0x13
000930 e2e6      	LDI  R30,LOW(38)
000931 e0f0      	LDI  R31,HIGH(38)
000932 93ed      	ST   X+,R30
000933 93fc      	ST   X,R31
                 ; 0000 0415       komunikat_z_czytnika_kodow("87-1349",rzad,1);
                +
000934 e7e3     +LDI R30 , LOW ( 2 * _0x0 + ( 467 ) )
000935 e0f2     +LDI R31 , HIGH ( 2 * _0x0 + ( 467 ) )
                 	__POINTW1FN _0x0,467
000936 940e 2d2e 	CALL SUBOPT_0x36
000938 940e 2d33 	CALL SUBOPT_0x37
                 ; 0000 0416 
                 ; 0000 0417     }
                 ; 0000 0418 if(PORT_CZYTNIK.byte == 0x27)
                 _0x43:
00093a 91a0 0502 	LDS  R26,_PORT_CZYTNIK
00093c 32a7      	CPI  R26,LOW(0x27)
00093d f469      	BRNE _0x44
                 ; 0000 0419     {
                 ; 0000 041A       macierz_zaciskow[rzad]=39;
00093e 01f8      	MOVW R30,R16
00093f 940e 2c3b 	CALL SUBOPT_0x13
000941 e2e7      	LDI  R30,LOW(39)
000942 e0f0      	LDI  R31,HIGH(39)
000943 93ed      	ST   X+,R30
000944 93fc      	ST   X,R31
                 ; 0000 041B       komunikat_z_czytnika_kodow("87-1834",rzad,1);
                +
000945 e7eb     +LDI R30 , LOW ( 2 * _0x0 + ( 475 ) )
000946 e0f2     +LDI R31 , HIGH ( 2 * _0x0 + ( 475 ) )
                 	__POINTW1FN _0x0,475
000947 940e 2d2e 	CALL SUBOPT_0x36
000949 940e 2d33 	CALL SUBOPT_0x37
                 ; 0000 041C 
                 ; 0000 041D     }
                 ; 0000 041E if(PORT_CZYTNIK.byte == 0x28)
                 _0x44:
00094b 91a0 0502 	LDS  R26,_PORT_CZYTNIK
00094d 32a8      	CPI  R26,LOW(0x28)
00094e f469      	BRNE _0x45
                 ; 0000 041F     {
                 ; 0000 0420       macierz_zaciskow[rzad]=40;
00094f 01f8      	MOVW R30,R16
000950 940e 2c3b 	CALL SUBOPT_0x13
000952 e2e8      	LDI  R30,LOW(40)
000953 e0f0      	LDI  R31,HIGH(40)
000954 93ed      	ST   X+,R30
000955 93fc      	ST   X,R31
                 ; 0000 0421       komunikat_z_czytnika_kodow("87-2204",rzad,1);
                +
000956 e8e3     +LDI R30 , LOW ( 2 * _0x0 + ( 483 ) )
000957 e0f2     +LDI R31 , HIGH ( 2 * _0x0 + ( 483 ) )
                 	__POINTW1FN _0x0,483
000958 940e 2d2e 	CALL SUBOPT_0x36
00095a 940e 2d33 	CALL SUBOPT_0x37
                 ; 0000 0422 
                 ; 0000 0423     }
                 ; 0000 0424 if(PORT_CZYTNIK.byte == 0x29)
                 _0x45:
00095c 91a0 0502 	LDS  R26,_PORT_CZYTNIK
00095e 32a9      	CPI  R26,LOW(0x29)
00095f f469      	BRNE _0x46
                 ; 0000 0425     {
                 ; 0000 0426       macierz_zaciskow[rzad]=41;
000960 01f8      	MOVW R30,R16
000961 940e 2c3b 	CALL SUBOPT_0x13
000963 e2e9      	LDI  R30,LOW(41)
000964 e0f0      	LDI  R31,HIGH(41)
000965 93ed      	ST   X+,R30
000966 93fc      	ST   X,R31
                 ; 0000 0427       komunikat_z_czytnika_kodow("86-0768",rzad,1);
                +
000967 e8eb     +LDI R30 , LOW ( 2 * _0x0 + ( 491 ) )
000968 e0f2     +LDI R31 , HIGH ( 2 * _0x0 + ( 491 ) )
                 	__POINTW1FN _0x0,491
000969 940e 2d2e 	CALL SUBOPT_0x36
00096b 940e 2d33 	CALL SUBOPT_0x37
                 ; 0000 0428 
                 ; 0000 0429     }
                 ; 0000 042A if(PORT_CZYTNIK.byte == 0x2A)
                 _0x46:
00096d 91a0 0502 	LDS  R26,_PORT_CZYTNIK
00096f 32aa      	CPI  R26,LOW(0x2A)
000970 f471      	BRNE _0x47
                 ; 0000 042B     {
                 ; 0000 042C       macierz_zaciskow[rzad]=42;
000971 01f8      	MOVW R30,R16
000972 940e 2c3b 	CALL SUBOPT_0x13
000974 e2ea      	LDI  R30,LOW(42)
000975 e0f0      	LDI  R31,HIGH(42)
000976 93ed      	ST   X+,R30
000977 93fc      	ST   X,R31
                 ; 0000 042D       komunikat_z_czytnika_kodow("86-1357",rzad,0);
                +
000978 e9e3     +LDI R30 , LOW ( 2 * _0x0 + ( 499 ) )
000979 e0f2     +LDI R31 , HIGH ( 2 * _0x0 + ( 499 ) )
                 	__POINTW1FN _0x0,499
00097a 940e 2d2e 	CALL SUBOPT_0x36
00097c 940e 2cad 	CALL SUBOPT_0x24
00097e db6d      	RCALL _komunikat_z_czytnika_kodow
                 ; 0000 042E 
                 ; 0000 042F     }
                 ; 0000 0430 if(PORT_CZYTNIK.byte == 0x2B)
                 _0x47:
00097f 91a0 0502 	LDS  R26,_PORT_CZYTNIK
000981 32ab      	CPI  R26,LOW(0x2B)
000982 f471      	BRNE _0x48
                 ; 0000 0431     {
                 ; 0000 0432       macierz_zaciskow[rzad]=43;
000983 01f8      	MOVW R30,R16
000984 940e 2c3b 	CALL SUBOPT_0x13
000986 e2eb      	LDI  R30,LOW(43)
000987 e0f0      	LDI  R31,HIGH(43)
000988 93ed      	ST   X+,R30
000989 93fc      	ST   X,R31
                 ; 0000 0433       komunikat_z_czytnika_kodow("86-1848",rzad,0);
                +
00098a e9eb     +LDI R30 , LOW ( 2 * _0x0 + ( 507 ) )
00098b e0f2     +LDI R31 , HIGH ( 2 * _0x0 + ( 507 ) )
                 	__POINTW1FN _0x0,507
00098c 940e 2d2e 	CALL SUBOPT_0x36
00098e 940e 2cad 	CALL SUBOPT_0x24
000990 db5b      	RCALL _komunikat_z_czytnika_kodow
                 ; 0000 0434 
                 ; 0000 0435     }
                 ; 0000 0436 if(PORT_CZYTNIK.byte == 0x2C)
                 _0x48:
000991 91a0 0502 	LDS  R26,_PORT_CZYTNIK
000993 32ac      	CPI  R26,LOW(0x2C)
000994 f481      	BRNE _0x49
                 ; 0000 0437     {
                 ; 0000 0438      macierz_zaciskow[rzad]=44;
000995 01f8      	MOVW R30,R16
000996 940e 2c3b 	CALL SUBOPT_0x13
000998 e2ec      	LDI  R30,LOW(44)
000999 e0f0      	LDI  R31,HIGH(44)
00099a 940e 2d39 	CALL SUBOPT_0x38
                 ; 0000 0439       macierz_zaciskow[rzad]=0;   ////////////////////////////////////////////////////brak zacisku
00099c 940e 2d3d 	CALL SUBOPT_0x39
                 ; 0000 043A 
                 ; 0000 043B      komunikat_z_czytnika_kodow("86-2212",rzad,0);
                +
00099e eae3     +LDI R30 , LOW ( 2 * _0x0 + ( 515 ) )
00099f e0f2     +LDI R31 , HIGH ( 2 * _0x0 + ( 515 ) )
                 	__POINTW1FN _0x0,515
0009a0 940e 2d2e 	CALL SUBOPT_0x36
0009a2 940e 2cad 	CALL SUBOPT_0x24
0009a4 db47      	RCALL _komunikat_z_czytnika_kodow
                 ; 0000 043C 
                 ; 0000 043D     }
                 ; 0000 043E if(PORT_CZYTNIK.byte == 0x2D)
                 _0x49:
0009a5 91a0 0502 	LDS  R26,_PORT_CZYTNIK
0009a7 32ad      	CPI  R26,LOW(0x2D)
0009a8 f471      	BRNE _0x4A
                 ; 0000 043F     {
                 ; 0000 0440       macierz_zaciskow[rzad]=45;
0009a9 01f8      	MOVW R30,R16
0009aa 940e 2c3b 	CALL SUBOPT_0x13
0009ac e2ed      	LDI  R30,LOW(45)
0009ad e0f0      	LDI  R31,HIGH(45)
0009ae 93ed      	ST   X+,R30
0009af 93fc      	ST   X,R31
                 ; 0000 0441       komunikat_z_czytnika_kodow("87-0768",rzad,0);
                +
0009b0 eaeb     +LDI R30 , LOW ( 2 * _0x0 + ( 523 ) )
0009b1 e0f2     +LDI R31 , HIGH ( 2 * _0x0 + ( 523 ) )
                 	__POINTW1FN _0x0,523
0009b2 940e 2d2e 	CALL SUBOPT_0x36
0009b4 940e 2cad 	CALL SUBOPT_0x24
0009b6 db35      	RCALL _komunikat_z_czytnika_kodow
                 ; 0000 0442 
                 ; 0000 0443     }
                 ; 0000 0444 if(PORT_CZYTNIK.byte == 0x2E)
                 _0x4A:
0009b7 91a0 0502 	LDS  R26,_PORT_CZYTNIK
0009b9 32ae      	CPI  R26,LOW(0x2E)
0009ba f469      	BRNE _0x4B
                 ; 0000 0445     {
                 ; 0000 0446       macierz_zaciskow[rzad]=46;
0009bb 01f8      	MOVW R30,R16
0009bc 940e 2c3b 	CALL SUBOPT_0x13
0009be e2ee      	LDI  R30,LOW(46)
0009bf e0f0      	LDI  R31,HIGH(46)
0009c0 93ed      	ST   X+,R30
0009c1 93fc      	ST   X,R31
                 ; 0000 0447       komunikat_z_czytnika_kodow("87-1357",rzad,1);
                +
0009c2 ebe3     +LDI R30 , LOW ( 2 * _0x0 + ( 531 ) )
0009c3 e0f2     +LDI R31 , HIGH ( 2 * _0x0 + ( 531 ) )
                 	__POINTW1FN _0x0,531
0009c4 940e 2d2e 	CALL SUBOPT_0x36
0009c6 940e 2d33 	CALL SUBOPT_0x37
                 ; 0000 0448 
                 ; 0000 0449     }
                 ; 0000 044A if(PORT_CZYTNIK.byte == 0x2F)
                 _0x4B:
0009c8 91a0 0502 	LDS  R26,_PORT_CZYTNIK
0009ca 32af      	CPI  R26,LOW(0x2F)
0009cb f469      	BRNE _0x4C
                 ; 0000 044B     {
                 ; 0000 044C       macierz_zaciskow[rzad]=47;
0009cc 01f8      	MOVW R30,R16
0009cd 940e 2c3b 	CALL SUBOPT_0x13
0009cf e2ef      	LDI  R30,LOW(47)
0009d0 e0f0      	LDI  R31,HIGH(47)
0009d1 93ed      	ST   X+,R30
0009d2 93fc      	ST   X,R31
                 ; 0000 044D       komunikat_z_czytnika_kodow("87-1848",rzad,1);
                +
0009d3 ebeb     +LDI R30 , LOW ( 2 * _0x0 + ( 539 ) )
0009d4 e0f2     +LDI R31 , HIGH ( 2 * _0x0 + ( 539 ) )
                 	__POINTW1FN _0x0,539
0009d5 940e 2d2e 	CALL SUBOPT_0x36
0009d7 940e 2d33 	CALL SUBOPT_0x37
                 ; 0000 044E 
                 ; 0000 044F     }
                 ; 0000 0450 if(PORT_CZYTNIK.byte == 0x30)
                 _0x4C:
0009d9 91a0 0502 	LDS  R26,_PORT_CZYTNIK
0009db 33a0      	CPI  R26,LOW(0x30)
0009dc f479      	BRNE _0x4D
                 ; 0000 0451     {
                 ; 0000 0452       macierz_zaciskow[rzad]=48;
0009dd 01f8      	MOVW R30,R16
0009de 940e 2c3b 	CALL SUBOPT_0x13
0009e0 e3e0      	LDI  R30,LOW(48)
0009e1 e0f0      	LDI  R31,HIGH(48)
0009e2 940e 2d39 	CALL SUBOPT_0x38
                 ; 0000 0453       macierz_zaciskow[rzad]=0;    /////////////////////////////////////////////////brak zacisku
0009e4 940e 2d3d 	CALL SUBOPT_0x39
                 ; 0000 0454       komunikat_z_czytnika_kodow("87-2212",rzad,1);
                +
0009e6 ece3     +LDI R30 , LOW ( 2 * _0x0 + ( 547 ) )
0009e7 e0f2     +LDI R31 , HIGH ( 2 * _0x0 + ( 547 ) )
                 	__POINTW1FN _0x0,547
0009e8 940e 2d2e 	CALL SUBOPT_0x36
0009ea 940e 2d33 	CALL SUBOPT_0x37
                 ; 0000 0455 
                 ; 0000 0456     }
                 ; 0000 0457 if(PORT_CZYTNIK.byte == 0x31)
                 _0x4D:
0009ec 91a0 0502 	LDS  R26,_PORT_CZYTNIK
0009ee 33a1      	CPI  R26,LOW(0x31)
0009ef f471      	BRNE _0x4E
                 ; 0000 0458     {
                 ; 0000 0459       macierz_zaciskow[rzad]=49;
0009f0 01f8      	MOVW R30,R16
0009f1 940e 2c3b 	CALL SUBOPT_0x13
0009f3 e3e1      	LDI  R30,LOW(49)
0009f4 e0f0      	LDI  R31,HIGH(49)
0009f5 93ed      	ST   X+,R30
0009f6 93fc      	ST   X,R31
                 ; 0000 045A       komunikat_z_czytnika_kodow("86-0800",rzad,0);
                +
0009f7 eceb     +LDI R30 , LOW ( 2 * _0x0 + ( 555 ) )
0009f8 e0f2     +LDI R31 , HIGH ( 2 * _0x0 + ( 555 ) )
                 	__POINTW1FN _0x0,555
0009f9 940e 2d2e 	CALL SUBOPT_0x36
0009fb 940e 2cad 	CALL SUBOPT_0x24
0009fd daee      	RCALL _komunikat_z_czytnika_kodow
                 ; 0000 045B 
                 ; 0000 045C     }
                 ; 0000 045D if(PORT_CZYTNIK.byte == 0x32)
                 _0x4E:
0009fe 91a0 0502 	LDS  R26,_PORT_CZYTNIK
000a00 33a2      	CPI  R26,LOW(0x32)
000a01 f471      	BRNE _0x4F
                 ; 0000 045E     {
                 ; 0000 045F       macierz_zaciskow[rzad]=50;
000a02 01f8      	MOVW R30,R16
000a03 940e 2c3b 	CALL SUBOPT_0x13
000a05 e3e2      	LDI  R30,LOW(50)
000a06 e0f0      	LDI  R31,HIGH(50)
000a07 93ed      	ST   X+,R30
000a08 93fc      	ST   X,R31
                 ; 0000 0460       komunikat_z_czytnika_kodow("86-1363",rzad,0);
                +
000a09 ede3     +LDI R30 , LOW ( 2 * _0x0 + ( 563 ) )
000a0a e0f2     +LDI R31 , HIGH ( 2 * _0x0 + ( 563 ) )
                 	__POINTW1FN _0x0,563
000a0b 940e 2d2e 	CALL SUBOPT_0x36
000a0d 940e 2cad 	CALL SUBOPT_0x24
000a0f dadc      	RCALL _komunikat_z_czytnika_kodow
                 ; 0000 0461 
                 ; 0000 0462     }
                 ; 0000 0463 if(PORT_CZYTNIK.byte == 0x33)
                 _0x4F:
000a10 91a0 0502 	LDS  R26,_PORT_CZYTNIK
000a12 33a3      	CPI  R26,LOW(0x33)
000a13 f471      	BRNE _0x50
                 ; 0000 0464     {
                 ; 0000 0465       macierz_zaciskow[rzad]=51;
000a14 01f8      	MOVW R30,R16
000a15 940e 2c3b 	CALL SUBOPT_0x13
000a17 e3e3      	LDI  R30,LOW(51)
000a18 e0f0      	LDI  R31,HIGH(51)
000a19 93ed      	ST   X+,R30
000a1a 93fc      	ST   X,R31
                 ; 0000 0466       komunikat_z_czytnika_kodow("86-1904",rzad,0);
                +
000a1b edeb     +LDI R30 , LOW ( 2 * _0x0 + ( 571 ) )
000a1c e0f2     +LDI R31 , HIGH ( 2 * _0x0 + ( 571 ) )
                 	__POINTW1FN _0x0,571
000a1d 940e 2d2e 	CALL SUBOPT_0x36
000a1f 940e 2cad 	CALL SUBOPT_0x24
000a21 daca      	RCALL _komunikat_z_czytnika_kodow
                 ; 0000 0467 
                 ; 0000 0468     }
                 ; 0000 0469 if(PORT_CZYTNIK.byte == 0x34)
                 _0x50:
000a22 91a0 0502 	LDS  R26,_PORT_CZYTNIK
000a24 33a4      	CPI  R26,LOW(0x34)
000a25 f469      	BRNE _0x51
                 ; 0000 046A     {
                 ; 0000 046B       macierz_zaciskow[rzad]=52;
000a26 01f8      	MOVW R30,R16
000a27 940e 2c3b 	CALL SUBOPT_0x13
000a29 e3e4      	LDI  R30,LOW(52)
000a2a e0f0      	LDI  R31,HIGH(52)
000a2b 93ed      	ST   X+,R30
000a2c 93fc      	ST   X,R31
                 ; 0000 046C       komunikat_z_czytnika_kodow("86-2241",rzad,1);
                +
000a2d eee3     +LDI R30 , LOW ( 2 * _0x0 + ( 579 ) )
000a2e e0f2     +LDI R31 , HIGH ( 2 * _0x0 + ( 579 ) )
                 	__POINTW1FN _0x0,579
000a2f 940e 2d2e 	CALL SUBOPT_0x36
000a31 940e 2d33 	CALL SUBOPT_0x37
                 ; 0000 046D 
                 ; 0000 046E     }
                 ; 0000 046F if(PORT_CZYTNIK.byte == 0x35)
                 _0x51:
000a33 91a0 0502 	LDS  R26,_PORT_CZYTNIK
000a35 33a5      	CPI  R26,LOW(0x35)
000a36 f469      	BRNE _0x52
                 ; 0000 0470     {
                 ; 0000 0471       macierz_zaciskow[rzad]=53;
000a37 01f8      	MOVW R30,R16
000a38 940e 2c3b 	CALL SUBOPT_0x13
000a3a e3e5      	LDI  R30,LOW(53)
000a3b e0f0      	LDI  R31,HIGH(53)
000a3c 93ed      	ST   X+,R30
000a3d 93fc      	ST   X,R31
                 ; 0000 0472       komunikat_z_czytnika_kodow("87-0800",rzad,1);
                +
000a3e eeeb     +LDI R30 , LOW ( 2 * _0x0 + ( 587 ) )
000a3f e0f2     +LDI R31 , HIGH ( 2 * _0x0 + ( 587 ) )
                 	__POINTW1FN _0x0,587
000a40 940e 2d2e 	CALL SUBOPT_0x36
000a42 940e 2d33 	CALL SUBOPT_0x37
                 ; 0000 0473 
                 ; 0000 0474     }
                 ; 0000 0475 
                 ; 0000 0476 if(PORT_CZYTNIK.byte == 0x36)
                 _0x52:
000a44 91a0 0502 	LDS  R26,_PORT_CZYTNIK
000a46 33a6      	CPI  R26,LOW(0x36)
000a47 f469      	BRNE _0x53
                 ; 0000 0477     {
                 ; 0000 0478       macierz_zaciskow[rzad]=54;
000a48 01f8      	MOVW R30,R16
000a49 940e 2c3b 	CALL SUBOPT_0x13
000a4b e3e6      	LDI  R30,LOW(54)
000a4c e0f0      	LDI  R31,HIGH(54)
000a4d 93ed      	ST   X+,R30
000a4e 93fc      	ST   X,R31
                 ; 0000 0479       komunikat_z_czytnika_kodow("87-1363",rzad,1);
                +
000a4f efe3     +LDI R30 , LOW ( 2 * _0x0 + ( 595 ) )
000a50 e0f2     +LDI R31 , HIGH ( 2 * _0x0 + ( 595 ) )
                 	__POINTW1FN _0x0,595
000a51 940e 2d2e 	CALL SUBOPT_0x36
000a53 940e 2d33 	CALL SUBOPT_0x37
                 ; 0000 047A 
                 ; 0000 047B     }
                 ; 0000 047C if(PORT_CZYTNIK.byte == 0x37)
                 _0x53:
000a55 91a0 0502 	LDS  R26,_PORT_CZYTNIK
000a57 33a7      	CPI  R26,LOW(0x37)
000a58 f469      	BRNE _0x54
                 ; 0000 047D     {
                 ; 0000 047E       macierz_zaciskow[rzad]=55;
000a59 01f8      	MOVW R30,R16
000a5a 940e 2c3b 	CALL SUBOPT_0x13
000a5c e3e7      	LDI  R30,LOW(55)
000a5d e0f0      	LDI  R31,HIGH(55)
000a5e 93ed      	ST   X+,R30
000a5f 93fc      	ST   X,R31
                 ; 0000 047F       komunikat_z_czytnika_kodow("87-1904",rzad,1);
                +
000a60 efeb     +LDI R30 , LOW ( 2 * _0x0 + ( 603 ) )
000a61 e0f2     +LDI R31 , HIGH ( 2 * _0x0 + ( 603 ) )
                 	__POINTW1FN _0x0,603
000a62 940e 2d2e 	CALL SUBOPT_0x36
000a64 940e 2d33 	CALL SUBOPT_0x37
                 ; 0000 0480 
                 ; 0000 0481     }
                 ; 0000 0482 if(PORT_CZYTNIK.byte == 0x38)
                 _0x54:
000a66 91a0 0502 	LDS  R26,_PORT_CZYTNIK
000a68 33a8      	CPI  R26,LOW(0x38)
000a69 f471      	BRNE _0x55
                 ; 0000 0483     {
                 ; 0000 0484       macierz_zaciskow[rzad]=56;
000a6a 01f8      	MOVW R30,R16
000a6b 940e 2c3b 	CALL SUBOPT_0x13
000a6d e3e8      	LDI  R30,LOW(56)
000a6e e0f0      	LDI  R31,HIGH(56)
000a6f 93ed      	ST   X+,R30
000a70 93fc      	ST   X,R31
                 ; 0000 0485       komunikat_z_czytnika_kodow("87-2241",rzad,0);
                +
000a71 e0e3     +LDI R30 , LOW ( 2 * _0x0 + ( 611 ) )
000a72 e0f3     +LDI R31 , HIGH ( 2 * _0x0 + ( 611 ) )
                 	__POINTW1FN _0x0,611
000a73 940e 2d2e 	CALL SUBOPT_0x36
000a75 940e 2cad 	CALL SUBOPT_0x24
000a77 da74      	RCALL _komunikat_z_czytnika_kodow
                 ; 0000 0486 
                 ; 0000 0487     }
                 ; 0000 0488 if(PORT_CZYTNIK.byte == 0x39)
                 _0x55:
000a78 91a0 0502 	LDS  R26,_PORT_CZYTNIK
000a7a 33a9      	CPI  R26,LOW(0x39)
000a7b f471      	BRNE _0x56
                 ; 0000 0489     {
                 ; 0000 048A       macierz_zaciskow[rzad]=57;
000a7c 01f8      	MOVW R30,R16
000a7d 940e 2c3b 	CALL SUBOPT_0x13
000a7f e3e9      	LDI  R30,LOW(57)
000a80 e0f0      	LDI  R31,HIGH(57)
000a81 93ed      	ST   X+,R30
000a82 93fc      	ST   X,R31
                 ; 0000 048B       komunikat_z_czytnika_kodow("86-0811",rzad,0);
                +
000a83 e0eb     +LDI R30 , LOW ( 2 * _0x0 + ( 619 ) )
000a84 e0f3     +LDI R31 , HIGH ( 2 * _0x0 + ( 619 ) )
                 	__POINTW1FN _0x0,619
000a85 940e 2d2e 	CALL SUBOPT_0x36
000a87 940e 2cad 	CALL SUBOPT_0x24
000a89 da62      	RCALL _komunikat_z_czytnika_kodow
                 ; 0000 048C 
                 ; 0000 048D     }
                 ; 0000 048E if(PORT_CZYTNIK.byte == 0x3A)
                 _0x56:
000a8a 91a0 0502 	LDS  R26,_PORT_CZYTNIK
000a8c 33aa      	CPI  R26,LOW(0x3A)
000a8d f471      	BRNE _0x57
                 ; 0000 048F     {
                 ; 0000 0490       macierz_zaciskow[rzad]=58;
000a8e 01f8      	MOVW R30,R16
000a8f 940e 2c3b 	CALL SUBOPT_0x13
000a91 e3ea      	LDI  R30,LOW(58)
000a92 e0f0      	LDI  R31,HIGH(58)
000a93 93ed      	ST   X+,R30
000a94 93fc      	ST   X,R31
                 ; 0000 0491       komunikat_z_czytnika_kodow("86-1523",rzad,0);
                +
000a95 e1e3     +LDI R30 , LOW ( 2 * _0x0 + ( 627 ) )
000a96 e0f3     +LDI R31 , HIGH ( 2 * _0x0 + ( 627 ) )
                 	__POINTW1FN _0x0,627
000a97 940e 2d2e 	CALL SUBOPT_0x36
000a99 940e 2cad 	CALL SUBOPT_0x24
000a9b da50      	RCALL _komunikat_z_czytnika_kodow
                 ; 0000 0492 
                 ; 0000 0493     }
                 ; 0000 0494 if(PORT_CZYTNIK.byte == 0x3B)
                 _0x57:
000a9c 91a0 0502 	LDS  R26,_PORT_CZYTNIK
000a9e 33ab      	CPI  R26,LOW(0x3B)
000a9f f471      	BRNE _0x58
                 ; 0000 0495     {
                 ; 0000 0496       macierz_zaciskow[rzad]=59;
000aa0 01f8      	MOVW R30,R16
000aa1 940e 2c3b 	CALL SUBOPT_0x13
000aa3 e3eb      	LDI  R30,LOW(59)
000aa4 e0f0      	LDI  R31,HIGH(59)
000aa5 93ed      	ST   X+,R30
000aa6 93fc      	ST   X,R31
                 ; 0000 0497       komunikat_z_czytnika_kodow("86-1929",rzad,0);
                +
000aa7 e1eb     +LDI R30 , LOW ( 2 * _0x0 + ( 635 ) )
000aa8 e0f3     +LDI R31 , HIGH ( 2 * _0x0 + ( 635 ) )
                 	__POINTW1FN _0x0,635
000aa9 940e 2d2e 	CALL SUBOPT_0x36
000aab 940e 2cad 	CALL SUBOPT_0x24
000aad da3e      	RCALL _komunikat_z_czytnika_kodow
                 ; 0000 0498 
                 ; 0000 0499     }
                 ; 0000 049A if(PORT_CZYTNIK.byte == 0x3C)
                 _0x58:
000aae 91a0 0502 	LDS  R26,_PORT_CZYTNIK
000ab0 33ac      	CPI  R26,LOW(0x3C)
000ab1 f471      	BRNE _0x59
                 ; 0000 049B     {
                 ; 0000 049C       macierz_zaciskow[rzad]=60;
000ab2 01f8      	MOVW R30,R16
000ab3 940e 2c3b 	CALL SUBOPT_0x13
000ab5 e3ec      	LDI  R30,LOW(60)
000ab6 e0f0      	LDI  R31,HIGH(60)
000ab7 93ed      	ST   X+,R30
000ab8 93fc      	ST   X,R31
                 ; 0000 049D       komunikat_z_czytnika_kodow("86-2261",rzad,0);
                +
000ab9 e2e3     +LDI R30 , LOW ( 2 * _0x0 + ( 643 ) )
000aba e0f3     +LDI R31 , HIGH ( 2 * _0x0 + ( 643 ) )
                 	__POINTW1FN _0x0,643
000abb 940e 2d2e 	CALL SUBOPT_0x36
000abd 940e 2cad 	CALL SUBOPT_0x24
000abf da2c      	RCALL _komunikat_z_czytnika_kodow
                 ; 0000 049E 
                 ; 0000 049F     }
                 ; 0000 04A0 if(PORT_CZYTNIK.byte == 0x3D)
                 _0x59:
000ac0 91a0 0502 	LDS  R26,_PORT_CZYTNIK
000ac2 33ad      	CPI  R26,LOW(0x3D)
000ac3 f469      	BRNE _0x5A
                 ; 0000 04A1     {
                 ; 0000 04A2       macierz_zaciskow[rzad]=61;
000ac4 01f8      	MOVW R30,R16
000ac5 940e 2c3b 	CALL SUBOPT_0x13
000ac7 e3ed      	LDI  R30,LOW(61)
000ac8 e0f0      	LDI  R31,HIGH(61)
000ac9 93ed      	ST   X+,R30
000aca 93fc      	ST   X,R31
                 ; 0000 04A3       komunikat_z_czytnika_kodow("87-0811",rzad,1);
                +
000acb e2eb     +LDI R30 , LOW ( 2 * _0x0 + ( 651 ) )
000acc e0f3     +LDI R31 , HIGH ( 2 * _0x0 + ( 651 ) )
                 	__POINTW1FN _0x0,651
000acd 940e 2d2e 	CALL SUBOPT_0x36
000acf 940e 2d33 	CALL SUBOPT_0x37
                 ; 0000 04A4 
                 ; 0000 04A5     }
                 ; 0000 04A6 if(PORT_CZYTNIK.byte == 0x3E)
                 _0x5A:
000ad1 91a0 0502 	LDS  R26,_PORT_CZYTNIK
000ad3 33ae      	CPI  R26,LOW(0x3E)
000ad4 f469      	BRNE _0x5B
                 ; 0000 04A7     {
                 ; 0000 04A8       macierz_zaciskow[rzad]=62;
000ad5 01f8      	MOVW R30,R16
000ad6 940e 2c3b 	CALL SUBOPT_0x13
000ad8 e3ee      	LDI  R30,LOW(62)
000ad9 e0f0      	LDI  R31,HIGH(62)
000ada 93ed      	ST   X+,R30
000adb 93fc      	ST   X,R31
                 ; 0000 04A9       komunikat_z_czytnika_kodow("87-1523",rzad,1);
                +
000adc e3e3     +LDI R30 , LOW ( 2 * _0x0 + ( 659 ) )
000add e0f3     +LDI R31 , HIGH ( 2 * _0x0 + ( 659 ) )
                 	__POINTW1FN _0x0,659
000ade 940e 2d2e 	CALL SUBOPT_0x36
000ae0 940e 2d33 	CALL SUBOPT_0x37
                 ; 0000 04AA 
                 ; 0000 04AB     }
                 ; 0000 04AC if(PORT_CZYTNIK.byte == 0x3F)
                 _0x5B:
000ae2 91a0 0502 	LDS  R26,_PORT_CZYTNIK
000ae4 33af      	CPI  R26,LOW(0x3F)
000ae5 f469      	BRNE _0x5C
                 ; 0000 04AD     {
                 ; 0000 04AE       macierz_zaciskow[rzad]=63;
000ae6 01f8      	MOVW R30,R16
000ae7 940e 2c3b 	CALL SUBOPT_0x13
000ae9 e3ef      	LDI  R30,LOW(63)
000aea e0f0      	LDI  R31,HIGH(63)
000aeb 93ed      	ST   X+,R30
000aec 93fc      	ST   X,R31
                 ; 0000 04AF       komunikat_z_czytnika_kodow("87-1929",rzad,1);
                +
000aed e3eb     +LDI R30 , LOW ( 2 * _0x0 + ( 667 ) )
000aee e0f3     +LDI R31 , HIGH ( 2 * _0x0 + ( 667 ) )
                 	__POINTW1FN _0x0,667
000aef 940e 2d2e 	CALL SUBOPT_0x36
000af1 940e 2d33 	CALL SUBOPT_0x37
                 ; 0000 04B0 
                 ; 0000 04B1     }
                 ; 0000 04B2 if(PORT_CZYTNIK.byte == 0x40)
                 _0x5C:
000af3 91a0 0502 	LDS  R26,_PORT_CZYTNIK
000af5 34a0      	CPI  R26,LOW(0x40)
000af6 f469      	BRNE _0x5D
                 ; 0000 04B3     {
                 ; 0000 04B4       macierz_zaciskow[rzad]=64;
000af7 01f8      	MOVW R30,R16
000af8 940e 2c3b 	CALL SUBOPT_0x13
000afa e4e0      	LDI  R30,LOW(64)
000afb e0f0      	LDI  R31,HIGH(64)
000afc 93ed      	ST   X+,R30
000afd 93fc      	ST   X,R31
                 ; 0000 04B5       komunikat_z_czytnika_kodow("87-2261",rzad,1);
                +
000afe e4e3     +LDI R30 , LOW ( 2 * _0x0 + ( 675 ) )
000aff e0f3     +LDI R31 , HIGH ( 2 * _0x0 + ( 675 ) )
                 	__POINTW1FN _0x0,675
000b00 940e 2d2e 	CALL SUBOPT_0x36
000b02 940e 2d33 	CALL SUBOPT_0x37
                 ; 0000 04B6 
                 ; 0000 04B7     }
                 ; 0000 04B8 if(PORT_CZYTNIK.byte == 0x41)
                 _0x5D:
000b04 91a0 0502 	LDS  R26,_PORT_CZYTNIK
000b06 34a1      	CPI  R26,LOW(0x41)
000b07 f471      	BRNE _0x5E
                 ; 0000 04B9     {
                 ; 0000 04BA       macierz_zaciskow[rzad]=65;
000b08 01f8      	MOVW R30,R16
000b09 940e 2c3b 	CALL SUBOPT_0x13
000b0b e4e1      	LDI  R30,LOW(65)
000b0c e0f0      	LDI  R31,HIGH(65)
000b0d 93ed      	ST   X+,R30
000b0e 93fc      	ST   X,R31
                 ; 0000 04BB       komunikat_z_czytnika_kodow("86-0814",rzad,0);
                +
000b0f e4eb     +LDI R30 , LOW ( 2 * _0x0 + ( 683 ) )
000b10 e0f3     +LDI R31 , HIGH ( 2 * _0x0 + ( 683 ) )
                 	__POINTW1FN _0x0,683
000b11 940e 2d2e 	CALL SUBOPT_0x36
000b13 940e 2cad 	CALL SUBOPT_0x24
000b15 d9d6      	RCALL _komunikat_z_czytnika_kodow
                 ; 0000 04BC 
                 ; 0000 04BD     }
                 ; 0000 04BE if(PORT_CZYTNIK.byte == 0x42)
                 _0x5E:
000b16 91a0 0502 	LDS  R26,_PORT_CZYTNIK
000b18 34a2      	CPI  R26,LOW(0x42)
000b19 f469      	BRNE _0x5F
                 ; 0000 04BF     {
                 ; 0000 04C0       macierz_zaciskow[rzad]=66;
000b1a 01f8      	MOVW R30,R16
000b1b 940e 2c3b 	CALL SUBOPT_0x13
000b1d e4e2      	LDI  R30,LOW(66)
000b1e e0f0      	LDI  R31,HIGH(66)
000b1f 93ed      	ST   X+,R30
000b20 93fc      	ST   X,R31
                 ; 0000 04C1       komunikat_z_czytnika_kodow("86-1530",rzad,1);
                +
000b21 e5e3     +LDI R30 , LOW ( 2 * _0x0 + ( 691 ) )
000b22 e0f3     +LDI R31 , HIGH ( 2 * _0x0 + ( 691 ) )
                 	__POINTW1FN _0x0,691
000b23 940e 2d2e 	CALL SUBOPT_0x36
000b25 940e 2d33 	CALL SUBOPT_0x37
                 ; 0000 04C2 
                 ; 0000 04C3     }
                 ; 0000 04C4 if(PORT_CZYTNIK.byte == 0x43)
                 _0x5F:
000b27 91a0 0502 	LDS  R26,_PORT_CZYTNIK
000b29 34a3      	CPI  R26,LOW(0x43)
000b2a f469      	BRNE _0x60
                 ; 0000 04C5     {
                 ; 0000 04C6       macierz_zaciskow[rzad]=67;
000b2b 01f8      	MOVW R30,R16
000b2c 940e 2c3b 	CALL SUBOPT_0x13
000b2e e4e3      	LDI  R30,LOW(67)
000b2f e0f0      	LDI  R31,HIGH(67)
000b30 93ed      	ST   X+,R30
000b31 93fc      	ST   X,R31
                 ; 0000 04C7       komunikat_z_czytnika_kodow("86-1936",rzad,1);
                +
000b32 e5eb     +LDI R30 , LOW ( 2 * _0x0 + ( 699 ) )
000b33 e0f3     +LDI R31 , HIGH ( 2 * _0x0 + ( 699 ) )
                 	__POINTW1FN _0x0,699
000b34 940e 2d2e 	CALL SUBOPT_0x36
000b36 940e 2d33 	CALL SUBOPT_0x37
                 ; 0000 04C8 
                 ; 0000 04C9     }
                 ; 0000 04CA if(PORT_CZYTNIK.byte == 0x44)
                 _0x60:
000b38 91a0 0502 	LDS  R26,_PORT_CZYTNIK
000b3a 34a4      	CPI  R26,LOW(0x44)
000b3b f469      	BRNE _0x61
                 ; 0000 04CB     {
                 ; 0000 04CC       macierz_zaciskow[rzad]=68;
000b3c 01f8      	MOVW R30,R16
000b3d 940e 2c3b 	CALL SUBOPT_0x13
000b3f e4e4      	LDI  R30,LOW(68)
000b40 e0f0      	LDI  R31,HIGH(68)
000b41 93ed      	ST   X+,R30
000b42 93fc      	ST   X,R31
                 ; 0000 04CD       komunikat_z_czytnika_kodow("86-2285",rzad,1);
                +
000b43 e6e3     +LDI R30 , LOW ( 2 * _0x0 + ( 707 ) )
000b44 e0f3     +LDI R31 , HIGH ( 2 * _0x0 + ( 707 ) )
                 	__POINTW1FN _0x0,707
000b45 940e 2d2e 	CALL SUBOPT_0x36
000b47 940e 2d33 	CALL SUBOPT_0x37
                 ; 0000 04CE 
                 ; 0000 04CF     }
                 ; 0000 04D0 if(PORT_CZYTNIK.byte == 0x45)
                 _0x61:
000b49 91a0 0502 	LDS  R26,_PORT_CZYTNIK
000b4b 34a5      	CPI  R26,LOW(0x45)
000b4c f469      	BRNE _0x62
                 ; 0000 04D1     {
                 ; 0000 04D2       macierz_zaciskow[rzad]=69;
000b4d 01f8      	MOVW R30,R16
000b4e 940e 2c3b 	CALL SUBOPT_0x13
000b50 e4e5      	LDI  R30,LOW(69)
000b51 e0f0      	LDI  R31,HIGH(69)
000b52 93ed      	ST   X+,R30
000b53 93fc      	ST   X,R31
                 ; 0000 04D3       komunikat_z_czytnika_kodow("87-0814",rzad,1);
                +
000b54 e6eb     +LDI R30 , LOW ( 2 * _0x0 + ( 715 ) )
000b55 e0f3     +LDI R31 , HIGH ( 2 * _0x0 + ( 715 ) )
                 	__POINTW1FN _0x0,715
000b56 940e 2d2e 	CALL SUBOPT_0x36
000b58 940e 2d33 	CALL SUBOPT_0x37
                 ; 0000 04D4 
                 ; 0000 04D5     }
                 ; 0000 04D6 if(PORT_CZYTNIK.byte == 0x46)
                 _0x62:
000b5a 91a0 0502 	LDS  R26,_PORT_CZYTNIK
000b5c 34a6      	CPI  R26,LOW(0x46)
000b5d f471      	BRNE _0x63
                 ; 0000 04D7     {
                 ; 0000 04D8       macierz_zaciskow[rzad]=70;
000b5e 01f8      	MOVW R30,R16
000b5f 940e 2c3b 	CALL SUBOPT_0x13
000b61 e4e6      	LDI  R30,LOW(70)
000b62 e0f0      	LDI  R31,HIGH(70)
000b63 93ed      	ST   X+,R30
000b64 93fc      	ST   X,R31
                 ; 0000 04D9       komunikat_z_czytnika_kodow("87-1530",rzad,0);
                +
000b65 e7e3     +LDI R30 , LOW ( 2 * _0x0 + ( 723 ) )
000b66 e0f3     +LDI R31 , HIGH ( 2 * _0x0 + ( 723 ) )
                 	__POINTW1FN _0x0,723
000b67 940e 2d2e 	CALL SUBOPT_0x36
000b69 940e 2cad 	CALL SUBOPT_0x24
000b6b d980      	RCALL _komunikat_z_czytnika_kodow
                 ; 0000 04DA 
                 ; 0000 04DB     }
                 ; 0000 04DC if(PORT_CZYTNIK.byte == 0x47)
                 _0x63:
000b6c 91a0 0502 	LDS  R26,_PORT_CZYTNIK
000b6e 34a7      	CPI  R26,LOW(0x47)
000b6f f471      	BRNE _0x64
                 ; 0000 04DD     {
                 ; 0000 04DE       macierz_zaciskow[rzad]=71;
000b70 01f8      	MOVW R30,R16
000b71 940e 2c3b 	CALL SUBOPT_0x13
000b73 e4e7      	LDI  R30,LOW(71)
000b74 e0f0      	LDI  R31,HIGH(71)
000b75 93ed      	ST   X+,R30
000b76 93fc      	ST   X,R31
                 ; 0000 04DF       komunikat_z_czytnika_kodow("87-1936",rzad,0);
                +
000b77 e7eb     +LDI R30 , LOW ( 2 * _0x0 + ( 731 ) )
000b78 e0f3     +LDI R31 , HIGH ( 2 * _0x0 + ( 731 ) )
                 	__POINTW1FN _0x0,731
000b79 940e 2d2e 	CALL SUBOPT_0x36
000b7b 940e 2cad 	CALL SUBOPT_0x24
000b7d d96e      	RCALL _komunikat_z_czytnika_kodow
                 ; 0000 04E0 
                 ; 0000 04E1     }
                 ; 0000 04E2 if(PORT_CZYTNIK.byte == 0x48)
                 _0x64:
000b7e 91a0 0502 	LDS  R26,_PORT_CZYTNIK
000b80 34a8      	CPI  R26,LOW(0x48)
000b81 f471      	BRNE _0x65
                 ; 0000 04E3     {
                 ; 0000 04E4       macierz_zaciskow[rzad]=72;
000b82 01f8      	MOVW R30,R16
000b83 940e 2c3b 	CALL SUBOPT_0x13
000b85 e4e8      	LDI  R30,LOW(72)
000b86 e0f0      	LDI  R31,HIGH(72)
000b87 93ed      	ST   X+,R30
000b88 93fc      	ST   X,R31
                 ; 0000 04E5       komunikat_z_czytnika_kodow("87-2285",rzad,0);
                +
000b89 e8e3     +LDI R30 , LOW ( 2 * _0x0 + ( 739 ) )
000b8a e0f3     +LDI R31 , HIGH ( 2 * _0x0 + ( 739 ) )
                 	__POINTW1FN _0x0,739
000b8b 940e 2d2e 	CALL SUBOPT_0x36
000b8d 940e 2cad 	CALL SUBOPT_0x24
000b8f d95c      	RCALL _komunikat_z_czytnika_kodow
                 ; 0000 04E6 
                 ; 0000 04E7     }
                 ; 0000 04E8 if(PORT_CZYTNIK.byte == 0x49)
                 _0x65:
000b90 91a0 0502 	LDS  R26,_PORT_CZYTNIK
000b92 34a9      	CPI  R26,LOW(0x49)
000b93 f471      	BRNE _0x66
                 ; 0000 04E9     {
                 ; 0000 04EA       macierz_zaciskow[rzad]=73;
000b94 01f8      	MOVW R30,R16
000b95 940e 2c3b 	CALL SUBOPT_0x13
000b97 e4e9      	LDI  R30,LOW(73)
000b98 e0f0      	LDI  R31,HIGH(73)
000b99 93ed      	ST   X+,R30
000b9a 93fc      	ST   X,R31
                 ; 0000 04EB       komunikat_z_czytnika_kodow("86-0815",rzad,0);
                +
000b9b e8eb     +LDI R30 , LOW ( 2 * _0x0 + ( 747 ) )
000b9c e0f3     +LDI R31 , HIGH ( 2 * _0x0 + ( 747 ) )
                 	__POINTW1FN _0x0,747
000b9d 940e 2d2e 	CALL SUBOPT_0x36
000b9f 940e 2cad 	CALL SUBOPT_0x24
000ba1 d94a      	RCALL _komunikat_z_czytnika_kodow
                 ; 0000 04EC 
                 ; 0000 04ED     }
                 ; 0000 04EE 
                 ; 0000 04EF if(PORT_CZYTNIK.byte == 0x4A)
                 _0x66:
000ba2 91a0 0502 	LDS  R26,_PORT_CZYTNIK
000ba4 34aa      	CPI  R26,LOW(0x4A)
000ba5 f471      	BRNE _0x67
                 ; 0000 04F0     {
                 ; 0000 04F1       macierz_zaciskow[rzad]=74;
000ba6 01f8      	MOVW R30,R16
000ba7 940e 2c3b 	CALL SUBOPT_0x13
000ba9 e4ea      	LDI  R30,LOW(74)
000baa e0f0      	LDI  R31,HIGH(74)
000bab 93ed      	ST   X+,R30
000bac 93fc      	ST   X,R31
                 ; 0000 04F2       komunikat_z_czytnika_kodow("86-1551",rzad,0);
                +
000bad e9e3     +LDI R30 , LOW ( 2 * _0x0 + ( 755 ) )
000bae e0f3     +LDI R31 , HIGH ( 2 * _0x0 + ( 755 ) )
                 	__POINTW1FN _0x0,755
000baf 940e 2d2e 	CALL SUBOPT_0x36
000bb1 940e 2cad 	CALL SUBOPT_0x24
000bb3 d938      	RCALL _komunikat_z_czytnika_kodow
                 ; 0000 04F3 
                 ; 0000 04F4     }
                 ; 0000 04F5 if(PORT_CZYTNIK.byte == 0x4B)
                 _0x67:
000bb4 91a0 0502 	LDS  R26,_PORT_CZYTNIK
000bb6 34ab      	CPI  R26,LOW(0x4B)
000bb7 f471      	BRNE _0x68
                 ; 0000 04F6     {
                 ; 0000 04F7       macierz_zaciskow[rzad]=75;
000bb8 01f8      	MOVW R30,R16
000bb9 940e 2c3b 	CALL SUBOPT_0x13
000bbb e4eb      	LDI  R30,LOW(75)
000bbc e0f0      	LDI  R31,HIGH(75)
000bbd 93ed      	ST   X+,R30
000bbe 93fc      	ST   X,R31
                 ; 0000 04F8       komunikat_z_czytnika_kodow("86-1941",rzad,0);
                +
000bbf e9eb     +LDI R30 , LOW ( 2 * _0x0 + ( 763 ) )
000bc0 e0f3     +LDI R31 , HIGH ( 2 * _0x0 + ( 763 ) )
                 	__POINTW1FN _0x0,763
000bc1 940e 2d2e 	CALL SUBOPT_0x36
000bc3 940e 2cad 	CALL SUBOPT_0x24
000bc5 d926      	RCALL _komunikat_z_czytnika_kodow
                 ; 0000 04F9 
                 ; 0000 04FA     }
                 ; 0000 04FB if(PORT_CZYTNIK.byte == 0x4C)
                 _0x68:
000bc6 91a0 0502 	LDS  R26,_PORT_CZYTNIK
000bc8 34ac      	CPI  R26,LOW(0x4C)
000bc9 f481      	BRNE _0x69
                 ; 0000 04FC     {
                 ; 0000 04FD       macierz_zaciskow[rzad]=76;
000bca 01f8      	MOVW R30,R16
000bcb 940e 2c3b 	CALL SUBOPT_0x13
000bcd e4ec      	LDI  R30,LOW(76)
000bce e0f0      	LDI  R31,HIGH(76)
000bcf 940e 2d39 	CALL SUBOPT_0x38
                 ; 0000 04FE       macierz_zaciskow[rzad]=0;    ////////////////////////////////brak zacisku
000bd1 940e 2d3d 	CALL SUBOPT_0x39
                 ; 0000 04FF       komunikat_z_czytnika_kodow("86-2286",rzad,0);
                +
000bd3 eae3     +LDI R30 , LOW ( 2 * _0x0 + ( 771 ) )
000bd4 e0f3     +LDI R31 , HIGH ( 2 * _0x0 + ( 771 ) )
                 	__POINTW1FN _0x0,771
000bd5 940e 2d2e 	CALL SUBOPT_0x36
000bd7 940e 2cad 	CALL SUBOPT_0x24
000bd9 d912      	RCALL _komunikat_z_czytnika_kodow
                 ; 0000 0500 
                 ; 0000 0501     }
                 ; 0000 0502 if(PORT_CZYTNIK.byte == 0x4D)
                 _0x69:
000bda 91a0 0502 	LDS  R26,_PORT_CZYTNIK
000bdc 34ad      	CPI  R26,LOW(0x4D)
000bdd f469      	BRNE _0x6A
                 ; 0000 0503     {
                 ; 0000 0504       macierz_zaciskow[rzad]=77;
000bde 01f8      	MOVW R30,R16
000bdf 940e 2c3b 	CALL SUBOPT_0x13
000be1 e4ed      	LDI  R30,LOW(77)
000be2 e0f0      	LDI  R31,HIGH(77)
000be3 93ed      	ST   X+,R30
000be4 93fc      	ST   X,R31
                 ; 0000 0505       komunikat_z_czytnika_kodow("87-0815",rzad,1);
                +
000be5 eaeb     +LDI R30 , LOW ( 2 * _0x0 + ( 779 ) )
000be6 e0f3     +LDI R31 , HIGH ( 2 * _0x0 + ( 779 ) )
                 	__POINTW1FN _0x0,779
000be7 940e 2d2e 	CALL SUBOPT_0x36
000be9 940e 2d33 	CALL SUBOPT_0x37
                 ; 0000 0506 
                 ; 0000 0507     }
                 ; 0000 0508 if(PORT_CZYTNIK.byte == 0x4E)
                 _0x6A:
000beb 91a0 0502 	LDS  R26,_PORT_CZYTNIK
000bed 34ae      	CPI  R26,LOW(0x4E)
000bee f469      	BRNE _0x6B
                 ; 0000 0509     {
                 ; 0000 050A       macierz_zaciskow[rzad]=78;
000bef 01f8      	MOVW R30,R16
000bf0 940e 2c3b 	CALL SUBOPT_0x13
000bf2 e4ee      	LDI  R30,LOW(78)
000bf3 e0f0      	LDI  R31,HIGH(78)
000bf4 93ed      	ST   X+,R30
000bf5 93fc      	ST   X,R31
                 ; 0000 050B       komunikat_z_czytnika_kodow("87-1551",rzad,1);
                +
000bf6 ebe3     +LDI R30 , LOW ( 2 * _0x0 + ( 787 ) )
000bf7 e0f3     +LDI R31 , HIGH ( 2 * _0x0 + ( 787 ) )
                 	__POINTW1FN _0x0,787
000bf8 940e 2d2e 	CALL SUBOPT_0x36
000bfa 940e 2d33 	CALL SUBOPT_0x37
                 ; 0000 050C 
                 ; 0000 050D     }
                 ; 0000 050E if(PORT_CZYTNIK.byte == 0x4F)
                 _0x6B:
000bfc 91a0 0502 	LDS  R26,_PORT_CZYTNIK
000bfe 34af      	CPI  R26,LOW(0x4F)
000bff f469      	BRNE _0x6C
                 ; 0000 050F     {
                 ; 0000 0510       macierz_zaciskow[rzad]=79;
000c00 01f8      	MOVW R30,R16
000c01 940e 2c3b 	CALL SUBOPT_0x13
000c03 e4ef      	LDI  R30,LOW(79)
000c04 e0f0      	LDI  R31,HIGH(79)
000c05 93ed      	ST   X+,R30
000c06 93fc      	ST   X,R31
                 ; 0000 0511       komunikat_z_czytnika_kodow("87-1941",rzad,1);
                +
000c07 ebeb     +LDI R30 , LOW ( 2 * _0x0 + ( 795 ) )
000c08 e0f3     +LDI R31 , HIGH ( 2 * _0x0 + ( 795 ) )
                 	__POINTW1FN _0x0,795
000c09 940e 2d2e 	CALL SUBOPT_0x36
000c0b 940e 2d33 	CALL SUBOPT_0x37
                 ; 0000 0512 
                 ; 0000 0513     }
                 ; 0000 0514 if(PORT_CZYTNIK.byte == 0x50)
                 _0x6C:
000c0d 91a0 0502 	LDS  R26,_PORT_CZYTNIK
000c0f 35a0      	CPI  R26,LOW(0x50)
000c10 f481      	BRNE _0x6D
                 ; 0000 0515     {
                 ; 0000 0516       macierz_zaciskow[rzad]=80;
000c11 01f8      	MOVW R30,R16
000c12 940e 2c3b 	CALL SUBOPT_0x13
000c14 e5e0      	LDI  R30,LOW(80)
000c15 e0f0      	LDI  R31,HIGH(80)
000c16 940e 2d39 	CALL SUBOPT_0x38
                 ; 0000 0517       macierz_zaciskow[rzad]=0;  ////////////////////////////////////////////////////////////////////////brak zacisku
000c18 940e 2d3d 	CALL SUBOPT_0x39
                 ; 0000 0518       komunikat_z_czytnika_kodow("87-2286",rzad,0);
                +
000c1a ece3     +LDI R30 , LOW ( 2 * _0x0 + ( 803 ) )
000c1b e0f3     +LDI R31 , HIGH ( 2 * _0x0 + ( 803 ) )
                 	__POINTW1FN _0x0,803
000c1c 940e 2d2e 	CALL SUBOPT_0x36
000c1e 940e 2cad 	CALL SUBOPT_0x24
000c20 d8cb      	RCALL _komunikat_z_czytnika_kodow
                 ; 0000 0519 
                 ; 0000 051A     }
                 ; 0000 051B if(PORT_CZYTNIK.byte == 0x51)
                 _0x6D:
000c21 91a0 0502 	LDS  R26,_PORT_CZYTNIK
000c23 35a1      	CPI  R26,LOW(0x51)
000c24 f471      	BRNE _0x6E
                 ; 0000 051C     {
                 ; 0000 051D       macierz_zaciskow[rzad]=81;
000c25 01f8      	MOVW R30,R16
000c26 940e 2c3b 	CALL SUBOPT_0x13
000c28 e5e1      	LDI  R30,LOW(81)
000c29 e0f0      	LDI  R31,HIGH(81)
000c2a 93ed      	ST   X+,R30
000c2b 93fc      	ST   X,R31
                 ; 0000 051E       komunikat_z_czytnika_kodow("86-0816",rzad,0);
                +
000c2c eceb     +LDI R30 , LOW ( 2 * _0x0 + ( 811 ) )
000c2d e0f3     +LDI R31 , HIGH ( 2 * _0x0 + ( 811 ) )
                 	__POINTW1FN _0x0,811
000c2e 940e 2d2e 	CALL SUBOPT_0x36
000c30 940e 2cad 	CALL SUBOPT_0x24
000c32 d8b9      	RCALL _komunikat_z_czytnika_kodow
                 ; 0000 051F 
                 ; 0000 0520     }
                 ; 0000 0521 if(PORT_CZYTNIK.byte == 0x52)
                 _0x6E:
000c33 91a0 0502 	LDS  R26,_PORT_CZYTNIK
000c35 35a2      	CPI  R26,LOW(0x52)
000c36 f471      	BRNE _0x6F
                 ; 0000 0522     {
                 ; 0000 0523       macierz_zaciskow[rzad]=82;
000c37 01f8      	MOVW R30,R16
000c38 940e 2c3b 	CALL SUBOPT_0x13
000c3a e5e2      	LDI  R30,LOW(82)
000c3b e0f0      	LDI  R31,HIGH(82)
000c3c 93ed      	ST   X+,R30
000c3d 93fc      	ST   X,R31
                 ; 0000 0524       komunikat_z_czytnika_kodow("86-1552",rzad,0);
                +
000c3e ede3     +LDI R30 , LOW ( 2 * _0x0 + ( 819 ) )
000c3f e0f3     +LDI R31 , HIGH ( 2 * _0x0 + ( 819 ) )
                 	__POINTW1FN _0x0,819
000c40 940e 2d2e 	CALL SUBOPT_0x36
000c42 940e 2cad 	CALL SUBOPT_0x24
000c44 d8a7      	RCALL _komunikat_z_czytnika_kodow
                 ; 0000 0525 
                 ; 0000 0526     }
                 ; 0000 0527 if(PORT_CZYTNIK.byte == 0x53)
                 _0x6F:
000c45 91a0 0502 	LDS  R26,_PORT_CZYTNIK
000c47 35a3      	CPI  R26,LOW(0x53)
000c48 f469      	BRNE _0x70
                 ; 0000 0528     {
                 ; 0000 0529       macierz_zaciskow[rzad]=83;
000c49 01f8      	MOVW R30,R16
000c4a 940e 2c3b 	CALL SUBOPT_0x13
000c4c e5e3      	LDI  R30,LOW(83)
000c4d e0f0      	LDI  R31,HIGH(83)
000c4e 93ed      	ST   X+,R30
000c4f 93fc      	ST   X,R31
                 ; 0000 052A       komunikat_z_czytnika_kodow("86-2007",rzad,1);
                +
000c50 edeb     +LDI R30 , LOW ( 2 * _0x0 + ( 827 ) )
000c51 e0f3     +LDI R31 , HIGH ( 2 * _0x0 + ( 827 ) )
                 	__POINTW1FN _0x0,827
000c52 940e 2d2e 	CALL SUBOPT_0x36
000c54 940e 2d33 	CALL SUBOPT_0x37
                 ; 0000 052B 
                 ; 0000 052C     }
                 ; 0000 052D if(PORT_CZYTNIK.byte == 0x54)
                 _0x70:
000c56 91a0 0502 	LDS  R26,_PORT_CZYTNIK
000c58 35a4      	CPI  R26,LOW(0x54)
000c59 f469      	BRNE _0x71
                 ; 0000 052E     {
                 ; 0000 052F       macierz_zaciskow[rzad]=84;
000c5a 01f8      	MOVW R30,R16
000c5b 940e 2c3b 	CALL SUBOPT_0x13
000c5d e5e4      	LDI  R30,LOW(84)
000c5e e0f0      	LDI  R31,HIGH(84)
000c5f 93ed      	ST   X+,R30
000c60 93fc      	ST   X,R31
                 ; 0000 0530       komunikat_z_czytnika_kodow("86-2292",rzad,1);
                +
000c61 eee3     +LDI R30 , LOW ( 2 * _0x0 + ( 835 ) )
000c62 e0f3     +LDI R31 , HIGH ( 2 * _0x0 + ( 835 ) )
                 	__POINTW1FN _0x0,835
000c63 940e 2d2e 	CALL SUBOPT_0x36
000c65 940e 2d33 	CALL SUBOPT_0x37
                 ; 0000 0531 
                 ; 0000 0532     }
                 ; 0000 0533 if(PORT_CZYTNIK.byte == 0x55)
                 _0x71:
000c67 91a0 0502 	LDS  R26,_PORT_CZYTNIK
000c69 35a5      	CPI  R26,LOW(0x55)
000c6a f469      	BRNE _0x72
                 ; 0000 0534     {
                 ; 0000 0535       macierz_zaciskow[rzad]=85;
000c6b 01f8      	MOVW R30,R16
000c6c 940e 2c3b 	CALL SUBOPT_0x13
000c6e e5e5      	LDI  R30,LOW(85)
000c6f e0f0      	LDI  R31,HIGH(85)
000c70 93ed      	ST   X+,R30
000c71 93fc      	ST   X,R31
                 ; 0000 0536       komunikat_z_czytnika_kodow("87-0816",rzad,1);
                +
000c72 eeeb     +LDI R30 , LOW ( 2 * _0x0 + ( 843 ) )
000c73 e0f3     +LDI R31 , HIGH ( 2 * _0x0 + ( 843 ) )
                 	__POINTW1FN _0x0,843
000c74 940e 2d2e 	CALL SUBOPT_0x36
000c76 940e 2d33 	CALL SUBOPT_0x37
                 ; 0000 0537 
                 ; 0000 0538      }
                 ; 0000 0539 if(PORT_CZYTNIK.byte == 0x56)
                 _0x72:
000c78 91a0 0502 	LDS  R26,_PORT_CZYTNIK
000c7a 35a6      	CPI  R26,LOW(0x56)
000c7b f469      	BRNE _0x73
                 ; 0000 053A     {
                 ; 0000 053B       macierz_zaciskow[rzad]=86;
000c7c 01f8      	MOVW R30,R16
000c7d 940e 2c3b 	CALL SUBOPT_0x13
000c7f e5e6      	LDI  R30,LOW(86)
000c80 e0f0      	LDI  R31,HIGH(86)
000c81 93ed      	ST   X+,R30
000c82 93fc      	ST   X,R31
                 ; 0000 053C       komunikat_z_czytnika_kodow("87-1552",rzad,1);
                +
000c83 efe3     +LDI R30 , LOW ( 2 * _0x0 + ( 851 ) )
000c84 e0f3     +LDI R31 , HIGH ( 2 * _0x0 + ( 851 ) )
                 	__POINTW1FN _0x0,851
000c85 940e 2d2e 	CALL SUBOPT_0x36
000c87 940e 2d33 	CALL SUBOPT_0x37
                 ; 0000 053D 
                 ; 0000 053E     }
                 ; 0000 053F if(PORT_CZYTNIK.byte == 0x57)
                 _0x73:
000c89 91a0 0502 	LDS  R26,_PORT_CZYTNIK
000c8b 35a7      	CPI  R26,LOW(0x57)
000c8c f471      	BRNE _0x74
                 ; 0000 0540     {
                 ; 0000 0541       macierz_zaciskow[rzad]=87;
000c8d 01f8      	MOVW R30,R16
000c8e 940e 2c3b 	CALL SUBOPT_0x13
000c90 e5e7      	LDI  R30,LOW(87)
000c91 e0f0      	LDI  R31,HIGH(87)
000c92 93ed      	ST   X+,R30
000c93 93fc      	ST   X,R31
                 ; 0000 0542       komunikat_z_czytnika_kodow("87-2007",rzad,0);
                +
000c94 efeb     +LDI R30 , LOW ( 2 * _0x0 + ( 859 ) )
000c95 e0f3     +LDI R31 , HIGH ( 2 * _0x0 + ( 859 ) )
                 	__POINTW1FN _0x0,859
000c96 940e 2d2e 	CALL SUBOPT_0x36
000c98 940e 2cad 	CALL SUBOPT_0x24
000c9a d851      	RCALL _komunikat_z_czytnika_kodow
                 ; 0000 0543 
                 ; 0000 0544     }
                 ; 0000 0545 if(PORT_CZYTNIK.byte == 0x58)
                 _0x74:
000c9b 91a0 0502 	LDS  R26,_PORT_CZYTNIK
000c9d 35a8      	CPI  R26,LOW(0x58)
000c9e f471      	BRNE _0x75
                 ; 0000 0546     {
                 ; 0000 0547       macierz_zaciskow[rzad]=88;
000c9f 01f8      	MOVW R30,R16
000ca0 940e 2c3b 	CALL SUBOPT_0x13
000ca2 e5e8      	LDI  R30,LOW(88)
000ca3 e0f0      	LDI  R31,HIGH(88)
000ca4 93ed      	ST   X+,R30
000ca5 93fc      	ST   X,R31
                 ; 0000 0548       komunikat_z_czytnika_kodow("87-2292",rzad,0);
                +
000ca6 e0e3     +LDI R30 , LOW ( 2 * _0x0 + ( 867 ) )
000ca7 e0f4     +LDI R31 , HIGH ( 2 * _0x0 + ( 867 ) )
                 	__POINTW1FN _0x0,867
000ca8 940e 2d2e 	CALL SUBOPT_0x36
000caa 940e 2cad 	CALL SUBOPT_0x24
000cac d83f      	RCALL _komunikat_z_czytnika_kodow
                 ; 0000 0549 
                 ; 0000 054A     }
                 ; 0000 054B if(PORT_CZYTNIK.byte == 0x59)
                 _0x75:
000cad 91a0 0502 	LDS  R26,_PORT_CZYTNIK
000caf 35a9      	CPI  R26,LOW(0x59)
000cb0 f471      	BRNE _0x76
                 ; 0000 054C     {
                 ; 0000 054D       macierz_zaciskow[rzad]=89;
000cb1 01f8      	MOVW R30,R16
000cb2 940e 2c3b 	CALL SUBOPT_0x13
000cb4 e5e9      	LDI  R30,LOW(89)
000cb5 e0f0      	LDI  R31,HIGH(89)
000cb6 93ed      	ST   X+,R30
000cb7 93fc      	ST   X,R31
                 ; 0000 054E       komunikat_z_czytnika_kodow("86-0817",rzad,0);
                +
000cb8 e0eb     +LDI R30 , LOW ( 2 * _0x0 + ( 875 ) )
000cb9 e0f4     +LDI R31 , HIGH ( 2 * _0x0 + ( 875 ) )
                 	__POINTW1FN _0x0,875
000cba 940e 2d2e 	CALL SUBOPT_0x36
000cbc 940e 2cad 	CALL SUBOPT_0x24
000cbe d82d      	RCALL _komunikat_z_czytnika_kodow
                 ; 0000 054F 
                 ; 0000 0550     }
                 ; 0000 0551 if(PORT_CZYTNIK.byte == 0x5A)
                 _0x76:
000cbf 91a0 0502 	LDS  R26,_PORT_CZYTNIK
000cc1 35aa      	CPI  R26,LOW(0x5A)
000cc2 f469      	BRNE _0x77
                 ; 0000 0552     {
                 ; 0000 0553       macierz_zaciskow[rzad]=90;
000cc3 01f8      	MOVW R30,R16
000cc4 940e 2c3b 	CALL SUBOPT_0x13
000cc6 e5ea      	LDI  R30,LOW(90)
000cc7 e0f0      	LDI  R31,HIGH(90)
000cc8 93ed      	ST   X+,R30
000cc9 93fc      	ST   X,R31
                 ; 0000 0554       komunikat_z_czytnika_kodow("86-1602",rzad,1);
                +
000cca e1e3     +LDI R30 , LOW ( 2 * _0x0 + ( 883 ) )
000ccb e0f4     +LDI R31 , HIGH ( 2 * _0x0 + ( 883 ) )
                 	__POINTW1FN _0x0,883
000ccc 940e 2d2e 	CALL SUBOPT_0x36
000cce 940e 2d33 	CALL SUBOPT_0x37
                 ; 0000 0555 
                 ; 0000 0556     }
                 ; 0000 0557 if(PORT_CZYTNIK.byte == 0x5B)
                 _0x77:
000cd0 91a0 0502 	LDS  R26,_PORT_CZYTNIK
000cd2 35ab      	CPI  R26,LOW(0x5B)
000cd3 f469      	BRNE _0x78
                 ; 0000 0558     {
                 ; 0000 0559       macierz_zaciskow[rzad]=91;
000cd4 01f8      	MOVW R30,R16
000cd5 940e 2c3b 	CALL SUBOPT_0x13
000cd7 e5eb      	LDI  R30,LOW(91)
000cd8 e0f0      	LDI  R31,HIGH(91)
000cd9 93ed      	ST   X+,R30
000cda 93fc      	ST   X,R31
                 ; 0000 055A       komunikat_z_czytnika_kodow("86-2017",rzad,1);
                +
000cdb e1eb     +LDI R30 , LOW ( 2 * _0x0 + ( 891 ) )
000cdc e0f4     +LDI R31 , HIGH ( 2 * _0x0 + ( 891 ) )
                 	__POINTW1FN _0x0,891
000cdd 940e 2d2e 	CALL SUBOPT_0x36
000cdf 940e 2d33 	CALL SUBOPT_0x37
                 ; 0000 055B 
                 ; 0000 055C     }
                 ; 0000 055D if(PORT_CZYTNIK.byte == 0x5C)
                 _0x78:
000ce1 91a0 0502 	LDS  R26,_PORT_CZYTNIK
000ce3 35ac      	CPI  R26,LOW(0x5C)
000ce4 f489      	BRNE _0x79
                 ; 0000 055E     {
                 ; 0000 055F       macierz_zaciskow[rzad]=92;
000ce5 01f8      	MOVW R30,R16
000ce6 940e 2c3b 	CALL SUBOPT_0x13
000ce8 e5ec      	LDI  R30,LOW(92)
000ce9 e0f0      	LDI  R31,HIGH(92)
000cea 940e 2d39 	CALL SUBOPT_0x38
                 ; 0000 0560       macierz_zaciskow[rzad]=0;           /////////////////////////////////////////brak zacisku
000cec 940e 2d3d 	CALL SUBOPT_0x39
                 ; 0000 0561       komunikat_z_czytnika_kodow("86-2384",rzad,0);
                +
000cee e2e3     +LDI R30 , LOW ( 2 * _0x0 + ( 899 ) )
000cef e0f4     +LDI R31 , HIGH ( 2 * _0x0 + ( 899 ) )
                 	__POINTW1FN _0x0,899
000cf0 940e 2d2e 	CALL SUBOPT_0x36
000cf2 940e 2cad 	CALL SUBOPT_0x24
000cf4 940e 04ec 	CALL _komunikat_z_czytnika_kodow
                 ; 0000 0562 
                 ; 0000 0563     }
                 ; 0000 0564 if(PORT_CZYTNIK.byte == 0x5D)
                 _0x79:
000cf6 91a0 0502 	LDS  R26,_PORT_CZYTNIK
000cf8 35ad      	CPI  R26,LOW(0x5D)
000cf9 f469      	BRNE _0x7A
                 ; 0000 0565     {
                 ; 0000 0566       macierz_zaciskow[rzad]=93;
000cfa 01f8      	MOVW R30,R16
000cfb 940e 2c3b 	CALL SUBOPT_0x13
000cfd e5ed      	LDI  R30,LOW(93)
000cfe e0f0      	LDI  R31,HIGH(93)
000cff 93ed      	ST   X+,R30
000d00 93fc      	ST   X,R31
                 ; 0000 0567       komunikat_z_czytnika_kodow("87-0817",rzad,1);
                +
000d01 e2eb     +LDI R30 , LOW ( 2 * _0x0 + ( 907 ) )
000d02 e0f4     +LDI R31 , HIGH ( 2 * _0x0 + ( 907 ) )
                 	__POINTW1FN _0x0,907
000d03 940e 2d2e 	CALL SUBOPT_0x36
000d05 940e 2d33 	CALL SUBOPT_0x37
                 ; 0000 0568 
                 ; 0000 0569     }
                 ; 0000 056A if(PORT_CZYTNIK.byte == 0x5E)
                 _0x7A:
000d07 91a0 0502 	LDS  R26,_PORT_CZYTNIK
000d09 35ae      	CPI  R26,LOW(0x5E)
000d0a f479      	BRNE _0x7B
                 ; 0000 056B     {
                 ; 0000 056C       macierz_zaciskow[rzad]=94;
000d0b 01f8      	MOVW R30,R16
000d0c 940e 2c3b 	CALL SUBOPT_0x13
000d0e e5ee      	LDI  R30,LOW(94)
000d0f e0f0      	LDI  R31,HIGH(94)
000d10 93ed      	ST   X+,R30
000d11 93fc      	ST   X,R31
                 ; 0000 056D       komunikat_z_czytnika_kodow("87-1602",rzad,0);
                +
000d12 e3e3     +LDI R30 , LOW ( 2 * _0x0 + ( 915 ) )
000d13 e0f4     +LDI R31 , HIGH ( 2 * _0x0 + ( 915 ) )
                 	__POINTW1FN _0x0,915
000d14 940e 2d2e 	CALL SUBOPT_0x36
000d16 940e 2cad 	CALL SUBOPT_0x24
000d18 940e 04ec 	CALL _komunikat_z_czytnika_kodow
                 ; 0000 056E 
                 ; 0000 056F     }
                 ; 0000 0570 if(PORT_CZYTNIK.byte == 0x5F)
                 _0x7B:
000d1a 91a0 0502 	LDS  R26,_PORT_CZYTNIK
000d1c 35af      	CPI  R26,LOW(0x5F)
000d1d f479      	BRNE _0x7C
                 ; 0000 0571     {
                 ; 0000 0572       macierz_zaciskow[rzad]=95;
000d1e 01f8      	MOVW R30,R16
000d1f 940e 2c3b 	CALL SUBOPT_0x13
000d21 e5ef      	LDI  R30,LOW(95)
000d22 e0f0      	LDI  R31,HIGH(95)
000d23 93ed      	ST   X+,R30
000d24 93fc      	ST   X,R31
                 ; 0000 0573       komunikat_z_czytnika_kodow("87-2017",rzad,0);
                +
000d25 e3eb     +LDI R30 , LOW ( 2 * _0x0 + ( 923 ) )
000d26 e0f4     +LDI R31 , HIGH ( 2 * _0x0 + ( 923 ) )
                 	__POINTW1FN _0x0,923
000d27 940e 2d2e 	CALL SUBOPT_0x36
000d29 940e 2cad 	CALL SUBOPT_0x24
000d2b 940e 04ec 	CALL _komunikat_z_czytnika_kodow
                 ; 0000 0574 
                 ; 0000 0575     }
                 ; 0000 0576 if(PORT_CZYTNIK.byte == 0x60)
                 _0x7C:
000d2d 91a0 0502 	LDS  R26,_PORT_CZYTNIK
000d2f 36a0      	CPI  R26,LOW(0x60)
000d30 f489      	BRNE _0x7D
                 ; 0000 0577     {
                 ; 0000 0578       macierz_zaciskow[rzad]=96;   ///////////////////////////////////////////////brak zacisku
000d31 01f8      	MOVW R30,R16
000d32 940e 2c3b 	CALL SUBOPT_0x13
000d34 e6e0      	LDI  R30,LOW(96)
000d35 e0f0      	LDI  R31,HIGH(96)
000d36 940e 2d39 	CALL SUBOPT_0x38
                 ; 0000 0579       macierz_zaciskow[rzad]=0;
000d38 940e 2d3d 	CALL SUBOPT_0x39
                 ; 0000 057A       komunikat_z_czytnika_kodow("87-2384",rzad,0);
                +
000d3a e4e3     +LDI R30 , LOW ( 2 * _0x0 + ( 931 ) )
000d3b e0f4     +LDI R31 , HIGH ( 2 * _0x0 + ( 931 ) )
                 	__POINTW1FN _0x0,931
000d3c 940e 2d2e 	CALL SUBOPT_0x36
000d3e 940e 2cad 	CALL SUBOPT_0x24
000d40 940e 04ec 	CALL _komunikat_z_czytnika_kodow
                 ; 0000 057B 
                 ; 0000 057C     }
                 ; 0000 057D 
                 ; 0000 057E if(PORT_CZYTNIK.byte == 0x61)
                 _0x7D:
000d42 91a0 0502 	LDS  R26,_PORT_CZYTNIK
000d44 36a1      	CPI  R26,LOW(0x61)
000d45 f479      	BRNE _0x7E
                 ; 0000 057F     {
                 ; 0000 0580       macierz_zaciskow[rzad]=97;
000d46 01f8      	MOVW R30,R16
000d47 940e 2c3b 	CALL SUBOPT_0x13
000d49 e6e1      	LDI  R30,LOW(97)
000d4a e0f0      	LDI  R31,HIGH(97)
000d4b 93ed      	ST   X+,R30
000d4c 93fc      	ST   X,R31
                 ; 0000 0581       komunikat_z_czytnika_kodow("86-0847",rzad,0);
                +
000d4d e4eb     +LDI R30 , LOW ( 2 * _0x0 + ( 939 ) )
000d4e e0f4     +LDI R31 , HIGH ( 2 * _0x0 + ( 939 ) )
                 	__POINTW1FN _0x0,939
000d4f 940e 2d2e 	CALL SUBOPT_0x36
000d51 940e 2cad 	CALL SUBOPT_0x24
000d53 940e 04ec 	CALL _komunikat_z_czytnika_kodow
                 ; 0000 0582 
                 ; 0000 0583     }
                 ; 0000 0584 
                 ; 0000 0585 if(PORT_CZYTNIK.byte == 0x62)
                 _0x7E:
000d55 91a0 0502 	LDS  R26,_PORT_CZYTNIK
000d57 36a2      	CPI  R26,LOW(0x62)
000d58 f479      	BRNE _0x7F
                 ; 0000 0586     {
                 ; 0000 0587       macierz_zaciskow[rzad]=98;
000d59 01f8      	MOVW R30,R16
000d5a 940e 2c3b 	CALL SUBOPT_0x13
000d5c e6e2      	LDI  R30,LOW(98)
000d5d e0f0      	LDI  R31,HIGH(98)
000d5e 93ed      	ST   X+,R30
000d5f 93fc      	ST   X,R31
                 ; 0000 0588       komunikat_z_czytnika_kodow("86-1620",rzad,0);
                +
000d60 e5e3     +LDI R30 , LOW ( 2 * _0x0 + ( 947 ) )
000d61 e0f4     +LDI R31 , HIGH ( 2 * _0x0 + ( 947 ) )
                 	__POINTW1FN _0x0,947
000d62 940e 2d2e 	CALL SUBOPT_0x36
000d64 940e 2cad 	CALL SUBOPT_0x24
000d66 940e 04ec 	CALL _komunikat_z_czytnika_kodow
                 ; 0000 0589 
                 ; 0000 058A     }
                 ; 0000 058B if(PORT_CZYTNIK.byte == 0x63)
                 _0x7F:
000d68 91a0 0502 	LDS  R26,_PORT_CZYTNIK
000d6a 36a3      	CPI  R26,LOW(0x63)
000d6b f469      	BRNE _0x80
                 ; 0000 058C     {
                 ; 0000 058D       macierz_zaciskow[rzad]=99;
000d6c 01f8      	MOVW R30,R16
000d6d 940e 2c3b 	CALL SUBOPT_0x13
000d6f e6e3      	LDI  R30,LOW(99)
000d70 e0f0      	LDI  R31,HIGH(99)
000d71 93ed      	ST   X+,R30
000d72 93fc      	ST   X,R31
                 ; 0000 058E       komunikat_z_czytnika_kodow("86-2019",rzad,1);
                +
000d73 e5eb     +LDI R30 , LOW ( 2 * _0x0 + ( 955 ) )
000d74 e0f4     +LDI R31 , HIGH ( 2 * _0x0 + ( 955 ) )
                 	__POINTW1FN _0x0,955
000d75 940e 2d2e 	CALL SUBOPT_0x36
000d77 940e 2d33 	CALL SUBOPT_0x37
                 ; 0000 058F 
                 ; 0000 0590     }
                 ; 0000 0591 if(PORT_CZYTNIK.byte == 0x64)
                 _0x80:
000d79 91a0 0502 	LDS  R26,_PORT_CZYTNIK
000d7b 36a4      	CPI  R26,LOW(0x64)
000d7c f479      	BRNE _0x81
                 ; 0000 0592     {
                 ; 0000 0593       macierz_zaciskow[rzad]=100;
000d7d 01f8      	MOVW R30,R16
000d7e 940e 2c3b 	CALL SUBOPT_0x13
000d80 e6e4      	LDI  R30,LOW(100)
000d81 e0f0      	LDI  R31,HIGH(100)
000d82 93ed      	ST   X+,R30
000d83 93fc      	ST   X,R31
                 ; 0000 0594       komunikat_z_czytnika_kodow("86-2385",rzad,0);
                +
000d84 e6e3     +LDI R30 , LOW ( 2 * _0x0 + ( 963 ) )
000d85 e0f4     +LDI R31 , HIGH ( 2 * _0x0 + ( 963 ) )
                 	__POINTW1FN _0x0,963
000d86 940e 2d2e 	CALL SUBOPT_0x36
000d88 940e 2cad 	CALL SUBOPT_0x24
000d8a 940e 04ec 	CALL _komunikat_z_czytnika_kodow
                 ; 0000 0595 
                 ; 0000 0596     }
                 ; 0000 0597 if(PORT_CZYTNIK.byte == 0x65)
                 _0x81:
000d8c 91a0 0502 	LDS  R26,_PORT_CZYTNIK
000d8e 36a5      	CPI  R26,LOW(0x65)
000d8f f469      	BRNE _0x82
                 ; 0000 0598     {
                 ; 0000 0599       macierz_zaciskow[rzad]=101;
000d90 01f8      	MOVW R30,R16
000d91 940e 2c3b 	CALL SUBOPT_0x13
000d93 e6e5      	LDI  R30,LOW(101)
000d94 e0f0      	LDI  R31,HIGH(101)
000d95 93ed      	ST   X+,R30
000d96 93fc      	ST   X,R31
                 ; 0000 059A       komunikat_z_czytnika_kodow("87-0847",rzad,1);
                +
000d97 e6eb     +LDI R30 , LOW ( 2 * _0x0 + ( 971 ) )
000d98 e0f4     +LDI R31 , HIGH ( 2 * _0x0 + ( 971 ) )
                 	__POINTW1FN _0x0,971
000d99 940e 2d2e 	CALL SUBOPT_0x36
000d9b 940e 2d33 	CALL SUBOPT_0x37
                 ; 0000 059B 
                 ; 0000 059C     }
                 ; 0000 059D if(PORT_CZYTNIK.byte == 0x66)
                 _0x82:
000d9d 91a0 0502 	LDS  R26,_PORT_CZYTNIK
000d9f 36a6      	CPI  R26,LOW(0x66)
000da0 f469      	BRNE _0x83
                 ; 0000 059E     {
                 ; 0000 059F       macierz_zaciskow[rzad]=102;
000da1 01f8      	MOVW R30,R16
000da2 940e 2c3b 	CALL SUBOPT_0x13
000da4 e6e6      	LDI  R30,LOW(102)
000da5 e0f0      	LDI  R31,HIGH(102)
000da6 93ed      	ST   X+,R30
000da7 93fc      	ST   X,R31
                 ; 0000 05A0       komunikat_z_czytnika_kodow("87-1620",rzad,1);
                +
000da8 e7e3     +LDI R30 , LOW ( 2 * _0x0 + ( 979 ) )
000da9 e0f4     +LDI R31 , HIGH ( 2 * _0x0 + ( 979 ) )
                 	__POINTW1FN _0x0,979
000daa 940e 2d2e 	CALL SUBOPT_0x36
000dac 940e 2d33 	CALL SUBOPT_0x37
                 ; 0000 05A1 
                 ; 0000 05A2     }
                 ; 0000 05A3 if(PORT_CZYTNIK.byte == 0x67)
                 _0x83:
000dae 91a0 0502 	LDS  R26,_PORT_CZYTNIK
000db0 36a7      	CPI  R26,LOW(0x67)
000db1 f479      	BRNE _0x84
                 ; 0000 05A4     {
                 ; 0000 05A5       macierz_zaciskow[rzad]=103;
000db2 01f8      	MOVW R30,R16
000db3 940e 2c3b 	CALL SUBOPT_0x13
000db5 e6e7      	LDI  R30,LOW(103)
000db6 e0f0      	LDI  R31,HIGH(103)
000db7 93ed      	ST   X+,R30
000db8 93fc      	ST   X,R31
                 ; 0000 05A6       komunikat_z_czytnika_kodow("87-2019",rzad,0);
                +
000db9 e7eb     +LDI R30 , LOW ( 2 * _0x0 + ( 987 ) )
000dba e0f4     +LDI R31 , HIGH ( 2 * _0x0 + ( 987 ) )
                 	__POINTW1FN _0x0,987
000dbb 940e 2d2e 	CALL SUBOPT_0x36
000dbd 940e 2cad 	CALL SUBOPT_0x24
000dbf 940e 04ec 	CALL _komunikat_z_czytnika_kodow
                 ; 0000 05A7 
                 ; 0000 05A8     }
                 ; 0000 05A9 if(PORT_CZYTNIK.byte == 0x68)
                 _0x84:
000dc1 91a0 0502 	LDS  R26,_PORT_CZYTNIK
000dc3 36a8      	CPI  R26,LOW(0x68)
000dc4 f469      	BRNE _0x85
                 ; 0000 05AA     {
                 ; 0000 05AB       macierz_zaciskow[rzad]=104;
000dc5 01f8      	MOVW R30,R16
000dc6 940e 2c3b 	CALL SUBOPT_0x13
000dc8 e6e8      	LDI  R30,LOW(104)
000dc9 e0f0      	LDI  R31,HIGH(104)
000dca 93ed      	ST   X+,R30
000dcb 93fc      	ST   X,R31
                 ; 0000 05AC       komunikat_z_czytnika_kodow("87-2385",rzad,1);
                +
000dcc e8e3     +LDI R30 , LOW ( 2 * _0x0 + ( 995 ) )
000dcd e0f4     +LDI R31 , HIGH ( 2 * _0x0 + ( 995 ) )
                 	__POINTW1FN _0x0,995
000dce 940e 2d2e 	CALL SUBOPT_0x36
000dd0 940e 2d33 	CALL SUBOPT_0x37
                 ; 0000 05AD 
                 ; 0000 05AE     }
                 ; 0000 05AF if(PORT_CZYTNIK.byte == 0x69)
                 _0x85:
000dd2 91a0 0502 	LDS  R26,_PORT_CZYTNIK
000dd4 36a9      	CPI  R26,LOW(0x69)
000dd5 f479      	BRNE _0x86
                 ; 0000 05B0     {
                 ; 0000 05B1       macierz_zaciskow[rzad]=105;
000dd6 01f8      	MOVW R30,R16
000dd7 940e 2c3b 	CALL SUBOPT_0x13
000dd9 e6e9      	LDI  R30,LOW(105)
000dda e0f0      	LDI  R31,HIGH(105)
000ddb 93ed      	ST   X+,R30
000ddc 93fc      	ST   X,R31
                 ; 0000 05B2       komunikat_z_czytnika_kodow("86-0854",rzad,0);
                +
000ddd e8eb     +LDI R30 , LOW ( 2 * _0x0 + ( 1003 ) )
000dde e0f4     +LDI R31 , HIGH ( 2 * _0x0 + ( 1003 ) )
                 	__POINTW1FN _0x0,1003
000ddf 940e 2d2e 	CALL SUBOPT_0x36
000de1 940e 2cad 	CALL SUBOPT_0x24
000de3 940e 04ec 	CALL _komunikat_z_czytnika_kodow
                 ; 0000 05B3 
                 ; 0000 05B4     }
                 ; 0000 05B5 if(PORT_CZYTNIK.byte == 0x6A)
                 _0x86:
000de5 91a0 0502 	LDS  R26,_PORT_CZYTNIK
000de7 36aa      	CPI  R26,LOW(0x6A)
000de8 f469      	BRNE _0x87
                 ; 0000 05B6     {
                 ; 0000 05B7       macierz_zaciskow[rzad]=106;
000de9 01f8      	MOVW R30,R16
000dea 940e 2c3b 	CALL SUBOPT_0x13
000dec e6ea      	LDI  R30,LOW(106)
000ded e0f0      	LDI  R31,HIGH(106)
000dee 93ed      	ST   X+,R30
000def 93fc      	ST   X,R31
                 ; 0000 05B8       komunikat_z_czytnika_kodow("86-1622",rzad,1);
                +
000df0 e9e3     +LDI R30 , LOW ( 2 * _0x0 + ( 1011 ) )
000df1 e0f4     +LDI R31 , HIGH ( 2 * _0x0 + ( 1011 ) )
                 	__POINTW1FN _0x0,1011
000df2 940e 2d2e 	CALL SUBOPT_0x36
000df4 940e 2d33 	CALL SUBOPT_0x37
                 ; 0000 05B9 
                 ; 0000 05BA     }
                 ; 0000 05BB if(PORT_CZYTNIK.byte == 0x6B)
                 _0x87:
000df6 91a0 0502 	LDS  R26,_PORT_CZYTNIK
000df8 36ab      	CPI  R26,LOW(0x6B)
000df9 f489      	BRNE _0x88
                 ; 0000 05BC     {
                 ; 0000 05BD       macierz_zaciskow[rzad]=107;
000dfa 01f8      	MOVW R30,R16
000dfb 940e 2c3b 	CALL SUBOPT_0x13
000dfd e6eb      	LDI  R30,LOW(107)
000dfe e0f0      	LDI  R31,HIGH(107)
000dff 940e 2d39 	CALL SUBOPT_0x38
                 ; 0000 05BE       macierz_zaciskow[rzad]=0;          //brak zacisku
000e01 940e 2d3d 	CALL SUBOPT_0x39
                 ; 0000 05BF       komunikat_z_czytnika_kodow("86-2028",rzad,0);
                +
000e03 e9eb     +LDI R30 , LOW ( 2 * _0x0 + ( 1019 ) )
000e04 e0f4     +LDI R31 , HIGH ( 2 * _0x0 + ( 1019 ) )
                 	__POINTW1FN _0x0,1019
000e05 940e 2d2e 	CALL SUBOPT_0x36
000e07 940e 2cad 	CALL SUBOPT_0x24
000e09 940e 04ec 	CALL _komunikat_z_czytnika_kodow
                 ; 0000 05C0 
                 ; 0000 05C1     }
                 ; 0000 05C2 if(PORT_CZYTNIK.byte == 0x6C)
                 _0x88:
000e0b 91a0 0502 	LDS  R26,_PORT_CZYTNIK
000e0d 36ac      	CPI  R26,LOW(0x6C)
000e0e f479      	BRNE _0x89
                 ; 0000 05C3     {
                 ; 0000 05C4       macierz_zaciskow[rzad]=108;
000e0f 01f8      	MOVW R30,R16
000e10 940e 2c3b 	CALL SUBOPT_0x13
000e12 e6ec      	LDI  R30,LOW(108)
000e13 e0f0      	LDI  R31,HIGH(108)
000e14 93ed      	ST   X+,R30
000e15 93fc      	ST   X,R31
                 ; 0000 05C5       komunikat_z_czytnika_kodow("86-2437",rzad,0);
                +
000e16 eae3     +LDI R30 , LOW ( 2 * _0x0 + ( 1027 ) )
000e17 e0f4     +LDI R31 , HIGH ( 2 * _0x0 + ( 1027 ) )
                 	__POINTW1FN _0x0,1027
000e18 940e 2d2e 	CALL SUBOPT_0x36
000e1a 940e 2cad 	CALL SUBOPT_0x24
000e1c 940e 04ec 	CALL _komunikat_z_czytnika_kodow
                 ; 0000 05C6 
                 ; 0000 05C7     }
                 ; 0000 05C8 if(PORT_CZYTNIK.byte == 0x6D)
                 _0x89:
000e1e 91a0 0502 	LDS  R26,_PORT_CZYTNIK
000e20 36ad      	CPI  R26,LOW(0x6D)
000e21 f469      	BRNE _0x8A
                 ; 0000 05C9     {
                 ; 0000 05CA       macierz_zaciskow[rzad]=109;
000e22 01f8      	MOVW R30,R16
000e23 940e 2c3b 	CALL SUBOPT_0x13
000e25 e6ed      	LDI  R30,LOW(109)
000e26 e0f0      	LDI  R31,HIGH(109)
000e27 93ed      	ST   X+,R30
000e28 93fc      	ST   X,R31
                 ; 0000 05CB       komunikat_z_czytnika_kodow("87-0854",rzad,1);
                +
000e29 eaeb     +LDI R30 , LOW ( 2 * _0x0 + ( 1035 ) )
000e2a e0f4     +LDI R31 , HIGH ( 2 * _0x0 + ( 1035 ) )
                 	__POINTW1FN _0x0,1035
000e2b 940e 2d2e 	CALL SUBOPT_0x36
000e2d 940e 2d33 	CALL SUBOPT_0x37
                 ; 0000 05CC 
                 ; 0000 05CD     }
                 ; 0000 05CE if(PORT_CZYTNIK.byte == 0x6E)
                 _0x8A:
000e2f 91a0 0502 	LDS  R26,_PORT_CZYTNIK
000e31 36ae      	CPI  R26,LOW(0x6E)
000e32 f479      	BRNE _0x8B
                 ; 0000 05CF     {
                 ; 0000 05D0       macierz_zaciskow[rzad]=110;
000e33 01f8      	MOVW R30,R16
000e34 940e 2c3b 	CALL SUBOPT_0x13
000e36 e6ee      	LDI  R30,LOW(110)
000e37 e0f0      	LDI  R31,HIGH(110)
000e38 93ed      	ST   X+,R30
000e39 93fc      	ST   X,R31
                 ; 0000 05D1       komunikat_z_czytnika_kodow("87-1622",rzad,0);
                +
000e3a ebe3     +LDI R30 , LOW ( 2 * _0x0 + ( 1043 ) )
000e3b e0f4     +LDI R31 , HIGH ( 2 * _0x0 + ( 1043 ) )
                 	__POINTW1FN _0x0,1043
000e3c 940e 2d2e 	CALL SUBOPT_0x36
000e3e 940e 2cad 	CALL SUBOPT_0x24
000e40 940e 04ec 	CALL _komunikat_z_czytnika_kodow
                 ; 0000 05D2 
                 ; 0000 05D3     }
                 ; 0000 05D4 
                 ; 0000 05D5 if(PORT_CZYTNIK.byte == 0x6F)
                 _0x8B:
000e42 91a0 0502 	LDS  R26,_PORT_CZYTNIK
000e44 36af      	CPI  R26,LOW(0x6F)
000e45 f489      	BRNE _0x8C
                 ; 0000 05D6     {
                 ; 0000 05D7       macierz_zaciskow[rzad]=111;
000e46 01f8      	MOVW R30,R16
000e47 940e 2c3b 	CALL SUBOPT_0x13
000e49 e6ef      	LDI  R30,LOW(111)
000e4a e0f0      	LDI  R31,HIGH(111)
000e4b 940e 2d39 	CALL SUBOPT_0x38
                 ; 0000 05D8       macierz_zaciskow[rzad]=0;      //brak zacisku
000e4d 940e 2d3d 	CALL SUBOPT_0x39
                 ; 0000 05D9       komunikat_z_czytnika_kodow("87-2028",rzad,0);
                +
000e4f ebeb     +LDI R30 , LOW ( 2 * _0x0 + ( 1051 ) )
000e50 e0f4     +LDI R31 , HIGH ( 2 * _0x0 + ( 1051 ) )
                 	__POINTW1FN _0x0,1051
000e51 940e 2d2e 	CALL SUBOPT_0x36
000e53 940e 2cad 	CALL SUBOPT_0x24
000e55 940e 04ec 	CALL _komunikat_z_czytnika_kodow
                 ; 0000 05DA 
                 ; 0000 05DB     }
                 ; 0000 05DC 
                 ; 0000 05DD if(PORT_CZYTNIK.byte == 0x70)
                 _0x8C:
000e57 91a0 0502 	LDS  R26,_PORT_CZYTNIK
000e59 37a0      	CPI  R26,LOW(0x70)
000e5a f469      	BRNE _0x8D
                 ; 0000 05DE     {
                 ; 0000 05DF       macierz_zaciskow[rzad]=112;
000e5b 01f8      	MOVW R30,R16
000e5c 940e 2c3b 	CALL SUBOPT_0x13
000e5e e7e0      	LDI  R30,LOW(112)
000e5f e0f0      	LDI  R31,HIGH(112)
000e60 93ed      	ST   X+,R30
000e61 93fc      	ST   X,R31
                 ; 0000 05E0       komunikat_z_czytnika_kodow("87-2437",rzad,1);
                +
000e62 ece3     +LDI R30 , LOW ( 2 * _0x0 + ( 1059 ) )
000e63 e0f4     +LDI R31 , HIGH ( 2 * _0x0 + ( 1059 ) )
                 	__POINTW1FN _0x0,1059
000e64 940e 2d2e 	CALL SUBOPT_0x36
000e66 940e 2d33 	CALL SUBOPT_0x37
                 ; 0000 05E1 
                 ; 0000 05E2     }
                 ; 0000 05E3 if(PORT_CZYTNIK.byte == 0x71)
                 _0x8D:
000e68 91a0 0502 	LDS  R26,_PORT_CZYTNIK
000e6a 37a1      	CPI  R26,LOW(0x71)
000e6b f479      	BRNE _0x8E
                 ; 0000 05E4     {
                 ; 0000 05E5       macierz_zaciskow[rzad]=113;
000e6c 01f8      	MOVW R30,R16
000e6d 940e 2c3b 	CALL SUBOPT_0x13
000e6f e7e1      	LDI  R30,LOW(113)
000e70 e0f0      	LDI  R31,HIGH(113)
000e71 93ed      	ST   X+,R30
000e72 93fc      	ST   X,R31
                 ; 0000 05E6       komunikat_z_czytnika_kodow("86-0862",rzad,0);
                +
000e73 eceb     +LDI R30 , LOW ( 2 * _0x0 + ( 1067 ) )
000e74 e0f4     +LDI R31 , HIGH ( 2 * _0x0 + ( 1067 ) )
                 	__POINTW1FN _0x0,1067
000e75 940e 2d2e 	CALL SUBOPT_0x36
000e77 940e 2cad 	CALL SUBOPT_0x24
000e79 940e 04ec 	CALL _komunikat_z_czytnika_kodow
                 ; 0000 05E7 
                 ; 0000 05E8     }
                 ; 0000 05E9 if(PORT_CZYTNIK.byte == 0x72)
                 _0x8E:
000e7b 91a0 0502 	LDS  R26,_PORT_CZYTNIK
000e7d 37a2      	CPI  R26,LOW(0x72)
000e7e f479      	BRNE _0x8F
                 ; 0000 05EA     {
                 ; 0000 05EB       macierz_zaciskow[rzad]=114;
000e7f 01f8      	MOVW R30,R16
000e80 940e 2c3b 	CALL SUBOPT_0x13
000e82 e7e2      	LDI  R30,LOW(114)
000e83 e0f0      	LDI  R31,HIGH(114)
000e84 93ed      	ST   X+,R30
000e85 93fc      	ST   X,R31
                 ; 0000 05EC       komunikat_z_czytnika_kodow("86-1625",rzad,0);
                +
000e86 ede3     +LDI R30 , LOW ( 2 * _0x0 + ( 1075 ) )
000e87 e0f4     +LDI R31 , HIGH ( 2 * _0x0 + ( 1075 ) )
                 	__POINTW1FN _0x0,1075
000e88 940e 2d2e 	CALL SUBOPT_0x36
000e8a 940e 2cad 	CALL SUBOPT_0x24
000e8c 940e 04ec 	CALL _komunikat_z_czytnika_kodow
                 ; 0000 05ED 
                 ; 0000 05EE     }
                 ; 0000 05EF if(PORT_CZYTNIK.byte == 0x73)
                 _0x8F:
000e8e 91a0 0502 	LDS  R26,_PORT_CZYTNIK
000e90 37a3      	CPI  R26,LOW(0x73)
000e91 f479      	BRNE _0x90
                 ; 0000 05F0     {
                 ; 0000 05F1       macierz_zaciskow[rzad]=115;
000e92 01f8      	MOVW R30,R16
000e93 940e 2c3b 	CALL SUBOPT_0x13
000e95 e7e3      	LDI  R30,LOW(115)
000e96 e0f0      	LDI  R31,HIGH(115)
000e97 93ed      	ST   X+,R30
000e98 93fc      	ST   X,R31
                 ; 0000 05F2       komunikat_z_czytnika_kodow("86-2052",rzad,0);
                +
000e99 edeb     +LDI R30 , LOW ( 2 * _0x0 + ( 1083 ) )
000e9a e0f4     +LDI R31 , HIGH ( 2 * _0x0 + ( 1083 ) )
                 	__POINTW1FN _0x0,1083
000e9b 940e 2d2e 	CALL SUBOPT_0x36
000e9d 940e 2cad 	CALL SUBOPT_0x24
000e9f 940e 04ec 	CALL _komunikat_z_czytnika_kodow
                 ; 0000 05F3 
                 ; 0000 05F4     }
                 ; 0000 05F5 if(PORT_CZYTNIK.byte == 0x74)
                 _0x90:
000ea1 91a0 0502 	LDS  R26,_PORT_CZYTNIK
000ea3 37a4      	CPI  R26,LOW(0x74)
000ea4 f469      	BRNE _0x91
                 ; 0000 05F6     {
                 ; 0000 05F7       macierz_zaciskow[rzad]=116;
000ea5 01f8      	MOVW R30,R16
000ea6 940e 2c3b 	CALL SUBOPT_0x13
000ea8 e7e4      	LDI  R30,LOW(116)
000ea9 e0f0      	LDI  R31,HIGH(116)
000eaa 93ed      	ST   X+,R30
000eab 93fc      	ST   X,R31
                 ; 0000 05F8       komunikat_z_czytnika_kodow("86-2492",rzad,1);
                +
000eac eee3     +LDI R30 , LOW ( 2 * _0x0 + ( 1091 ) )
000ead e0f4     +LDI R31 , HIGH ( 2 * _0x0 + ( 1091 ) )
                 	__POINTW1FN _0x0,1091
000eae 940e 2d2e 	CALL SUBOPT_0x36
000eb0 940e 2d33 	CALL SUBOPT_0x37
                 ; 0000 05F9 
                 ; 0000 05FA     }
                 ; 0000 05FB if(PORT_CZYTNIK.byte == 0x75)
                 _0x91:
000eb2 91a0 0502 	LDS  R26,_PORT_CZYTNIK
000eb4 37a5      	CPI  R26,LOW(0x75)
000eb5 f469      	BRNE _0x92
                 ; 0000 05FC     {
                 ; 0000 05FD       macierz_zaciskow[rzad]=117;
000eb6 01f8      	MOVW R30,R16
000eb7 940e 2c3b 	CALL SUBOPT_0x13
000eb9 e7e5      	LDI  R30,LOW(117)
000eba e0f0      	LDI  R31,HIGH(117)
000ebb 93ed      	ST   X+,R30
000ebc 93fc      	ST   X,R31
                 ; 0000 05FE       komunikat_z_czytnika_kodow("87-0862",rzad,1);
                +
000ebd eeeb     +LDI R30 , LOW ( 2 * _0x0 + ( 1099 ) )
000ebe e0f4     +LDI R31 , HIGH ( 2 * _0x0 + ( 1099 ) )
                 	__POINTW1FN _0x0,1099
000ebf 940e 2d2e 	CALL SUBOPT_0x36
000ec1 940e 2d33 	CALL SUBOPT_0x37
                 ; 0000 05FF 
                 ; 0000 0600     }
                 ; 0000 0601 if(PORT_CZYTNIK.byte == 0x76)
                 _0x92:
000ec3 91a0 0502 	LDS  R26,_PORT_CZYTNIK
000ec5 37a6      	CPI  R26,LOW(0x76)
000ec6 f469      	BRNE _0x93
                 ; 0000 0602     {
                 ; 0000 0603       macierz_zaciskow[rzad]=118;
000ec7 01f8      	MOVW R30,R16
000ec8 940e 2c3b 	CALL SUBOPT_0x13
000eca e7e6      	LDI  R30,LOW(118)
000ecb e0f0      	LDI  R31,HIGH(118)
000ecc 93ed      	ST   X+,R30
000ecd 93fc      	ST   X,R31
                 ; 0000 0604       komunikat_z_czytnika_kodow("87-1625",rzad,1);
                +
000ece efe3     +LDI R30 , LOW ( 2 * _0x0 + ( 1107 ) )
000ecf e0f4     +LDI R31 , HIGH ( 2 * _0x0 + ( 1107 ) )
                 	__POINTW1FN _0x0,1107
000ed0 940e 2d2e 	CALL SUBOPT_0x36
000ed2 940e 2d33 	CALL SUBOPT_0x37
                 ; 0000 0605 
                 ; 0000 0606     }
                 ; 0000 0607 if(PORT_CZYTNIK.byte == 0x77)
                 _0x93:
000ed4 91a0 0502 	LDS  R26,_PORT_CZYTNIK
000ed6 37a7      	CPI  R26,LOW(0x77)
000ed7 f469      	BRNE _0x94
                 ; 0000 0608     {
                 ; 0000 0609       macierz_zaciskow[rzad]=119;
000ed8 01f8      	MOVW R30,R16
000ed9 940e 2c3b 	CALL SUBOPT_0x13
000edb e7e7      	LDI  R30,LOW(119)
000edc e0f0      	LDI  R31,HIGH(119)
000edd 93ed      	ST   X+,R30
000ede 93fc      	ST   X,R31
                 ; 0000 060A       komunikat_z_czytnika_kodow("87-2052",rzad,1);
                +
000edf efeb     +LDI R30 , LOW ( 2 * _0x0 + ( 1115 ) )
000ee0 e0f4     +LDI R31 , HIGH ( 2 * _0x0 + ( 1115 ) )
                 	__POINTW1FN _0x0,1115
000ee1 940e 2d2e 	CALL SUBOPT_0x36
000ee3 940e 2d33 	CALL SUBOPT_0x37
                 ; 0000 060B 
                 ; 0000 060C     }
                 ; 0000 060D if(PORT_CZYTNIK.byte == 0x78)
                 _0x94:
000ee5 91a0 0502 	LDS  R26,_PORT_CZYTNIK
000ee7 37a8      	CPI  R26,LOW(0x78)
000ee8 f479      	BRNE _0x95
                 ; 0000 060E     {
                 ; 0000 060F       macierz_zaciskow[rzad]=120;
000ee9 01f8      	MOVW R30,R16
000eea 940e 2c3b 	CALL SUBOPT_0x13
000eec e7e8      	LDI  R30,LOW(120)
000eed e0f0      	LDI  R31,HIGH(120)
000eee 93ed      	ST   X+,R30
000eef 93fc      	ST   X,R31
                 ; 0000 0610       komunikat_z_czytnika_kodow("87-2492",rzad,0);
                +
000ef0 e0e3     +LDI R30 , LOW ( 2 * _0x0 + ( 1123 ) )
000ef1 e0f5     +LDI R31 , HIGH ( 2 * _0x0 + ( 1123 ) )
                 	__POINTW1FN _0x0,1123
000ef2 940e 2d2e 	CALL SUBOPT_0x36
000ef4 940e 2cad 	CALL SUBOPT_0x24
000ef6 940e 04ec 	CALL _komunikat_z_czytnika_kodow
                 ; 0000 0611 
                 ; 0000 0612     }
                 ; 0000 0613 if(PORT_CZYTNIK.byte == 0x79)
                 _0x95:
000ef8 91a0 0502 	LDS  R26,_PORT_CZYTNIK
000efa 37a9      	CPI  R26,LOW(0x79)
000efb f479      	BRNE _0x96
                 ; 0000 0614     {
                 ; 0000 0615       macierz_zaciskow[rzad]=121;
000efc 01f8      	MOVW R30,R16
000efd 940e 2c3b 	CALL SUBOPT_0x13
000eff e7e9      	LDI  R30,LOW(121)
000f00 e0f0      	LDI  R31,HIGH(121)
000f01 93ed      	ST   X+,R30
000f02 93fc      	ST   X,R31
                 ; 0000 0616       komunikat_z_czytnika_kodow("86-0935",rzad,0);
                +
000f03 e0eb     +LDI R30 , LOW ( 2 * _0x0 + ( 1131 ) )
000f04 e0f5     +LDI R31 , HIGH ( 2 * _0x0 + ( 1131 ) )
                 	__POINTW1FN _0x0,1131
000f05 940e 2d2e 	CALL SUBOPT_0x36
000f07 940e 2cad 	CALL SUBOPT_0x24
000f09 940e 04ec 	CALL _komunikat_z_czytnika_kodow
                 ; 0000 0617 
                 ; 0000 0618     }
                 ; 0000 0619 if(PORT_CZYTNIK.byte == 0x7A)
                 _0x96:
000f0b 91a0 0502 	LDS  R26,_PORT_CZYTNIK
000f0d 37aa      	CPI  R26,LOW(0x7A)
000f0e f479      	BRNE _0x97
                 ; 0000 061A     {
                 ; 0000 061B       macierz_zaciskow[rzad]=122;
000f0f 01f8      	MOVW R30,R16
000f10 940e 2c3b 	CALL SUBOPT_0x13
000f12 e7ea      	LDI  R30,LOW(122)
000f13 e0f0      	LDI  R31,HIGH(122)
000f14 93ed      	ST   X+,R30
000f15 93fc      	ST   X,R31
                 ; 0000 061C       komunikat_z_czytnika_kodow("86-1648",rzad,0);
                +
000f16 e1e3     +LDI R30 , LOW ( 2 * _0x0 + ( 1139 ) )
000f17 e0f5     +LDI R31 , HIGH ( 2 * _0x0 + ( 1139 ) )
                 	__POINTW1FN _0x0,1139
000f18 940e 2d2e 	CALL SUBOPT_0x36
000f1a 940e 2cad 	CALL SUBOPT_0x24
000f1c 940e 04ec 	CALL _komunikat_z_czytnika_kodow
                 ; 0000 061D 
                 ; 0000 061E     }
                 ; 0000 061F if(PORT_CZYTNIK.byte == 0x7B)
                 _0x97:
000f1e 91a0 0502 	LDS  R26,_PORT_CZYTNIK
000f20 37ab      	CPI  R26,LOW(0x7B)
000f21 f479      	BRNE _0x98
                 ; 0000 0620     {
                 ; 0000 0621       macierz_zaciskow[rzad]=123;
000f22 01f8      	MOVW R30,R16
000f23 940e 2c3b 	CALL SUBOPT_0x13
000f25 e7eb      	LDI  R30,LOW(123)
000f26 e0f0      	LDI  R31,HIGH(123)
000f27 93ed      	ST   X+,R30
000f28 93fc      	ST   X,R31
                 ; 0000 0622       komunikat_z_czytnika_kodow("86-2082",rzad,0);
                +
000f29 e1eb     +LDI R30 , LOW ( 2 * _0x0 + ( 1147 ) )
000f2a e0f5     +LDI R31 , HIGH ( 2 * _0x0 + ( 1147 ) )
                 	__POINTW1FN _0x0,1147
000f2b 940e 2d2e 	CALL SUBOPT_0x36
000f2d 940e 2cad 	CALL SUBOPT_0x24
000f2f 940e 04ec 	CALL _komunikat_z_czytnika_kodow
                 ; 0000 0623 
                 ; 0000 0624     }
                 ; 0000 0625 if(PORT_CZYTNIK.byte == 0x7C)
                 _0x98:
000f31 91a0 0502 	LDS  R26,_PORT_CZYTNIK
000f33 37ac      	CPI  R26,LOW(0x7C)
000f34 f479      	BRNE _0x99
                 ; 0000 0626     {
                 ; 0000 0627       macierz_zaciskow[rzad]=124;
000f35 01f8      	MOVW R30,R16
000f36 940e 2c3b 	CALL SUBOPT_0x13
000f38 e7ec      	LDI  R30,LOW(124)
000f39 e0f0      	LDI  R31,HIGH(124)
000f3a 93ed      	ST   X+,R30
000f3b 93fc      	ST   X,R31
                 ; 0000 0628       komunikat_z_czytnika_kodow("86-2500",rzad,0);
                +
000f3c e2e3     +LDI R30 , LOW ( 2 * _0x0 + ( 1155 ) )
000f3d e0f5     +LDI R31 , HIGH ( 2 * _0x0 + ( 1155 ) )
                 	__POINTW1FN _0x0,1155
000f3e 940e 2d2e 	CALL SUBOPT_0x36
000f40 940e 2cad 	CALL SUBOPT_0x24
000f42 940e 04ec 	CALL _komunikat_z_czytnika_kodow
                 ; 0000 0629 
                 ; 0000 062A     }
                 ; 0000 062B if(PORT_CZYTNIK.byte == 0x7D)
                 _0x99:
000f44 91a0 0502 	LDS  R26,_PORT_CZYTNIK
000f46 37ad      	CPI  R26,LOW(0x7D)
000f47 f469      	BRNE _0x9A
                 ; 0000 062C     {
                 ; 0000 062D       macierz_zaciskow[rzad]=125;
000f48 01f8      	MOVW R30,R16
000f49 940e 2c3b 	CALL SUBOPT_0x13
000f4b e7ed      	LDI  R30,LOW(125)
000f4c e0f0      	LDI  R31,HIGH(125)
000f4d 93ed      	ST   X+,R30
000f4e 93fc      	ST   X,R31
                 ; 0000 062E       komunikat_z_czytnika_kodow("87-0935",rzad,1);
                +
000f4f e2eb     +LDI R30 , LOW ( 2 * _0x0 + ( 1163 ) )
000f50 e0f5     +LDI R31 , HIGH ( 2 * _0x0 + ( 1163 ) )
                 	__POINTW1FN _0x0,1163
000f51 940e 2d2e 	CALL SUBOPT_0x36
000f53 940e 2d33 	CALL SUBOPT_0x37
                 ; 0000 062F 
                 ; 0000 0630     }
                 ; 0000 0631 if(PORT_CZYTNIK.byte == 0x7E)
                 _0x9A:
000f55 91a0 0502 	LDS  R26,_PORT_CZYTNIK
000f57 37ae      	CPI  R26,LOW(0x7E)
000f58 f469      	BRNE _0x9B
                 ; 0000 0632     {
                 ; 0000 0633       macierz_zaciskow[rzad]=126;
000f59 01f8      	MOVW R30,R16
000f5a 940e 2c3b 	CALL SUBOPT_0x13
000f5c e7ee      	LDI  R30,LOW(126)
000f5d e0f0      	LDI  R31,HIGH(126)
000f5e 93ed      	ST   X+,R30
000f5f 93fc      	ST   X,R31
                 ; 0000 0634       komunikat_z_czytnika_kodow("87-1648",rzad,1);
                +
000f60 e3e3     +LDI R30 , LOW ( 2 * _0x0 + ( 1171 ) )
000f61 e0f5     +LDI R31 , HIGH ( 2 * _0x0 + ( 1171 ) )
                 	__POINTW1FN _0x0,1171
000f62 940e 2d2e 	CALL SUBOPT_0x36
000f64 940e 2d33 	CALL SUBOPT_0x37
                 ; 0000 0635 
                 ; 0000 0636     }
                 ; 0000 0637 
                 ; 0000 0638 if(PORT_CZYTNIK.byte == 0x7F)
                 _0x9B:
000f66 91a0 0502 	LDS  R26,_PORT_CZYTNIK
000f68 37af      	CPI  R26,LOW(0x7F)
000f69 f469      	BRNE _0x9C
                 ; 0000 0639     {
                 ; 0000 063A       macierz_zaciskow[rzad]=127;
000f6a 01f8      	MOVW R30,R16
000f6b 940e 2c3b 	CALL SUBOPT_0x13
000f6d e7ef      	LDI  R30,LOW(127)
000f6e e0f0      	LDI  R31,HIGH(127)
000f6f 93ed      	ST   X+,R30
000f70 93fc      	ST   X,R31
                 ; 0000 063B       komunikat_z_czytnika_kodow("87-2082",rzad,1);
                +
000f71 e3eb     +LDI R30 , LOW ( 2 * _0x0 + ( 1179 ) )
000f72 e0f5     +LDI R31 , HIGH ( 2 * _0x0 + ( 1179 ) )
                 	__POINTW1FN _0x0,1179
000f73 940e 2d2e 	CALL SUBOPT_0x36
000f75 940e 2d33 	CALL SUBOPT_0x37
                 ; 0000 063C 
                 ; 0000 063D     }
                 ; 0000 063E if(PORT_CZYTNIK.byte == 0x80)
                 _0x9C:
000f77 91a0 0502 	LDS  R26,_PORT_CZYTNIK
000f79 38a0      	CPI  R26,LOW(0x80)
000f7a f469      	BRNE _0x9D
                 ; 0000 063F     {
                 ; 0000 0640       macierz_zaciskow[rzad]=128;
000f7b 01f8      	MOVW R30,R16
000f7c 940e 2c3b 	CALL SUBOPT_0x13
000f7e e8e0      	LDI  R30,LOW(128)
000f7f e0f0      	LDI  R31,HIGH(128)
000f80 93ed      	ST   X+,R30
000f81 93fc      	ST   X,R31
                 ; 0000 0641       komunikat_z_czytnika_kodow("87-2500",rzad,1);
                +
000f82 e4e3     +LDI R30 , LOW ( 2 * _0x0 + ( 1187 ) )
000f83 e0f5     +LDI R31 , HIGH ( 2 * _0x0 + ( 1187 ) )
                 	__POINTW1FN _0x0,1187
000f84 940e 2d2e 	CALL SUBOPT_0x36
000f86 940e 2d33 	CALL SUBOPT_0x37
                 ; 0000 0642 
                 ; 0000 0643     }
                 ; 0000 0644 if(PORT_CZYTNIK.byte == 0x81)
                 _0x9D:
000f88 91a0 0502 	LDS  R26,_PORT_CZYTNIK
000f8a 38a1      	CPI  R26,LOW(0x81)
000f8b f479      	BRNE _0x9E
                 ; 0000 0645     {
                 ; 0000 0646       macierz_zaciskow[rzad]=129;
000f8c 01f8      	MOVW R30,R16
000f8d 940e 2c3b 	CALL SUBOPT_0x13
000f8f e8e1      	LDI  R30,LOW(129)
000f90 e0f0      	LDI  R31,HIGH(129)
000f91 93ed      	ST   X+,R30
000f92 93fc      	ST   X,R31
                 ; 0000 0647       komunikat_z_czytnika_kodow("86-1019",rzad,0);
                +
000f93 e4eb     +LDI R30 , LOW ( 2 * _0x0 + ( 1195 ) )
000f94 e0f5     +LDI R31 , HIGH ( 2 * _0x0 + ( 1195 ) )
                 	__POINTW1FN _0x0,1195
000f95 940e 2d2e 	CALL SUBOPT_0x36
000f97 940e 2cad 	CALL SUBOPT_0x24
000f99 940e 04ec 	CALL _komunikat_z_czytnika_kodow
                 ; 0000 0648 
                 ; 0000 0649     }
                 ; 0000 064A if(PORT_CZYTNIK.byte == 0x82)
                 _0x9E:
000f9b 91a0 0502 	LDS  R26,_PORT_CZYTNIK
000f9d 38a2      	CPI  R26,LOW(0x82)
000f9e f479      	BRNE _0x9F
                 ; 0000 064B     {
                 ; 0000 064C       macierz_zaciskow[rzad]=130;
000f9f 01f8      	MOVW R30,R16
000fa0 940e 2c3b 	CALL SUBOPT_0x13
000fa2 e8e2      	LDI  R30,LOW(130)
000fa3 e0f0      	LDI  R31,HIGH(130)
000fa4 93ed      	ST   X+,R30
000fa5 93fc      	ST   X,R31
                 ; 0000 064D       komunikat_z_czytnika_kodow("86-1649",rzad,0);
                +
000fa6 e5e3     +LDI R30 , LOW ( 2 * _0x0 + ( 1203 ) )
000fa7 e0f5     +LDI R31 , HIGH ( 2 * _0x0 + ( 1203 ) )
                 	__POINTW1FN _0x0,1203
000fa8 940e 2d2e 	CALL SUBOPT_0x36
000faa 940e 2cad 	CALL SUBOPT_0x24
000fac 940e 04ec 	CALL _komunikat_z_czytnika_kodow
                 ; 0000 064E 
                 ; 0000 064F     }
                 ; 0000 0650 if(PORT_CZYTNIK.byte == 0x83)
                 _0x9F:
000fae 91a0 0502 	LDS  R26,_PORT_CZYTNIK
000fb0 38a3      	CPI  R26,LOW(0x83)
000fb1 f469      	BRNE _0xA0
                 ; 0000 0651     {
                 ; 0000 0652       macierz_zaciskow[rzad]=131;
000fb2 01f8      	MOVW R30,R16
000fb3 940e 2c3b 	CALL SUBOPT_0x13
000fb5 e8e3      	LDI  R30,LOW(131)
000fb6 e0f0      	LDI  R31,HIGH(131)
000fb7 93ed      	ST   X+,R30
000fb8 93fc      	ST   X,R31
                 ; 0000 0653       komunikat_z_czytnika_kodow("86-2083",rzad,1);
                +
000fb9 e5eb     +LDI R30 , LOW ( 2 * _0x0 + ( 1211 ) )
000fba e0f5     +LDI R31 , HIGH ( 2 * _0x0 + ( 1211 ) )
                 	__POINTW1FN _0x0,1211
000fbb 940e 2d2e 	CALL SUBOPT_0x36
000fbd 940e 2d33 	CALL SUBOPT_0x37
                 ; 0000 0654 
                 ; 0000 0655     }
                 ; 0000 0656 if(PORT_CZYTNIK.byte == 0x84)
                 _0xA0:
000fbf 91a0 0502 	LDS  R26,_PORT_CZYTNIK
000fc1 38a4      	CPI  R26,LOW(0x84)
000fc2 f479      	BRNE _0xA1
                 ; 0000 0657     {
                 ; 0000 0658       macierz_zaciskow[rzad]=132;
000fc3 01f8      	MOVW R30,R16
000fc4 940e 2c3b 	CALL SUBOPT_0x13
000fc6 e8e4      	LDI  R30,LOW(132)
000fc7 e0f0      	LDI  R31,HIGH(132)
000fc8 93ed      	ST   X+,R30
000fc9 93fc      	ST   X,R31
                 ; 0000 0659       komunikat_z_czytnika_kodow("86-2585",rzad,0);
                +
000fca e6e3     +LDI R30 , LOW ( 2 * _0x0 + ( 1219 ) )
000fcb e0f5     +LDI R31 , HIGH ( 2 * _0x0 + ( 1219 ) )
                 	__POINTW1FN _0x0,1219
000fcc 940e 2d2e 	CALL SUBOPT_0x36
000fce 940e 2cad 	CALL SUBOPT_0x24
000fd0 940e 04ec 	CALL _komunikat_z_czytnika_kodow
                 ; 0000 065A 
                 ; 0000 065B     }
                 ; 0000 065C if(PORT_CZYTNIK.byte == 0x85)
                 _0xA1:
000fd2 91a0 0502 	LDS  R26,_PORT_CZYTNIK
000fd4 38a5      	CPI  R26,LOW(0x85)
000fd5 f469      	BRNE _0xA2
                 ; 0000 065D     {
                 ; 0000 065E       macierz_zaciskow[rzad]=133;
000fd6 01f8      	MOVW R30,R16
000fd7 940e 2c3b 	CALL SUBOPT_0x13
000fd9 e8e5      	LDI  R30,LOW(133)
000fda e0f0      	LDI  R31,HIGH(133)
000fdb 93ed      	ST   X+,R30
000fdc 93fc      	ST   X,R31
                 ; 0000 065F       komunikat_z_czytnika_kodow("87-1019",rzad,1);
                +
000fdd e6eb     +LDI R30 , LOW ( 2 * _0x0 + ( 1227 ) )
000fde e0f5     +LDI R31 , HIGH ( 2 * _0x0 + ( 1227 ) )
                 	__POINTW1FN _0x0,1227
000fdf 940e 2d2e 	CALL SUBOPT_0x36
000fe1 940e 2d33 	CALL SUBOPT_0x37
                 ; 0000 0660 
                 ; 0000 0661     }
                 ; 0000 0662 if(PORT_CZYTNIK.byte == 0x86)
                 _0xA2:
000fe3 91a0 0502 	LDS  R26,_PORT_CZYTNIK
000fe5 38a6      	CPI  R26,LOW(0x86)
000fe6 f469      	BRNE _0xA3
                 ; 0000 0663     {
                 ; 0000 0664       macierz_zaciskow[rzad]=134;
000fe7 01f8      	MOVW R30,R16
000fe8 940e 2c3b 	CALL SUBOPT_0x13
000fea e8e6      	LDI  R30,LOW(134)
000feb e0f0      	LDI  R31,HIGH(134)
000fec 93ed      	ST   X+,R30
000fed 93fc      	ST   X,R31
                 ; 0000 0665       komunikat_z_czytnika_kodow("87-1649",rzad,1);
                +
000fee e7e3     +LDI R30 , LOW ( 2 * _0x0 + ( 1235 ) )
000fef e0f5     +LDI R31 , HIGH ( 2 * _0x0 + ( 1235 ) )
                 	__POINTW1FN _0x0,1235
000ff0 940e 2d2e 	CALL SUBOPT_0x36
000ff2 940e 2d33 	CALL SUBOPT_0x37
                 ; 0000 0666 
                 ; 0000 0667     }
                 ; 0000 0668 if(PORT_CZYTNIK.byte == 0x87)
                 _0xA3:
000ff4 91a0 0502 	LDS  R26,_PORT_CZYTNIK
000ff6 38a7      	CPI  R26,LOW(0x87)
000ff7 f479      	BRNE _0xA4
                 ; 0000 0669     {
                 ; 0000 066A       macierz_zaciskow[rzad]=135;
000ff8 01f8      	MOVW R30,R16
000ff9 940e 2c3b 	CALL SUBOPT_0x13
000ffb e8e7      	LDI  R30,LOW(135)
000ffc e0f0      	LDI  R31,HIGH(135)
000ffd 93ed      	ST   X+,R30
000ffe 93fc      	ST   X,R31
                 ; 0000 066B       komunikat_z_czytnika_kodow("87-2083",rzad,0);
                +
000fff e7eb     +LDI R30 , LOW ( 2 * _0x0 + ( 1243 ) )
001000 e0f5     +LDI R31 , HIGH ( 2 * _0x0 + ( 1243 ) )
                 	__POINTW1FN _0x0,1243
001001 940e 2d2e 	CALL SUBOPT_0x36
001003 940e 2cad 	CALL SUBOPT_0x24
001005 940e 04ec 	CALL _komunikat_z_czytnika_kodow
                 ; 0000 066C 
                 ; 0000 066D     }
                 ; 0000 066E 
                 ; 0000 066F if(PORT_CZYTNIK.byte == 0x88)
                 _0xA4:
001007 91a0 0502 	LDS  R26,_PORT_CZYTNIK
001009 38a8      	CPI  R26,LOW(0x88)
00100a f469      	BRNE _0xA5
                 ; 0000 0670     {
                 ; 0000 0671       macierz_zaciskow[rzad]=136;
00100b 01f8      	MOVW R30,R16
00100c 940e 2c3b 	CALL SUBOPT_0x13
00100e e8e8      	LDI  R30,LOW(136)
00100f e0f0      	LDI  R31,HIGH(136)
001010 93ed      	ST   X+,R30
001011 93fc      	ST   X,R31
                 ; 0000 0672       komunikat_z_czytnika_kodow("87-2624",rzad,1);
                +
001012 e8e3     +LDI R30 , LOW ( 2 * _0x0 + ( 1251 ) )
001013 e0f5     +LDI R31 , HIGH ( 2 * _0x0 + ( 1251 ) )
                 	__POINTW1FN _0x0,1251
001014 940e 2d2e 	CALL SUBOPT_0x36
001016 940e 2d33 	CALL SUBOPT_0x37
                 ; 0000 0673 
                 ; 0000 0674     }
                 ; 0000 0675 if(PORT_CZYTNIK.byte == 0x89)
                 _0xA5:
001018 91a0 0502 	LDS  R26,_PORT_CZYTNIK
00101a 38a9      	CPI  R26,LOW(0x89)
00101b f479      	BRNE _0xA6
                 ; 0000 0676     {
                 ; 0000 0677       macierz_zaciskow[rzad]=137;
00101c 01f8      	MOVW R30,R16
00101d 940e 2c3b 	CALL SUBOPT_0x13
00101f e8e9      	LDI  R30,LOW(137)
001020 e0f0      	LDI  R31,HIGH(137)
001021 93ed      	ST   X+,R30
001022 93fc      	ST   X,R31
                 ; 0000 0678       komunikat_z_czytnika_kodow("86-1027",rzad,0);
                +
001023 e8eb     +LDI R30 , LOW ( 2 * _0x0 + ( 1259 ) )
001024 e0f5     +LDI R31 , HIGH ( 2 * _0x0 + ( 1259 ) )
                 	__POINTW1FN _0x0,1259
001025 940e 2d2e 	CALL SUBOPT_0x36
001027 940e 2cad 	CALL SUBOPT_0x24
001029 940e 04ec 	CALL _komunikat_z_czytnika_kodow
                 ; 0000 0679 
                 ; 0000 067A     }
                 ; 0000 067B if(PORT_CZYTNIK.byte == 0x8A)
                 _0xA6:
00102b 91a0 0502 	LDS  R26,_PORT_CZYTNIK
00102d 38aa      	CPI  R26,LOW(0x8A)
00102e f469      	BRNE _0xA7
                 ; 0000 067C     {
                 ; 0000 067D       macierz_zaciskow[rzad]=138;
00102f 01f8      	MOVW R30,R16
001030 940e 2c3b 	CALL SUBOPT_0x13
001032 e8ea      	LDI  R30,LOW(138)
001033 e0f0      	LDI  R31,HIGH(138)
001034 93ed      	ST   X+,R30
001035 93fc      	ST   X,R31
                 ; 0000 067E       komunikat_z_czytnika_kodow("86-1669",rzad,1);
                +
001036 e9e3     +LDI R30 , LOW ( 2 * _0x0 + ( 1267 ) )
001037 e0f5     +LDI R31 , HIGH ( 2 * _0x0 + ( 1267 ) )
                 	__POINTW1FN _0x0,1267
001038 940e 2d2e 	CALL SUBOPT_0x36
00103a 940e 2d33 	CALL SUBOPT_0x37
                 ; 0000 067F 
                 ; 0000 0680     }
                 ; 0000 0681 if(PORT_CZYTNIK.byte == 0x8B)
                 _0xA7:
00103c 91a0 0502 	LDS  R26,_PORT_CZYTNIK
00103e 38ab      	CPI  R26,LOW(0x8B)
00103f f469      	BRNE _0xA8
                 ; 0000 0682     {
                 ; 0000 0683       macierz_zaciskow[rzad]=139;
001040 01f8      	MOVW R30,R16
001041 940e 2c3b 	CALL SUBOPT_0x13
001043 e8eb      	LDI  R30,LOW(139)
001044 e0f0      	LDI  R31,HIGH(139)
001045 93ed      	ST   X+,R30
001046 93fc      	ST   X,R31
                 ; 0000 0684       komunikat_z_czytnika_kodow("86-2087",rzad,1);
                +
001047 e9eb     +LDI R30 , LOW ( 2 * _0x0 + ( 1275 ) )
001048 e0f5     +LDI R31 , HIGH ( 2 * _0x0 + ( 1275 ) )
                 	__POINTW1FN _0x0,1275
001049 940e 2d2e 	CALL SUBOPT_0x36
00104b 940e 2d33 	CALL SUBOPT_0x37
                 ; 0000 0685 
                 ; 0000 0686     }
                 ; 0000 0687 if(PORT_CZYTNIK.byte == 0x8C)
                 _0xA8:
00104d 91a0 0502 	LDS  R26,_PORT_CZYTNIK
00104f 38ac      	CPI  R26,LOW(0x8C)
001050 f479      	BRNE _0xA9
                 ; 0000 0688     {
                 ; 0000 0689       macierz_zaciskow[rzad]=140;
001051 01f8      	MOVW R30,R16
001052 940e 2c3b 	CALL SUBOPT_0x13
001054 e8ec      	LDI  R30,LOW(140)
001055 e0f0      	LDI  R31,HIGH(140)
001056 93ed      	ST   X+,R30
001057 93fc      	ST   X,R31
                 ; 0000 068A       komunikat_z_czytnika_kodow("86-2624",rzad,0);
                +
001058 eae3     +LDI R30 , LOW ( 2 * _0x0 + ( 1283 ) )
001059 e0f5     +LDI R31 , HIGH ( 2 * _0x0 + ( 1283 ) )
                 	__POINTW1FN _0x0,1283
00105a 940e 2d2e 	CALL SUBOPT_0x36
00105c 940e 2cad 	CALL SUBOPT_0x24
00105e 940e 04ec 	CALL _komunikat_z_czytnika_kodow
                 ; 0000 068B 
                 ; 0000 068C     }
                 ; 0000 068D if(PORT_CZYTNIK.byte == 0x8D)
                 _0xA9:
001060 91a0 0502 	LDS  R26,_PORT_CZYTNIK
001062 38ad      	CPI  R26,LOW(0x8D)
001063 f469      	BRNE _0xAA
                 ; 0000 068E     {
                 ; 0000 068F       macierz_zaciskow[rzad]=141;
001064 01f8      	MOVW R30,R16
001065 940e 2c3b 	CALL SUBOPT_0x13
001067 e8ed      	LDI  R30,LOW(141)
001068 e0f0      	LDI  R31,HIGH(141)
001069 93ed      	ST   X+,R30
00106a 93fc      	ST   X,R31
                 ; 0000 0690       komunikat_z_czytnika_kodow("87-1027",rzad,1);
                +
00106b eaeb     +LDI R30 , LOW ( 2 * _0x0 + ( 1291 ) )
00106c e0f5     +LDI R31 , HIGH ( 2 * _0x0 + ( 1291 ) )
                 	__POINTW1FN _0x0,1291
00106d 940e 2d2e 	CALL SUBOPT_0x36
00106f 940e 2d33 	CALL SUBOPT_0x37
                 ; 0000 0691 
                 ; 0000 0692     }
                 ; 0000 0693 if(PORT_CZYTNIK.byte == 0x8E)
                 _0xAA:
001071 91a0 0502 	LDS  R26,_PORT_CZYTNIK
001073 38ae      	CPI  R26,LOW(0x8E)
001074 f479      	BRNE _0xAB
                 ; 0000 0694     {
                 ; 0000 0695       macierz_zaciskow[rzad]=142;
001075 01f8      	MOVW R30,R16
001076 940e 2c3b 	CALL SUBOPT_0x13
001078 e8ee      	LDI  R30,LOW(142)
001079 e0f0      	LDI  R31,HIGH(142)
00107a 93ed      	ST   X+,R30
00107b 93fc      	ST   X,R31
                 ; 0000 0696       komunikat_z_czytnika_kodow("87-1669",rzad,0);
                +
00107c ebe3     +LDI R30 , LOW ( 2 * _0x0 + ( 1299 ) )
00107d e0f5     +LDI R31 , HIGH ( 2 * _0x0 + ( 1299 ) )
                 	__POINTW1FN _0x0,1299
00107e 940e 2d2e 	CALL SUBOPT_0x36
001080 940e 2cad 	CALL SUBOPT_0x24
001082 940e 04ec 	CALL _komunikat_z_czytnika_kodow
                 ; 0000 0697 
                 ; 0000 0698     }
                 ; 0000 0699 if(PORT_CZYTNIK.byte == 0x8F)
                 _0xAB:
001084 91a0 0502 	LDS  R26,_PORT_CZYTNIK
001086 38af      	CPI  R26,LOW(0x8F)
001087 f479      	BRNE _0xAC
                 ; 0000 069A     {
                 ; 0000 069B       macierz_zaciskow[rzad]=143;
001088 01f8      	MOVW R30,R16
001089 940e 2c3b 	CALL SUBOPT_0x13
00108b e8ef      	LDI  R30,LOW(143)
00108c e0f0      	LDI  R31,HIGH(143)
00108d 93ed      	ST   X+,R30
00108e 93fc      	ST   X,R31
                 ; 0000 069C       komunikat_z_czytnika_kodow("87-2087",rzad,0);
                +
00108f ebeb     +LDI R30 , LOW ( 2 * _0x0 + ( 1307 ) )
001090 e0f5     +LDI R31 , HIGH ( 2 * _0x0 + ( 1307 ) )
                 	__POINTW1FN _0x0,1307
001091 940e 2d2e 	CALL SUBOPT_0x36
001093 940e 2cad 	CALL SUBOPT_0x24
001095 940e 04ec 	CALL _komunikat_z_czytnika_kodow
                 ; 0000 069D 
                 ; 0000 069E     }
                 ; 0000 069F if(PORT_CZYTNIK.byte == 0x90)
                 _0xAC:
001097 91a0 0502 	LDS  R26,_PORT_CZYTNIK
001099 39a0      	CPI  R26,LOW(0x90)
00109a f469      	BRNE _0xAD
                 ; 0000 06A0     {
                 ; 0000 06A1       macierz_zaciskow[rzad]=144;
00109b 01f8      	MOVW R30,R16
00109c 940e 2c3b 	CALL SUBOPT_0x13
00109e e9e0      	LDI  R30,LOW(144)
00109f e0f0      	LDI  R31,HIGH(144)
0010a0 93ed      	ST   X+,R30
0010a1 93fc      	ST   X,R31
                 ; 0000 06A2       komunikat_z_czytnika_kodow("87-2585",rzad,1);
                +
0010a2 ece3     +LDI R30 , LOW ( 2 * _0x0 + ( 1315 ) )
0010a3 e0f5     +LDI R31 , HIGH ( 2 * _0x0 + ( 1315 ) )
                 	__POINTW1FN _0x0,1315
0010a4 940e 2d2e 	CALL SUBOPT_0x36
0010a6 940e 2d33 	CALL SUBOPT_0x37
                 ; 0000 06A3 
                 ; 0000 06A4     }
                 ; 0000 06A5 
                 ; 0000 06A6 
                 ; 0000 06A7 return rzad;
                 _0xAD:
0010a8 01f8      	MOVW R30,R16
0010a9 9109      	LD   R16,Y+
0010aa 9119      	LD   R17,Y+
0010ab 9508      	RET
                 ; 0000 06A8 }
                 ;
                 ;
                 ;void wybor_linijek_sterownikow(int rzad_local)
                 ; 0000 06AC {
                 _wybor_linijek_sterownikow:
                 ; 0000 06AD //zaczynam od tego
                 ; 0000 06AE //komentarz: celowo upraszam:
                 ; 0000 06AF //  a[2] = 0x22;    //ster4 ABS             //1,0,0,0,1,0  druciak    (1,0,0,0,1,0);
                 ; 0000 06B0 //a[4] = 0x21;    //ster3 ABS             //krazek scierny
                 ; 0000 06B1 
                 ; 0000 06B2 //legenda pierwotna
                 ; 0000 06B3             /*
                 ; 0000 06B4             a[0] = 0x05A;   //ster1
                 ; 0000 06B5             a[1] = a[0]+0x001;                                   //0x05B;   //ster2
                 ; 0000 06B6             a[2] = 0x22;    //ster4 ABS             //1,0,0,0,1,0  druciak    (1,0,0,0,1,0);
                 ; 0000 06B7             a[3] = 0x11;    //ster4 INV             //druciak
                 ; 0000 06B8             a[4] = a[2];   //0x21;    //ster3 ABS             //krazek scierny
                 ; 0000 06B9             a[5] = 0x196;   //delta okrag
                 ; 0000 06BA             a[6] = a[5]+0x001;            //0x197;   //okrag
                 ; 0000 06BB             a[7] = 0x12;    //ster3 INV             krazek scierny
                 ; 0000 06BC             a[8] = a[6]+0x001;                0x198;   //-delta okrag
                 ; 0000 06BD             a[9] = 0;          //na minus czy na plus wzgledem uklad liniowy szczotki drucianej   0 - na minus, 1 - na plus rzad 1
                 ; 0000 06BE             */
                 ; 0000 06BF 
                 ; 0000 06C0 
                 ; 0000 06C1 //macierz_zaciskow[rzad_local]
                 ; 0000 06C2 //macierz_zaciskow[rzad_local] = 140;
                 ; 0000 06C3 
                 ; 0000 06C4 
                 ; 0000 06C5 
                 ; 0000 06C6 switch(macierz_zaciskow[rzad_local])
                 ;	rzad_local -> Y+0
0010ac 81e8      	LD   R30,Y
0010ad 81f9      	LDD  R31,Y+1
0010ae 940e 2c3b 	CALL SUBOPT_0x13
0010b0 940e 337f 	CALL __GETW1P
                 ; 0000 06C7 {
                 ; 0000 06C8     case 0:
0010b2 9730      	SBIW R30,0
0010b3 f441      	BRNE _0xB1
                 ; 0000 06C9 
                 ; 0000 06CA             komunikat_na_panel("                                                ",adr1,adr2);
0010b4 940e 2d01 	CALL SUBOPT_0x31
                 ; 0000 06CB             komunikat_na_panel("Nie wczytano zacisku",adr1,adr2);
                +
0010b6 eceb     +LDI R30 , LOW ( 2 * _0x0 + ( 1323 ) )
0010b7 e0f5     +LDI R31 , HIGH ( 2 * _0x0 + ( 1323 ) )
                 	__POINTW1FN _0x0,1323
0010b8 940e 2d42 	CALL SUBOPT_0x3A
                 ; 0000 06CC 
                 ; 0000 06CD     break;
0010ba 940c 1914 	JMP  _0xB0
                 ; 0000 06CE 
                 ; 0000 06CF 
                 ; 0000 06D0      case 1:
                 _0xB1:
0010bc 30e1      	CPI  R30,LOW(0x1)
0010bd e0a0      	LDI  R26,HIGH(0x1)
0010be 07fa      	CPC  R31,R26
0010bf f451      	BRNE _0xB2
                 ; 0000 06D1 
                 ; 0000 06D2             a[0] = 0x0C8;   //ster1
0010c0 ece8      	LDI  R30,LOW(200)
0010c1 e0f0      	LDI  R31,HIGH(200)
0010c2 940e 2d45 	CALL SUBOPT_0x3B
                 ; 0000 06D3             a[3] = 0x11;    //ster4 INV druciak
0010c4 940e 2d4c 	CALL SUBOPT_0x3C
                 ; 0000 06D4             a[4] = 0x1B;    //ster3 ABS krazek scierny
0010c6 940e 2d53 	CALL SUBOPT_0x3D
                 ; 0000 06D5             a[5] = 0x196;   //delta okrag
                 ; 0000 06D6             a[7] = 0x11;    //ster3 INV krazek scierny
0010c8 940c 18fb 	JMP  _0x472
                 ; 0000 06D7             a[9] = 1;     //na minus czy na plus wzgledem uklad liniowy szczotki drucianej   0 - na minus, 1 - na plus rzad 1
                 ; 0000 06D8 
                 ; 0000 06D9             a[1] = a[0]+0x001;  //ster2
                 ; 0000 06DA             a[2] = a[4];        //ster4 ABS druciak
                 ; 0000 06DB             a[6] = a[5]+0x001;  //okrag
                 ; 0000 06DC             a[8] = a[6]+0x001;  //-delta okrag
                 ; 0000 06DD 
                 ; 0000 06DE     break;
                 ; 0000 06DF 
                 ; 0000 06E0       case 2:
                 _0xB2:
0010ca 30e2      	CPI  R30,LOW(0x2)
0010cb e0a0      	LDI  R26,HIGH(0x2)
0010cc 07fa      	CPC  R31,R26
0010cd f471      	BRNE _0xB3
                 ; 0000 06E1 
                 ; 0000 06E2             a[0] = 0x110;   //ster1
0010ce e1e0      	LDI  R30,LOW(272)
0010cf e0f1      	LDI  R31,HIGH(272)
0010d0 940e 2d45 	CALL SUBOPT_0x3B
                 ; 0000 06E3             a[3] = 0x10;    //ster4 INV druciak
0010d2 940e 2d62 	CALL SUBOPT_0x3E
                 ; 0000 06E4             a[4] = 0x1C;    //ster3 ABS krazek scierny
0010d4 940e 2d67 	CALL SUBOPT_0x3F
                 ; 0000 06E5             a[5] = 0x190;   //delta okrag
                 ; 0000 06E6             a[7] = 0x10;    //ster3 INV krazek scierny
0010d6 940e 2d62 	CALL SUBOPT_0x3E
                 ; 0000 06E7             a[9] = 0;     //na minus czy na plus wzgledem uklad liniowy szczotki drucianej   0 - na minus, 1 - na plus rzad 1
0010d8 940e 2d76 	CALL SUBOPT_0x40
0010da 940c 1901 	JMP  _0x473
                 ; 0000 06E8 
                 ; 0000 06E9             a[1] = a[0]+0x001;  //ster2
                 ; 0000 06EA             a[2] = a[4];        //ster4 ABS druciak
                 ; 0000 06EB             a[6] = a[5]+0x001;  //okrag
                 ; 0000 06EC             a[8] = a[6]+0x001;  //-delta okrag
                 ; 0000 06ED 
                 ; 0000 06EE     break;
                 ; 0000 06EF 
                 ; 0000 06F0       case 3:
                 _0xB3:
0010dc 30e3      	CPI  R30,LOW(0x3)
0010dd e0a0      	LDI  R26,HIGH(0x3)
0010de 07fa      	CPC  R31,R26
0010df f461      	BRNE _0xB4
                 ; 0000 06F1 
                 ; 0000 06F2             a[0] = 0x07A;   //ster1
0010e0 e7ea      	LDI  R30,LOW(122)
0010e1 e0f0      	LDI  R31,HIGH(122)
0010e2 940e 2d45 	CALL SUBOPT_0x3B
                 ; 0000 06F3             a[3] = 0x11;    //ster4 INV druciak
0010e4 940e 2d4c 	CALL SUBOPT_0x3C
                 ; 0000 06F4             a[4] = 0x18;    //ster3 ABS krazek scierny
0010e6 940e 2d7b 	CALL SUBOPT_0x41
                 ; 0000 06F5             a[5] = 0x196;   //delta okrag
0010e8 940e 2d84 	CALL SUBOPT_0x42
                 ; 0000 06F6             a[7] = 0x12;    //ster3 INV krazek scierny
                 ; 0000 06F7             a[9] = 0;     //na minus czy na plus wzgledem uklad liniowy szczotki drucianej   0 - na minus, 1 - na plus rzad 1
0010ea 940c 1901 	JMP  _0x473
                 ; 0000 06F8 
                 ; 0000 06F9             a[1] = a[0]+0x001;  //ster2
                 ; 0000 06FA             a[2] = a[4];        //ster4 ABS druciak
                 ; 0000 06FB             a[6] = a[5]+0x001;  //okrag
                 ; 0000 06FC             a[8] = a[6]+0x001;  //-delta okrag
                 ; 0000 06FD 
                 ; 0000 06FE     break;
                 ; 0000 06FF 
                 ; 0000 0700       case 4:
                 _0xB4:
0010ec 30e4      	CPI  R30,LOW(0x4)
0010ed e0a0      	LDI  R26,HIGH(0x4)
0010ee 07fa      	CPC  R31,R26
0010ef f461      	BRNE _0xB5
                 ; 0000 0701 
                 ; 0000 0702             a[0] = 0x102;   //ster1
0010f0 e0e2      	LDI  R30,LOW(258)
0010f1 e0f1      	LDI  R31,HIGH(258)
0010f2 940e 2d45 	CALL SUBOPT_0x3B
                 ; 0000 0703             a[3] = 0x11;    //ster4 INV druciak
0010f4 940e 2d4c 	CALL SUBOPT_0x3C
                 ; 0000 0704             a[4] = 0x1F;    //ster3 ABS krazek scierny
0010f6 940e 2d8d 	CALL SUBOPT_0x43
                 ; 0000 0705             a[5] = 0x196;   //delta okrag
0010f8 940e 2d84 	CALL SUBOPT_0x42
                 ; 0000 0706             a[7] = 0x12;    //ster3 INV krazek scierny
                 ; 0000 0707             a[9] = 0;     //na minus czy na plus wzgledem uklad liniowy szczotki drucianej   0 - na minus, 1 - na plus rzad 1
0010fa 940c 1901 	JMP  _0x473
                 ; 0000 0708 
                 ; 0000 0709             a[1] = a[0]+0x001;  //ster2
                 ; 0000 070A             a[2] = a[4];        //ster4 ABS druciak
                 ; 0000 070B             a[6] = a[5]+0x001;  //okrag
                 ; 0000 070C             a[8] = a[6]+0x001;  //-delta okrag
                 ; 0000 070D 
                 ; 0000 070E     break;
                 ; 0000 070F 
                 ; 0000 0710       case 5:
                 _0xB5:
0010fc 30e5      	CPI  R30,LOW(0x5)
0010fd e0a0      	LDI  R26,HIGH(0x5)
0010fe 07fa      	CPC  R31,R26
0010ff f459      	BRNE _0xB6
                 ; 0000 0711 
                 ; 0000 0712             a[0] = 0x0B0;   //ster1
001100 ebe0      	LDI  R30,LOW(176)
001101 e0f0      	LDI  R31,HIGH(176)
001102 940e 2d45 	CALL SUBOPT_0x3B
                 ; 0000 0713             a[3] = 0x11;    //ster4 INV druciak
001104 940e 2d4c 	CALL SUBOPT_0x3C
                 ; 0000 0714             a[4] = 0x1B;    //ster3 ABS krazek scierny
001106 940e 2d53 	CALL SUBOPT_0x3D
                 ; 0000 0715             a[5] = 0x196;   //delta okrag
                 ; 0000 0716             a[7] = 0x11;    //ster3 INV krazek scierny
001108 940e 2d96 	CALL SUBOPT_0x44
                 ; 0000 0717             a[9] = 0;     //na minus czy na plus wzgledem uklad liniowy szczotki drucianej   0 - na minus, 1 - na plus rzad 1
00110a c7f6      	RJMP _0x473
                 ; 0000 0718 
                 ; 0000 0719             a[1] = a[0]+0x001;  //ster2
                 ; 0000 071A             a[2] = a[4];        //ster4 ABS druciak
                 ; 0000 071B             a[6] = a[5]+0x001;  //okrag
                 ; 0000 071C             a[8] = a[6]+0x001;  //-delta okrag
                 ; 0000 071D 
                 ; 0000 071E     break;
                 ; 0000 071F 
                 ; 0000 0720       case 6:
                 _0xB6:
00110b 30e6      	CPI  R30,LOW(0x6)
00110c e0a0      	LDI  R26,HIGH(0x6)
00110d 07fa      	CPC  R31,R26
00110e f459      	BRNE _0xB7
                 ; 0000 0721 
                 ; 0000 0722             a[0] = 0x0FE;   //ster1
00110f efee      	LDI  R30,LOW(254)
001110 e0f0      	LDI  R31,HIGH(254)
001111 940e 2d45 	CALL SUBOPT_0x3B
                 ; 0000 0723             a[3] = 0x10;    //ster4 INV druciak
001113 940e 2d62 	CALL SUBOPT_0x3E
                 ; 0000 0724             a[4] = 0x1C;    //ster3 ABS krazek scierny
001115 940e 2d67 	CALL SUBOPT_0x3F
                 ; 0000 0725             a[5] = 0x190;   //delta okrag
                 ; 0000 0726             a[7] = 0x10;    //ster3 INV krazek scierny
001117 e1a0      	LDI  R26,LOW(16)
001118 e0b0      	LDI  R27,HIGH(16)
001119 c7e1      	RJMP _0x472
                 ; 0000 0727             a[9] = 1;     //na minus czy na plus wzgledem uklad liniowy szczotki drucianej   0 - na minus, 1 - na plus rzad 1
                 ; 0000 0728 
                 ; 0000 0729             a[1] = a[0]+0x001;  //ster2
                 ; 0000 072A             a[2] = a[4];        //ster4 ABS druciak
                 ; 0000 072B             a[6] = a[5]+0x001;  //okrag
                 ; 0000 072C             a[8] = a[6]+0x001;  //-delta okrag
                 ; 0000 072D 
                 ; 0000 072E     break;
                 ; 0000 072F 
                 ; 0000 0730 
                 ; 0000 0731       case 7:
                 _0xB7:
00111a 30e7      	CPI  R30,LOW(0x7)
00111b e0a0      	LDI  R26,HIGH(0x7)
00111c 07fa      	CPC  R31,R26
00111d f449      	BRNE _0xB8
                 ; 0000 0732 
                 ; 0000 0733             a[0] = 0x078;   //ster1
00111e e7e8      	LDI  R30,LOW(120)
00111f e0f0      	LDI  R31,HIGH(120)
001120 940e 2d45 	CALL SUBOPT_0x3B
                 ; 0000 0734             a[3] = 0x11;    //ster4 INV druciak
001122 940e 2d4c 	CALL SUBOPT_0x3C
                 ; 0000 0735             a[4] = 0x18;    //ster3 ABS krazek scierny
001124 940e 2d7b 	CALL SUBOPT_0x41
                 ; 0000 0736             a[5] = 0x196;   //delta okrag
001126 c7ce      	RJMP _0x474
                 ; 0000 0737             a[7] = 0x12;    //ster3 INV krazek scierny
                 ; 0000 0738             a[9] = 1;     //na minus czy na plus wzgledem uklad liniowy szczotki drucianej   0 - na minus, 1 - na plus rzad 1
                 ; 0000 0739 
                 ; 0000 073A             a[1] = a[0]+0x001;  //ster2
                 ; 0000 073B             a[2] = a[4];        //ster4 ABS druciak
                 ; 0000 073C             a[6] = a[5]+0x001;  //okrag
                 ; 0000 073D             a[8] = a[6]+0x001;  //-delta okrag
                 ; 0000 073E 
                 ; 0000 073F     break;
                 ; 0000 0740 
                 ; 0000 0741 
                 ; 0000 0742       case 8:
                 _0xB8:
001127 30e8      	CPI  R30,LOW(0x8)
001128 e0a0      	LDI  R26,HIGH(0x8)
001129 07fa      	CPC  R31,R26
00112a f449      	BRNE _0xB9
                 ; 0000 0743 
                 ; 0000 0744             a[0] = 0x0C0;   //ster1
00112b ece0      	LDI  R30,LOW(192)
00112c e0f0      	LDI  R31,HIGH(192)
00112d 940e 2d45 	CALL SUBOPT_0x3B
                 ; 0000 0745             a[3] = 0x11;    //ster4 INV druciak
00112f 940e 2d4c 	CALL SUBOPT_0x3C
                 ; 0000 0746             a[4] = 0x1F;    //ster3 ABS krazek scierny
001131 940e 2d8d 	CALL SUBOPT_0x43
                 ; 0000 0747             a[5] = 0x196;   //delta okrag
001133 c7c1      	RJMP _0x474
                 ; 0000 0748             a[7] = 0x12;    //ster3 INV krazek scierny
                 ; 0000 0749             a[9] = 1;     //na minus czy na plus wzgledem uklad liniowy szczotki drucianej   0 - na minus, 1 - na plus rzad 1
                 ; 0000 074A 
                 ; 0000 074B             a[1] = a[0]+0x001;  //ster2
                 ; 0000 074C             a[2] = a[4];        //ster4 ABS druciak
                 ; 0000 074D             a[6] = a[5]+0x001;  //okrag
                 ; 0000 074E             a[8] = a[6]+0x001;  //-delta okrag
                 ; 0000 074F 
                 ; 0000 0750     break;
                 ; 0000 0751 
                 ; 0000 0752 
                 ; 0000 0753       case 9:
                 _0xB9:
001134 30e9      	CPI  R30,LOW(0x9)
001135 e0a0      	LDI  R26,HIGH(0x9)
001136 07fa      	CPC  R31,R26
001137 f469      	BRNE _0xBA
                 ; 0000 0754 
                 ; 0000 0755             a[0] = 0x018;   //ster1
001138 e1e8      	LDI  R30,LOW(24)
001139 e0f0      	LDI  R31,HIGH(24)
00113a 940e 2d45 	CALL SUBOPT_0x3B
                 ; 0000 0756             a[3] = 0x11;    //ster4 INV druciak
00113c 940e 2d4c 	CALL SUBOPT_0x3C
                 ; 0000 0757             a[4] = 0x1F;    //ster3 ABS krazek scierny
00113e 940e 2d8d 	CALL SUBOPT_0x43
                 ; 0000 0758             a[5] = 0x196;   //delta okrag
001140 940e 2d99 	CALL SUBOPT_0x45
                 ; 0000 0759             a[7] = 0x11;    //ster3 INV krazek scierny
001142 940e 2d96 	CALL SUBOPT_0x44
                 ; 0000 075A             a[9] = 0;     //na minus czy na plus wzgledem uklad liniowy szczotki drucianej   0 - na minus, 1 - na plus rzad 1
001144 c7bc      	RJMP _0x473
                 ; 0000 075B 
                 ; 0000 075C             a[1] = a[0]+0x001;  //ster2
                 ; 0000 075D             a[2] = a[4];        //ster4 ABS druciak
                 ; 0000 075E             a[6] = a[5]+0x001;  //okrag
                 ; 0000 075F             a[8] = a[6]+0x001;  //-delta okrag
                 ; 0000 0760 
                 ; 0000 0761     break;
                 ; 0000 0762 
                 ; 0000 0763 
                 ; 0000 0764       case 10:
                 _0xBA:
001145 30ea      	CPI  R30,LOW(0xA)
001146 e0a0      	LDI  R26,HIGH(0xA)
001147 07fa      	CPC  R31,R26
001148 f459      	BRNE _0xBB
                 ; 0000 0765 
                 ; 0000 0766             a[0] = 0x016;   //ster1
001149 e1e6      	LDI  R30,LOW(22)
00114a e0f0      	LDI  R31,HIGH(22)
00114b 940e 2d45 	CALL SUBOPT_0x3B
                 ; 0000 0767             a[3] = 0x11;    //ster4 INV druciak
00114d 940e 2d4c 	CALL SUBOPT_0x3C
                 ; 0000 0768             a[4] = 0x1F;    //ster3 ABS krazek scierny
00114f 940e 2da0 	CALL SUBOPT_0x46
                 ; 0000 0769             a[5] = 0x199;   //delta okrag
001151 940e 2d84 	CALL SUBOPT_0x42
                 ; 0000 076A             a[7] = 0x12;    //ster3 INV krazek scierny
                 ; 0000 076B             a[9] = 0;     //na minus czy na plus wzgledem uklad liniowy szczotki drucianej   0 - na minus, 1 - na plus rzad 1
001153 c7ad      	RJMP _0x473
                 ; 0000 076C 
                 ; 0000 076D             a[1] = a[0]+0x001;  //ster2
                 ; 0000 076E             a[2] = a[4];        //ster4 ABS druciak
                 ; 0000 076F             a[6] = a[5]+0x001;  //okrag
                 ; 0000 0770             a[8] = a[6]+0x001;  //-delta okrag
                 ; 0000 0771 
                 ; 0000 0772     break;
                 ; 0000 0773 
                 ; 0000 0774 
                 ; 0000 0775       case 11:
                 _0xBB:
001154 30eb      	CPI  R30,LOW(0xB)
001155 e0a0      	LDI  R26,HIGH(0xB)
001156 07fa      	CPC  R31,R26
001157 f459      	BRNE _0xBC
                 ; 0000 0776 
                 ; 0000 0777             a[0] = 0x074;   //ster1
001158 e7e4      	LDI  R30,LOW(116)
001159 e0f0      	LDI  R31,HIGH(116)
00115a 940e 2d45 	CALL SUBOPT_0x3B
                 ; 0000 0778             a[3] = 0x11;    //ster4 INV druciak
00115c 940e 2d4c 	CALL SUBOPT_0x3C
                 ; 0000 0779             a[4] = 0x19;    //ster3 ABS krazek scierny
00115e 940e 2da9 	CALL SUBOPT_0x47
                 ; 0000 077A             a[5] = 0x199;   //delta okrag
001160 940e 2d84 	CALL SUBOPT_0x42
                 ; 0000 077B             a[7] = 0x12;    //ster3 INV krazek scierny
                 ; 0000 077C             a[9] = 0;     //na minus czy na plus wzgledem uklad liniowy szczotki drucianej   0 - na minus, 1 - na plus rzad 1
001162 c79e      	RJMP _0x473
                 ; 0000 077D 
                 ; 0000 077E             a[1] = a[0]+0x001;  //ster2
                 ; 0000 077F             a[2] = a[4];        //ster4 ABS druciak
                 ; 0000 0780             a[6] = a[5]+0x001;  //okrag
                 ; 0000 0781             a[8] = a[6]+0x001;  //-delta okrag
                 ; 0000 0782 
                 ; 0000 0783     break;
                 ; 0000 0784 
                 ; 0000 0785 
                 ; 0000 0786       case 12:
                 _0xBC:
001163 30ec      	CPI  R30,LOW(0xC)
001164 e0a0      	LDI  R26,HIGH(0xC)
001165 07fa      	CPC  R31,R26
001166 f449      	BRNE _0xBD
                 ; 0000 0787 
                 ; 0000 0788             a[0] = 0x096;   //ster1
001167 e9e6      	LDI  R30,LOW(150)
001168 e0f0      	LDI  R31,HIGH(150)
001169 940e 2d45 	CALL SUBOPT_0x3B
                 ; 0000 0789             a[3] = 0x11;    //ster4 INV druciak
00116b 940e 2d4c 	CALL SUBOPT_0x3C
                 ; 0000 078A             a[4] = 0x21;    //ster3 ABS krazek scierny
00116d 940e 2db2 	CALL SUBOPT_0x48
                 ; 0000 078B             a[5] = 0x199;   //delta okrag
00116f c785      	RJMP _0x474
                 ; 0000 078C             a[7] = 0x12;    //ster3 INV krazek scierny
                 ; 0000 078D             a[9] = 1;     //na minus czy na plus wzgledem uklad liniowy szczotki drucianej   0 - na minus, 1 - na plus rzad 1
                 ; 0000 078E 
                 ; 0000 078F             a[1] = a[0]+0x001;  //ster2
                 ; 0000 0790             a[2] = a[4];        //ster4 ABS druciak
                 ; 0000 0791             a[6] = a[5]+0x001;  //okrag
                 ; 0000 0792             a[8] = a[6]+0x001;  //-delta okrag
                 ; 0000 0793 
                 ; 0000 0794     break;
                 ; 0000 0795 
                 ; 0000 0796 
                 ; 0000 0797       case 13:
                 _0xBD:
001170 30ed      	CPI  R30,LOW(0xD)
001171 e0a0      	LDI  R26,HIGH(0xD)
001172 07fa      	CPC  R31,R26
001173 f459      	BRNE _0xBE
                 ; 0000 0798 
                 ; 0000 0799             a[0] = 0x01A;   //ster1
001174 e1ea      	LDI  R30,LOW(26)
001175 e0f0      	LDI  R31,HIGH(26)
001176 940e 2d45 	CALL SUBOPT_0x3B
                 ; 0000 079A             a[3] = 0x11;    //ster4 INV druciak
001178 940e 2d4c 	CALL SUBOPT_0x3C
                 ; 0000 079B             a[4] = 0x1F;    //ster3 ABS krazek scierny
00117a 940e 2d8d 	CALL SUBOPT_0x43
                 ; 0000 079C             a[5] = 0x196;   //delta okrag
00117c 940e 2d99 	CALL SUBOPT_0x45
                 ; 0000 079D             a[7] = 0x11;    //ster3 INV krazek scierny
00117e c77c      	RJMP _0x472
                 ; 0000 079E             a[9] = 1;     //na minus czy na plus wzgledem uklad liniowy szczotki drucianej   0 - na minus, 1 - na plus rzad 1
                 ; 0000 079F 
                 ; 0000 07A0             a[1] = a[0]+0x001;  //ster2
                 ; 0000 07A1             a[2] = a[4];        //ster4 ABS druciak
                 ; 0000 07A2             a[6] = a[5]+0x001;  //okrag
                 ; 0000 07A3             a[8] = a[6]+0x001;  //-delta okrag
                 ; 0000 07A4 
                 ; 0000 07A5     break;
                 ; 0000 07A6 
                 ; 0000 07A7 
                 ; 0000 07A8       case 14:
                 _0xBE:
00117f 30ee      	CPI  R30,LOW(0xE)
001180 e0a0      	LDI  R26,HIGH(0xE)
001181 07fa      	CPC  R31,R26
001182 f449      	BRNE _0xBF
                 ; 0000 07A9 
                 ; 0000 07AA             a[0] = 0x05E;   //ster1
001183 e5ee      	LDI  R30,LOW(94)
001184 e0f0      	LDI  R31,HIGH(94)
001185 940e 2d45 	CALL SUBOPT_0x3B
                 ; 0000 07AB             a[3] = 0x11;    //ster4 INV druciak
001187 940e 2d4c 	CALL SUBOPT_0x3C
                 ; 0000 07AC             a[4] = 0x1F;    //ster3 ABS krazek scierny
001189 940e 2da0 	CALL SUBOPT_0x46
                 ; 0000 07AD             a[5] = 0x199;   //delta okrag
00118b c769      	RJMP _0x474
                 ; 0000 07AE             a[7] = 0x12;    //ster3 INV krazek scierny
                 ; 0000 07AF             a[9] = 1;     //na minus czy na plus wzgledem uklad liniowy szczotki drucianej   0 - na minus, 1 - na plus rzad 1
                 ; 0000 07B0 
                 ; 0000 07B1             a[1] = a[0]+0x001;  //ster2
                 ; 0000 07B2             a[2] = a[4];        //ster4 ABS druciak
                 ; 0000 07B3             a[6] = a[5]+0x001;  //okrag
                 ; 0000 07B4             a[8] = a[6]+0x001;  //-delta okrag
                 ; 0000 07B5 
                 ; 0000 07B6     break;
                 ; 0000 07B7 
                 ; 0000 07B8 
                 ; 0000 07B9       case 15:
                 _0xBF:
00118c 30ef      	CPI  R30,LOW(0xF)
00118d e0a0      	LDI  R26,HIGH(0xF)
00118e 07fa      	CPC  R31,R26
00118f f449      	BRNE _0xC0
                 ; 0000 07BA 
                 ; 0000 07BB             a[0] = 0x084;   //ster1
001190 e8e4      	LDI  R30,LOW(132)
001191 e0f0      	LDI  R31,HIGH(132)
001192 940e 2d45 	CALL SUBOPT_0x3B
                 ; 0000 07BC             a[3] = 0x11;    //ster4 INV druciak
001194 940e 2d4c 	CALL SUBOPT_0x3C
                 ; 0000 07BD             a[4] = 0x19;    //ster3 ABS krazek scierny
001196 940e 2da9 	CALL SUBOPT_0x47
                 ; 0000 07BE             a[5] = 0x199;   //delta okrag
001198 c75c      	RJMP _0x474
                 ; 0000 07BF             a[7] = 0x12;    //ster3 INV krazek scierny
                 ; 0000 07C0             a[9] = 1;     //na minus czy na plus wzgledem uklad liniowy szczotki drucianej   0 - na minus, 1 - na plus rzad 1
                 ; 0000 07C1 
                 ; 0000 07C2             a[1] = a[0]+0x001;  //ster2
                 ; 0000 07C3             a[2] = a[4];        //ster4 ABS druciak
                 ; 0000 07C4             a[6] = a[5]+0x001;  //okrag
                 ; 0000 07C5             a[8] = a[6]+0x001;  //-delta okrag
                 ; 0000 07C6 
                 ; 0000 07C7     break;
                 ; 0000 07C8 
                 ; 0000 07C9 
                 ; 0000 07CA       case 16:
                 _0xC0:
001199 31e0      	CPI  R30,LOW(0x10)
00119a e0a0      	LDI  R26,HIGH(0x10)
00119b 07fa      	CPC  R31,R26
00119c f449      	BRNE _0xC1
                 ; 0000 07CB 
                 ; 0000 07CC             a[0] = 0x0B8;   //ster1
00119d ebe8      	LDI  R30,LOW(184)
00119e e0f0      	LDI  R31,HIGH(184)
00119f 940e 2d45 	CALL SUBOPT_0x3B
                 ; 0000 07CD             a[3] = 0x11;    //ster4 INV druciak
0011a1 940e 2d4c 	CALL SUBOPT_0x3C
                 ; 0000 07CE             a[4] = 0x20;    //ster3 ABS krazek scierny
0011a3 940e 2dbb 	CALL SUBOPT_0x49
                 ; 0000 07CF             a[5] = 0x199;   //delta okrag
                 ; 0000 07D0             a[7] = 0x12;    //ster3 INV krazek scierny
                 ; 0000 07D1             a[9] = 0;     //na minus czy na plus wzgledem uklad liniowy szczotki drucianej   0 - na minus, 1 - na plus rzad 1
0011a5 c75b      	RJMP _0x473
                 ; 0000 07D2 
                 ; 0000 07D3             a[1] = a[0]+0x001;  //ster2
                 ; 0000 07D4             a[2] = a[4];        //ster4 ABS druciak
                 ; 0000 07D5             a[6] = a[5]+0x001;  //okrag
                 ; 0000 07D6             a[8] = a[6]+0x001;  //-delta okrag
                 ; 0000 07D7 
                 ; 0000 07D8     break;
                 ; 0000 07D9 
                 ; 0000 07DA       case 17:
                 _0xC1:
0011a6 31e1      	CPI  R30,LOW(0x11)
0011a7 e0a0      	LDI  R26,HIGH(0x11)
0011a8 07fa      	CPC  R31,R26
0011a9 f459      	BRNE _0xC2
                 ; 0000 07DB 
                 ; 0000 07DC             a[0] = 0x020;   //ster1
0011aa e2e0      	LDI  R30,LOW(32)
0011ab e0f0      	LDI  R31,HIGH(32)
0011ac 940e 2d45 	CALL SUBOPT_0x3B
                 ; 0000 07DD             a[3] = 0x11;    //ster4 INV druciak
0011ae 940e 2d4c 	CALL SUBOPT_0x3C
                 ; 0000 07DE             a[4] = 0x1B;    //ster3 ABS krazek scierny
0011b0 940e 2d53 	CALL SUBOPT_0x3D
                 ; 0000 07DF             a[5] = 0x196;   //delta okrag
                 ; 0000 07E0             a[7] = 0x11;    //ster3 INV krazek scierny
0011b2 940e 2d96 	CALL SUBOPT_0x44
                 ; 0000 07E1             a[9] = 0;     //na minus czy na plus wzgledem uklad liniowy szczotki drucianej   0 - na minus, 1 - na plus rzad 1
0011b4 c74c      	RJMP _0x473
                 ; 0000 07E2 
                 ; 0000 07E3             a[1] = a[0]+0x001;  //ster2
                 ; 0000 07E4             a[2] = a[4];        //ster4 ABS druciak
                 ; 0000 07E5             a[6] = a[5]+0x001;  //okrag
                 ; 0000 07E6             a[8] = a[6]+0x001;  //-delta okrag
                 ; 0000 07E7 
                 ; 0000 07E8     break;
                 ; 0000 07E9 
                 ; 0000 07EA 
                 ; 0000 07EB       case 18:
                 _0xC2:
0011b5 31e2      	CPI  R30,LOW(0x12)
0011b6 e0a0      	LDI  R26,HIGH(0x12)
0011b7 07fa      	CPC  R31,R26
0011b8 f469      	BRNE _0xC3
                 ; 0000 07EC 
                 ; 0000 07ED             a[0] = 0x098;   //ster1
0011b9 e9e8      	LDI  R30,LOW(152)
0011ba e0f0      	LDI  R31,HIGH(152)
0011bb 940e 2d45 	CALL SUBOPT_0x3B
                 ; 0000 07EE             a[3] = 0x10;    //ster4 INV druciak
0011bd 940e 2d62 	CALL SUBOPT_0x3E
                 ; 0000 07EF             a[4] = 0x16;    //ster3 ABS krazek scierny
0011bf 940e 2dc4 	CALL SUBOPT_0x4A
                 ; 0000 07F0             a[5] = 0x190;   //delta okrag
                 ; 0000 07F1             a[7] = 0x10;    //ster3 INV krazek scierny
0011c1 940e 2d62 	CALL SUBOPT_0x3E
                 ; 0000 07F2             a[9] = 0;     //na minus czy na plus wzgledem uklad liniowy szczotki drucianej   0 - na minus, 1 - na plus rzad 1
0011c3 940e 2d76 	CALL SUBOPT_0x40
0011c5 c73b      	RJMP _0x473
                 ; 0000 07F3 
                 ; 0000 07F4             a[1] = a[0]+0x001;  //ster2
                 ; 0000 07F5             a[2] = a[4];        //ster4 ABS druciak
                 ; 0000 07F6             a[6] = a[5]+0x001;  //okrag
                 ; 0000 07F7             a[8] = a[6]+0x001;  //-delta okrag
                 ; 0000 07F8 
                 ; 0000 07F9     break;
                 ; 0000 07FA 
                 ; 0000 07FB 
                 ; 0000 07FC 
                 ; 0000 07FD       case 19:
                 _0xC3:
0011c6 31e3      	CPI  R30,LOW(0x13)
0011c7 e0a0      	LDI  R26,HIGH(0x13)
0011c8 07fa      	CPC  R31,R26
0011c9 f459      	BRNE _0xC4
                 ; 0000 07FE 
                 ; 0000 07FF             a[0] = 0x0AA;   //ster1
0011ca eaea      	LDI  R30,LOW(170)
0011cb e0f0      	LDI  R31,HIGH(170)
0011cc 940e 2d45 	CALL SUBOPT_0x3B
                 ; 0000 0800             a[3] = 0x11;    //ster4 INV druciak
0011ce 940e 2d4c 	CALL SUBOPT_0x3C
                 ; 0000 0801             a[4] = 0x1D;    //ster3 ABS krazek scierny
0011d0 940e 2dd3 	CALL SUBOPT_0x4B
                 ; 0000 0802             a[5] = 0x199;   //delta okrag
0011d2 940e 2dda 	CALL SUBOPT_0x4C
                 ; 0000 0803             a[7] = 0x12;    //ster3 INV krazek scierny
                 ; 0000 0804             a[9] = 0;     //na minus czy na plus wzgledem uklad liniowy szczotki drucianej   0 - na minus, 1 - na plus rzad 1
0011d4 c72c      	RJMP _0x473
                 ; 0000 0805 
                 ; 0000 0806             a[1] = a[0]+0x001;  //ster2
                 ; 0000 0807             a[2] = a[4];        //ster4 ABS druciak
                 ; 0000 0808             a[6] = a[5]+0x001;  //okrag
                 ; 0000 0809             a[8] = a[6]+0x001;  //-delta okrag
                 ; 0000 080A 
                 ; 0000 080B     break;
                 ; 0000 080C 
                 ; 0000 080D 
                 ; 0000 080E       case 20:
                 _0xC4:
0011d5 31e4      	CPI  R30,LOW(0x14)
0011d6 e0a0      	LDI  R26,HIGH(0x14)
0011d7 07fa      	CPC  R31,R26
0011d8 f469      	BRNE _0xC5
                 ; 0000 080F 
                 ; 0000 0810             a[0] = 0x042;   //ster1
0011d9 e4e2      	LDI  R30,LOW(66)
0011da e0f0      	LDI  R31,HIGH(66)
0011db 940e 2d45 	CALL SUBOPT_0x3B
                 ; 0000 0811             a[3] = 0x11;    //ster4 INV druciak
0011dd 940e 2d4c 	CALL SUBOPT_0x3C
                 ; 0000 0812             a[4] = 0x1D;    //ster3 ABS krazek scierny
0011df 940e 2dd3 	CALL SUBOPT_0x4B
                 ; 0000 0813             a[5] = 0x190;   //delta okrag
0011e1 940e 2ddd 	CALL SUBOPT_0x4D
                 ; 0000 0814             a[7] = 0x0F;    //ster3 INV krazek scierny
0011e3 940e 2d96 	CALL SUBOPT_0x44
                 ; 0000 0815             a[9] = 0;     //na minus czy na plus wzgledem uklad liniowy szczotki drucianej   0 - na minus, 1 - na plus rzad 1
0011e5 c71b      	RJMP _0x473
                 ; 0000 0816 
                 ; 0000 0817             a[1] = a[0]+0x001;  //ster2
                 ; 0000 0818             a[2] = a[4];        //ster4 ABS druciak
                 ; 0000 0819             a[6] = a[5]+0x001;  //okrag
                 ; 0000 081A             a[8] = a[6]+0x001;  //-delta okrag
                 ; 0000 081B 
                 ; 0000 081C     break;
                 ; 0000 081D 
                 ; 0000 081E 
                 ; 0000 081F       case 21:
                 _0xC5:
0011e6 31e5      	CPI  R30,LOW(0x15)
0011e7 e0a0      	LDI  R26,HIGH(0x15)
0011e8 07fa      	CPC  R31,R26
0011e9 f449      	BRNE _0xC6
                 ; 0000 0820 
                 ; 0000 0821             a[0] = 0x04E;   //ster1
0011ea e4ee      	LDI  R30,LOW(78)
0011eb e0f0      	LDI  R31,HIGH(78)
0011ec 940e 2d45 	CALL SUBOPT_0x3B
                 ; 0000 0822             a[3] = 0x11;    //ster4 INV druciak
0011ee 940e 2d4c 	CALL SUBOPT_0x3C
                 ; 0000 0823             a[4] = 0x1B;    //ster3 ABS krazek scierny
0011f0 940e 2d53 	CALL SUBOPT_0x3D
                 ; 0000 0824             a[5] = 0x196;   //delta okrag
                 ; 0000 0825             a[7] = 0x11;    //ster3 INV krazek scierny
0011f2 c708      	RJMP _0x472
                 ; 0000 0826             a[9] = 1;     //na minus czy na plus wzgledem uklad liniowy szczotki drucianej   0 - na minus, 1 - na plus rzad 1
                 ; 0000 0827 
                 ; 0000 0828             a[1] = a[0]+0x001;  //ster2
                 ; 0000 0829             a[2] = a[4];        //ster4 ABS druciak
                 ; 0000 082A             a[6] = a[5]+0x001;  //okrag
                 ; 0000 082B             a[8] = a[6]+0x001;  //-delta okrag
                 ; 0000 082C 
                 ; 0000 082D     break;
                 ; 0000 082E 
                 ; 0000 082F       case 22:
                 _0xC6:
0011f3 31e6      	CPI  R30,LOW(0x16)
0011f4 e0a0      	LDI  R26,HIGH(0x16)
0011f5 07fa      	CPC  R31,R26
0011f6 f459      	BRNE _0xC7
                 ; 0000 0830 
                 ; 0000 0831             a[0] = 0x0C2;   //ster1
0011f7 ece2      	LDI  R30,LOW(194)
0011f8 e0f0      	LDI  R31,HIGH(194)
0011f9 940e 2d45 	CALL SUBOPT_0x3B
                 ; 0000 0832             a[3] = 0x10;    //ster4 INV druciak
0011fb 940e 2d62 	CALL SUBOPT_0x3E
                 ; 0000 0833             a[4] = 0x16;    //ster3 ABS krazek scierny
0011fd 940e 2dc4 	CALL SUBOPT_0x4A
                 ; 0000 0834             a[5] = 0x190;   //delta okrag
                 ; 0000 0835             a[7] = 0x10;    //ster3 INV krazek scierny
0011ff e1a0      	LDI  R26,LOW(16)
001200 e0b0      	LDI  R27,HIGH(16)
001201 c6f9      	RJMP _0x472
                 ; 0000 0836             a[9] = 1;     //na minus czy na plus wzgledem uklad liniowy szczotki drucianej   0 - na minus, 1 - na plus rzad 1
                 ; 0000 0837 
                 ; 0000 0838             a[1] = a[0]+0x001;  //ster2
                 ; 0000 0839             a[2] = a[4];        //ster4 ABS druciak
                 ; 0000 083A             a[6] = a[5]+0x001;  //okrag
                 ; 0000 083B             a[8] = a[6]+0x001;  //-delta okrag
                 ; 0000 083C 
                 ; 0000 083D     break;
                 ; 0000 083E 
                 ; 0000 083F 
                 ; 0000 0840       case 23:
                 _0xC7:
001202 31e7      	CPI  R30,LOW(0x17)
001203 e0a0      	LDI  R26,HIGH(0x17)
001204 07fa      	CPC  R31,R26
001205 f459      	BRNE _0xC8
                 ; 0000 0841 
                 ; 0000 0842             a[0] = 0x0CE;   //ster1
001206 ecee      	LDI  R30,LOW(206)
001207 e0f0      	LDI  R31,HIGH(206)
001208 940e 2d45 	CALL SUBOPT_0x3B
                 ; 0000 0843             a[3] = 0x11;    //ster4 INV druciak
00120a 940e 2d4c 	CALL SUBOPT_0x3C
                 ; 0000 0844             a[4] = 0x1D;    //ster3 ABS krazek scierny
00120c 940e 2dd3 	CALL SUBOPT_0x4B
                 ; 0000 0845             a[5] = 0x199;   //delta okrag
00120e e9a9      	LDI  R26,LOW(409)
00120f e0b1      	LDI  R27,HIGH(409)
001210 c6e4      	RJMP _0x474
                 ; 0000 0846             a[7] = 0x12;    //ster3 INV krazek scierny
                 ; 0000 0847             a[9] = 1;     //na minus czy na plus wzgledem uklad liniowy szczotki drucianej   0 - na minus, 1 - na plus rzad 1
                 ; 0000 0848 
                 ; 0000 0849             a[1] = a[0]+0x001;  //ster2
                 ; 0000 084A             a[2] = a[4];        //ster4 ABS druciak
                 ; 0000 084B             a[6] = a[5]+0x001;  //okrag
                 ; 0000 084C             a[8] = a[6]+0x001;  //-delta okrag
                 ; 0000 084D 
                 ; 0000 084E     break;
                 ; 0000 084F 
                 ; 0000 0850 
                 ; 0000 0851       case 24:
                 _0xC8:
001211 31e8      	CPI  R30,LOW(0x18)
001212 e0a0      	LDI  R26,HIGH(0x18)
001213 07fa      	CPC  R31,R26
001214 f459      	BRNE _0xC9
                 ; 0000 0852 
                 ; 0000 0853             a[0] = 0x040;   //ster1
001215 e4e0      	LDI  R30,LOW(64)
001216 e0f0      	LDI  R31,HIGH(64)
001217 940e 2d45 	CALL SUBOPT_0x3B
                 ; 0000 0854             a[3] = 0x11;    //ster4 INV druciak
001219 940e 2d4c 	CALL SUBOPT_0x3C
                 ; 0000 0855             a[4] = 0x1D;    //ster3 ABS krazek scierny
00121b 940e 2dd3 	CALL SUBOPT_0x4B
                 ; 0000 0856             a[5] = 0x190;   //delta okrag
00121d 940e 2ddd 	CALL SUBOPT_0x4D
                 ; 0000 0857             a[7] = 0x0F;    //ster3 INV krazek scierny
00121f c6db      	RJMP _0x472
                 ; 0000 0858             a[9] = 1;     //na minus czy na plus wzgledem uklad liniowy szczotki drucianej   0 - na minus, 1 - na plus rzad 1
                 ; 0000 0859 
                 ; 0000 085A             a[1] = a[0]+0x001;  //ster2
                 ; 0000 085B             a[2] = a[4];        //ster4 ABS druciak
                 ; 0000 085C             a[6] = a[5]+0x001;  //okrag
                 ; 0000 085D             a[8] = a[6]+0x001;  //-delta okrag
                 ; 0000 085E 
                 ; 0000 085F     break;
                 ; 0000 0860 
                 ; 0000 0861       case 25:
                 _0xC9:
001220 31e9      	CPI  R30,LOW(0x19)
001221 e0a0      	LDI  R26,HIGH(0x19)
001222 07fa      	CPC  R31,R26
001223 f459      	BRNE _0xCA
                 ; 0000 0862 
                 ; 0000 0863             a[0] = 0x02E;   //ster1
001224 e2ee      	LDI  R30,LOW(46)
001225 e0f0      	LDI  R31,HIGH(46)
001226 940e 2d45 	CALL SUBOPT_0x3B
                 ; 0000 0864             a[3] = 0x11;    //ster4 INV druciak
001228 940e 2d4c 	CALL SUBOPT_0x3C
                 ; 0000 0865             a[4] = 0x1F;    //ster3 ABS krazek scierny
00122a 940e 2da0 	CALL SUBOPT_0x46
                 ; 0000 0866             a[5] = 0x199;   //delta okrag
00122c 940e 2d84 	CALL SUBOPT_0x42
                 ; 0000 0867             a[7] = 0x12;    //ster3 INV krazek scierny
                 ; 0000 0868             a[9] = 0;     //na minus czy na plus wzgledem uklad liniowy szczotki drucianej   0 - na minus, 1 - na plus rzad 1
00122e c6d2      	RJMP _0x473
                 ; 0000 0869 
                 ; 0000 086A             a[1] = a[0]+0x001;  //ster2
                 ; 0000 086B             a[2] = a[4];        //ster4 ABS druciak
                 ; 0000 086C             a[6] = a[5]+0x001;  //okrag
                 ; 0000 086D             a[8] = a[6]+0x001;  //-delta okrag
                 ; 0000 086E 
                 ; 0000 086F     break;
                 ; 0000 0870 
                 ; 0000 0871       case 26:
                 _0xCA:
00122f 31ea      	CPI  R30,LOW(0x1A)
001230 e0a0      	LDI  R26,HIGH(0x1A)
001231 07fa      	CPC  R31,R26
001232 f459      	BRNE _0xCB
                 ; 0000 0872 
                 ; 0000 0873             a[0] = 0x0FA;   //ster1
001233 efea      	LDI  R30,LOW(250)
001234 e0f0      	LDI  R31,HIGH(250)
001235 940e 2d45 	CALL SUBOPT_0x3B
                 ; 0000 0874             a[3] = 0x11;    //ster4 INV druciak
001237 940e 2d4c 	CALL SUBOPT_0x3C
                 ; 0000 0875             a[4] = 0x18;    //ster3 ABS krazek scierny
001239 940e 2de6 	CALL SUBOPT_0x4E
                 ; 0000 0876             a[5] = 0x190;   //delta okrag
                 ; 0000 0877             a[7] = 0x11;    //ster3 INV krazek scierny
00123b 940e 2d96 	CALL SUBOPT_0x44
                 ; 0000 0878             a[9] = 0;     //na minus czy na plus wzgledem uklad liniowy szczotki drucianej   0 - na minus, 1 - na plus rzad 1
00123d c6c3      	RJMP _0x473
                 ; 0000 0879 
                 ; 0000 087A             a[1] = a[0]+0x001;  //ster2
                 ; 0000 087B             a[2] = a[4];        //ster4 ABS druciak
                 ; 0000 087C             a[6] = a[5]+0x001;  //okrag
                 ; 0000 087D             a[8] = a[6]+0x001;  //-delta okrag
                 ; 0000 087E 
                 ; 0000 087F     break;
                 ; 0000 0880 
                 ; 0000 0881 
                 ; 0000 0882       case 27:
                 _0xCB:
00123e 31eb      	CPI  R30,LOW(0x1B)
00123f e0a0      	LDI  R26,HIGH(0x1B)
001240 07fa      	CPC  R31,R26
001241 f449      	BRNE _0xCC
                 ; 0000 0883 
                 ; 0000 0884             a[0] = 0x06C;   //ster1
001242 e6ec      	LDI  R30,LOW(108)
001243 e0f0      	LDI  R31,HIGH(108)
001244 940e 2d45 	CALL SUBOPT_0x3B
                 ; 0000 0885             a[3] = 0x11;    //ster4 INV druciak
001246 940e 2d4c 	CALL SUBOPT_0x3C
                 ; 0000 0886             a[4] = 0x20;    //ster3 ABS krazek scierny
001248 940e 2dbb 	CALL SUBOPT_0x49
                 ; 0000 0887             a[5] = 0x199;   //delta okrag
                 ; 0000 0888             a[7] = 0x12;    //ster3 INV krazek scierny
                 ; 0000 0889             a[9] = 0;     //na minus czy na plus wzgledem uklad liniowy szczotki drucianej   0 - na minus, 1 - na plus rzad 1
00124a c6b6      	RJMP _0x473
                 ; 0000 088A 
                 ; 0000 088B             a[1] = a[0]+0x001;  //ster2
                 ; 0000 088C             a[2] = a[4];        //ster4 ABS druciak
                 ; 0000 088D             a[6] = a[5]+0x001;  //okrag
                 ; 0000 088E             a[8] = a[6]+0x001;  //-delta okrag
                 ; 0000 088F 
                 ; 0000 0890     break;
                 ; 0000 0891 
                 ; 0000 0892 
                 ; 0000 0893       case 28:
                 _0xCC:
00124b 31ec      	CPI  R30,LOW(0x1C)
00124c e0a0      	LDI  R26,HIGH(0x1C)
00124d 07fa      	CPC  R31,R26
00124e f449      	BRNE _0xCD
                 ; 0000 0894 
                 ; 0000 0895             a[0] = 0x0A4;   //ster1
00124f eae4      	LDI  R30,LOW(164)
001250 e0f0      	LDI  R31,HIGH(164)
001251 940e 2d45 	CALL SUBOPT_0x3B
                 ; 0000 0896             a[3] = 0x11;    //ster4 INV druciak
001253 940e 2d4c 	CALL SUBOPT_0x3C
                 ; 0000 0897             a[4] = 0x21;    //ster3 ABS krazek scierny
001255 940e 2db2 	CALL SUBOPT_0x48
                 ; 0000 0898             a[5] = 0x199;   //delta okrag
001257 c69d      	RJMP _0x474
                 ; 0000 0899             a[7] = 0x12;    //ster3 INV krazek scierny
                 ; 0000 089A             a[9] = 1;     //na minus czy na plus wzgledem uklad liniowy szczotki drucianej   0 - na minus, 1 - na plus rzad 1
                 ; 0000 089B 
                 ; 0000 089C             a[1] = a[0]+0x001;  //ster2
                 ; 0000 089D             a[2] = a[4];        //ster4 ABS druciak
                 ; 0000 089E             a[6] = a[5]+0x001;  //okrag
                 ; 0000 089F             a[8] = a[6]+0x001;  //-delta okrag
                 ; 0000 08A0 
                 ; 0000 08A1     break;
                 ; 0000 08A2 
                 ; 0000 08A3       case 29:
                 _0xCD:
001258 31ed      	CPI  R30,LOW(0x1D)
001259 e0a0      	LDI  R26,HIGH(0x1D)
00125a 07fa      	CPC  R31,R26
00125b f449      	BRNE _0xCE
                 ; 0000 08A4 
                 ; 0000 08A5             a[0] = 0x02A;   //ster1
00125c e2ea      	LDI  R30,LOW(42)
00125d e0f0      	LDI  R31,HIGH(42)
00125e 940e 2d45 	CALL SUBOPT_0x3B
                 ; 0000 08A6             a[3] = 0x11;    //ster4 INV druciak
001260 940e 2d4c 	CALL SUBOPT_0x3C
                 ; 0000 08A7             a[4] = 0x1F;    //ster3 ABS krazek scierny
001262 940e 2da0 	CALL SUBOPT_0x46
                 ; 0000 08A8             a[5] = 0x199;   //delta okrag
001264 c690      	RJMP _0x474
                 ; 0000 08A9             a[7] = 0x12;    //ster3 INV krazek scierny
                 ; 0000 08AA             a[9] = 1;     //na minus czy na plus wzgledem uklad liniowy szczotki drucianej   0 - na minus, 1 - na plus rzad 1
                 ; 0000 08AB 
                 ; 0000 08AC             a[1] = a[0]+0x001;  //ster2
                 ; 0000 08AD             a[2] = a[4];        //ster4 ABS druciak
                 ; 0000 08AE             a[6] = a[5]+0x001;  //okrag
                 ; 0000 08AF             a[8] = a[6]+0x001;  //-delta okrag
                 ; 0000 08B0 
                 ; 0000 08B1     break;
                 ; 0000 08B2 
                 ; 0000 08B3       case 30:
                 _0xCE:
001265 31ee      	CPI  R30,LOW(0x1E)
001266 e0a0      	LDI  R26,HIGH(0x1E)
001267 07fa      	CPC  R31,R26
001268 f449      	BRNE _0xCF
                 ; 0000 08B4 
                 ; 0000 08B5             a[0] = 0x094;   //ster1
001269 e9e4      	LDI  R30,LOW(148)
00126a e0f0      	LDI  R31,HIGH(148)
00126b 940e 2d45 	CALL SUBOPT_0x3B
                 ; 0000 08B6             a[3] = 0x11;    //ster4 INV druciak
00126d 940e 2d4c 	CALL SUBOPT_0x3C
                 ; 0000 08B7             a[4] = 0x18;    //ster3 ABS krazek scierny
00126f 940e 2de6 	CALL SUBOPT_0x4E
                 ; 0000 08B8             a[5] = 0x190;   //delta okrag
                 ; 0000 08B9             a[7] = 0x11;    //ster3 INV krazek scierny
001271 c689      	RJMP _0x472
                 ; 0000 08BA             a[9] = 1;     //na minus czy na plus wzgledem uklad liniowy szczotki drucianej   0 - na minus, 1 - na plus rzad 1
                 ; 0000 08BB 
                 ; 0000 08BC             a[1] = a[0]+0x001;  //ster2
                 ; 0000 08BD             a[2] = a[4];        //ster4 ABS druciak
                 ; 0000 08BE             a[6] = a[5]+0x001;  //okrag
                 ; 0000 08BF             a[8] = a[6]+0x001;  //-delta okrag
                 ; 0000 08C0 
                 ; 0000 08C1     break;
                 ; 0000 08C2 
                 ; 0000 08C3       case 31:
                 _0xCF:
001272 31ef      	CPI  R30,LOW(0x1F)
001273 e0a0      	LDI  R26,HIGH(0x1F)
001274 07fa      	CPC  R31,R26
001275 f459      	BRNE _0xD0
                 ; 0000 08C4 
                 ; 0000 08C5             a[0] = 0x06E;   //ster1
001276 e6ee      	LDI  R30,LOW(110)
001277 e0f0      	LDI  R31,HIGH(110)
001278 940e 2d45 	CALL SUBOPT_0x3B
                 ; 0000 08C6             a[3] = 0x11;    //ster4 INV druciak
00127a 940e 2d4c 	CALL SUBOPT_0x3C
                 ; 0000 08C7             a[4] = 0x20;    //ster3 ABS krazek scierny
00127c 940e 2def 	CALL SUBOPT_0x4F
                 ; 0000 08C8             a[5] = 0x199;   //delta okrag
00127e e9a9      	LDI  R26,LOW(409)
00127f e0b1      	LDI  R27,HIGH(409)
001280 c674      	RJMP _0x474
                 ; 0000 08C9             a[7] = 0x12;  //ster3 INV krazek scierny
                 ; 0000 08CA             a[9] = 1;     //na minus czy na plus wzgledem uklad liniowy szczotki drucianej   0 - na minus, 1 - na plus rzad 1
                 ; 0000 08CB 
                 ; 0000 08CC             a[1] = a[0]+0x001;  //ster2
                 ; 0000 08CD             a[2] = a[4];        //ster4 ABS druciak
                 ; 0000 08CE             a[6] = a[5]+0x001;  //okrag
                 ; 0000 08CF             a[8] = a[6]+0x001;  //-delta okrag
                 ; 0000 08D0 
                 ; 0000 08D1     break;
                 ; 0000 08D2 
                 ; 0000 08D3 
                 ; 0000 08D4        case 32:
                 _0xD0:
001281 32e0      	CPI  R30,LOW(0x20)
001282 e0a0      	LDI  R26,HIGH(0x20)
001283 07fa      	CPC  R31,R26
001284 f459      	BRNE _0xD1
                 ; 0000 08D5 
                 ; 0000 08D6             a[0] = 0x086;   //ster1
001285 e8e6      	LDI  R30,LOW(134)
001286 e0f0      	LDI  R31,HIGH(134)
001287 940e 2d45 	CALL SUBOPT_0x3B
                 ; 0000 08D7             a[3] = 0x11;    //ster4 INV druciak
001289 940e 2d4c 	CALL SUBOPT_0x3C
                 ; 0000 08D8             a[4] = 0x21;    //ster3 ABS krazek scierny
00128b 940e 2db2 	CALL SUBOPT_0x48
                 ; 0000 08D9             a[5] = 0x199;   //delta okrag
00128d 940e 2d84 	CALL SUBOPT_0x42
                 ; 0000 08DA             a[7] = 0x12;    //ster3 INV krazek scierny
                 ; 0000 08DB             a[9] = 0;     //na minus czy na plus wzgledem uklad liniowy szczotki drucianej   0 - na minus, 1 - na plus rzad 1
00128f c671      	RJMP _0x473
                 ; 0000 08DC 
                 ; 0000 08DD             a[1] = a[0]+0x001;  //ster2
                 ; 0000 08DE             a[2] = a[4];        //ster4 ABS druciak
                 ; 0000 08DF             a[6] = a[5]+0x001;  //okrag
                 ; 0000 08E0             a[8] = a[6]+0x001;  //-delta okrag
                 ; 0000 08E1 
                 ; 0000 08E2     break;
                 ; 0000 08E3 
                 ; 0000 08E4        case 33:
                 _0xD1:
001290 32e1      	CPI  R30,LOW(0x21)
001291 e0a0      	LDI  R26,HIGH(0x21)
001292 07fa      	CPC  R31,R26
001293 f449      	BRNE _0xD2
                 ; 0000 08E5 
                 ; 0000 08E6             a[0] = 0x08E;   //ster1
001294 e8ee      	LDI  R30,LOW(142)
001295 e0f0      	LDI  R31,HIGH(142)
001296 940e 2d45 	CALL SUBOPT_0x3B
                 ; 0000 08E7             a[3] = 0x11;    //ster4 INV druciak
001298 940e 2d4c 	CALL SUBOPT_0x3C
                 ; 0000 08E8             a[4] = 0x20;    //ster3 ABS krazek scierny
00129a e2a0      	LDI  R26,LOW(32)
00129b e0b0      	LDI  R27,HIGH(32)
00129c c652      	RJMP _0x475
                 ; 0000 08E9             a[5] = 0x19C;   //delta okrag
                 ; 0000 08EA             a[7] = 0x12;    //ster3 INV krazek scierny
                 ; 0000 08EB             a[9] = 1;     //na minus czy na plus wzgledem uklad liniowy szczotki drucianej   0 - na minus, 1 - na plus rzad 1
                 ; 0000 08EC 
                 ; 0000 08ED             a[1] = a[0]+0x001;  //ster2
                 ; 0000 08EE             a[2] = a[4];        //ster4 ABS druciak
                 ; 0000 08EF             a[6] = a[5]+0x001;  //okrag
                 ; 0000 08F0             a[8] = a[6]+0x001;  //-delta okrag
                 ; 0000 08F1 
                 ; 0000 08F2     break;
                 ; 0000 08F3 
                 ; 0000 08F4 
                 ; 0000 08F5     case 34: //86-1349
                 _0xD2:
00129d 32e2      	CPI  R30,LOW(0x22)
00129e e0a0      	LDI  R26,HIGH(0x22)
00129f 07fa      	CPC  R31,R26
0012a0 f459      	BRNE _0xD3
                 ; 0000 08F6 
                 ; 0000 08F7             a[0] = 0x05A;   //ster1
0012a1 e5ea      	LDI  R30,LOW(90)
0012a2 e0f0      	LDI  R31,HIGH(90)
0012a3 940e 2d45 	CALL SUBOPT_0x3B
                 ; 0000 08F8             a[3] = 0x11;    //ster4 INV druciak
0012a5 940e 2d4c 	CALL SUBOPT_0x3C
                 ; 0000 08F9             a[4] = 0x21;    //ster3 ABS krazek scierny
0012a7 940e 2df6 	CALL SUBOPT_0x50
                 ; 0000 08FA             a[5] = 0x196;   //delta okrag
0012a9 940e 2dfd 	CALL SUBOPT_0x51
                 ; 0000 08FB             a[7] = 0x12;    //ster3 INV krazek scierny
                 ; 0000 08FC             a[9] = 0;       //na minus czy na plus wzgledem uklad liniowy szczotki drucianej   0 - na minus, 1 - na plus rzad 1
0012ab c655      	RJMP _0x473
                 ; 0000 08FD 
                 ; 0000 08FE             a[1] = a[0]+0x001;  //ster2
                 ; 0000 08FF             a[2] = a[4];        //ster4 ABS druciak
                 ; 0000 0900             a[6] = a[5]+0x001;  //okrag
                 ; 0000 0901             a[8] = a[6]+0x001;  //-delta okrag
                 ; 0000 0902 
                 ; 0000 0903     break;
                 ; 0000 0904 
                 ; 0000 0905 
                 ; 0000 0906     case 35:
                 _0xD3:
0012ac 32e3      	CPI  R30,LOW(0x23)
0012ad e0a0      	LDI  R26,HIGH(0x23)
0012ae 07fa      	CPC  R31,R26
0012af f459      	BRNE _0xD4
                 ; 0000 0907 
                 ; 0000 0908             a[0] = 0x0DA;   //ster1
0012b0 edea      	LDI  R30,LOW(218)
0012b1 e0f0      	LDI  R31,HIGH(218)
0012b2 940e 2d45 	CALL SUBOPT_0x3B
                 ; 0000 0909             a[3] = 0x11;    //ster4 INV druciak
0012b4 940e 2d4c 	CALL SUBOPT_0x3C
                 ; 0000 090A             a[4] = 0x1E;    //ster3 ABS krazek scierny
0012b6 940e 2e00 	CALL SUBOPT_0x52
                 ; 0000 090B             a[5] = 0x190;   //delta okrag
                 ; 0000 090C             a[7] = 0x0F;    //ster3 INV krazek scierny
0012b8 940e 2d96 	CALL SUBOPT_0x44
                 ; 0000 090D             a[9] = 0;     //na minus czy na plus wzgledem uklad liniowy szczotki drucianej   0 - na minus, 1 - na plus rzad 1
0012ba c646      	RJMP _0x473
                 ; 0000 090E 
                 ; 0000 090F             a[1] = a[0]+0x001;  //ster2
                 ; 0000 0910             a[2] = a[4];        //ster4 ABS druciak
                 ; 0000 0911             a[6] = a[5]+0x001;  //okrag
                 ; 0000 0912             a[8] = a[6]+0x001;  //-delta okrag
                 ; 0000 0913 
                 ; 0000 0914     break;
                 ; 0000 0915 
                 ; 0000 0916          case 36:
                 _0xD4:
0012bb 32e4      	CPI  R30,LOW(0x24)
0012bc e0a0      	LDI  R26,HIGH(0x24)
0012bd 07fa      	CPC  R31,R26
0012be f459      	BRNE _0xD5
                 ; 0000 0917 
                 ; 0000 0918             a[0] = 0x0A2;   //ster1
0012bf eae2      	LDI  R30,LOW(162)
0012c0 e0f0      	LDI  R31,HIGH(162)
0012c1 940e 2d45 	CALL SUBOPT_0x3B
                 ; 0000 0919             a[3] = 0x12;    //ster4 INV druciak
0012c3 940e 2e07 	CALL SUBOPT_0x53
                 ; 0000 091A             a[4] = 0x22;    //ster3 ABS krazek scierny
                 ; 0000 091B             a[5] = 0x196;   //delta okrag
                 ; 0000 091C             a[7] = 0x10;    //ster3 INV krazek scierny
0012c5 940e 2d62 	CALL SUBOPT_0x3E
                 ; 0000 091D             a[9] = 0;     //na minus czy na plus wzgledem uklad liniowy szczotki drucianej   0 - na minus, 1 - na plus rzad 1
0012c7 940e 2d76 	CALL SUBOPT_0x40
0012c9 c637      	RJMP _0x473
                 ; 0000 091E 
                 ; 0000 091F             a[1] = a[0]+0x001;  //ster2
                 ; 0000 0920             a[2] = a[4];        //ster4 ABS druciak
                 ; 0000 0921             a[6] = a[5]+0x001;  //okrag
                 ; 0000 0922             a[8] = a[6]+0x001;  //-delta okrag
                 ; 0000 0923 
                 ; 0000 0924     break;
                 ; 0000 0925 
                 ; 0000 0926          case 37:
                 _0xD5:
0012ca 32e5      	CPI  R30,LOW(0x25)
0012cb e0a0      	LDI  R26,HIGH(0x25)
0012cc 07fa      	CPC  R31,R26
0012cd f459      	BRNE _0xD6
                 ; 0000 0927 
                 ; 0000 0928             a[0] = 0x104;   //ster1
0012ce e0e4      	LDI  R30,LOW(260)
0012cf e0f1      	LDI  R31,HIGH(260)
0012d0 940e 2d45 	CALL SUBOPT_0x3B
                 ; 0000 0929             a[3] = 0x11;    //ster4 INV druciak
0012d2 940e 2d4c 	CALL SUBOPT_0x3C
                 ; 0000 092A             a[4] = 0x21;    //ster3 ABS krazek scierny
0012d4 940e 2df6 	CALL SUBOPT_0x50
                 ; 0000 092B             a[5] = 0x19C;   //delta okrag
0012d6 940e 2e1a 	CALL SUBOPT_0x54
                 ; 0000 092C             a[7] = 0x12;    //ster3 INV krazek scierny
                 ; 0000 092D             a[9] = 0;     //na minus czy na plus wzgledem uklad liniowy szczotki drucianej   0 - na minus, 1 - na plus rzad 1
0012d8 c628      	RJMP _0x473
                 ; 0000 092E 
                 ; 0000 092F             a[1] = a[0]+0x001;  //ster2
                 ; 0000 0930             a[2] = a[4];        //ster4 ABS druciak
                 ; 0000 0931             a[6] = a[5]+0x001;  //okrag
                 ; 0000 0932             a[8] = a[6]+0x001;  //-delta okrag
                 ; 0000 0933 
                 ; 0000 0934     break;
                 ; 0000 0935 
                 ; 0000 0936          case 38:
                 _0xD6:
0012d9 32e6      	CPI  R30,LOW(0x26)
0012da e0a0      	LDI  R26,HIGH(0x26)
0012db 07fa      	CPC  R31,R26
0012dc f459      	BRNE _0xD7
                 ; 0000 0937 
                 ; 0000 0938             a[0] = 0x036;   //ster1
0012dd e3e6      	LDI  R30,LOW(54)
0012de e0f0      	LDI  R31,HIGH(54)
0012df 940e 2d45 	CALL SUBOPT_0x3B
                 ; 0000 0939             a[3] = 0x11;    //ster4 INV druciak
0012e1 940e 2d4c 	CALL SUBOPT_0x3C
                 ; 0000 093A             a[4] = 0x21;    //ster3 ABS krazek scierny
0012e3 940e 2df6 	CALL SUBOPT_0x50
                 ; 0000 093B             a[5] = 0x196;   //delta okrag
0012e5 e9a6      	LDI  R26,LOW(406)
0012e6 e0b1      	LDI  R27,HIGH(406)
0012e7 c60d      	RJMP _0x474
                 ; 0000 093C             a[7] = 0x12;    //ster3 INV krazek scierny
                 ; 0000 093D             a[9] = 1;     //na minus czy na plus wzgledem uklad liniowy szczotki drucianej   0 - na minus, 1 - na plus rzad 1
                 ; 0000 093E 
                 ; 0000 093F             a[1] = a[0]+0x001;  //ster2
                 ; 0000 0940             a[2] = a[4];        //ster4 ABS druciak
                 ; 0000 0941             a[6] = a[5]+0x001;  //okrag
                 ; 0000 0942             a[8] = a[6]+0x001;  //-delta okrag
                 ; 0000 0943 
                 ; 0000 0944     break;
                 ; 0000 0945 
                 ; 0000 0946 
                 ; 0000 0947          case 39:
                 _0xD7:
0012e8 32e7      	CPI  R30,LOW(0x27)
0012e9 e0a0      	LDI  R26,HIGH(0x27)
0012ea 07fa      	CPC  R31,R26
0012eb f449      	BRNE _0xD8
                 ; 0000 0948 
                 ; 0000 0949             a[0] = 0x118;   //ster1
0012ec e1e8      	LDI  R30,LOW(280)
0012ed e0f1      	LDI  R31,HIGH(280)
0012ee 940e 2d45 	CALL SUBOPT_0x3B
                 ; 0000 094A             a[3] = 0x11;    //ster4 INV druciak
0012f0 940e 2d4c 	CALL SUBOPT_0x3C
                 ; 0000 094B             a[4] = 0x1E;    //ster3 ABS krazek scierny
0012f2 940e 2e00 	CALL SUBOPT_0x52
                 ; 0000 094C             a[5] = 0x190;   //delta okrag
                 ; 0000 094D             a[7] = 0x0F;    //ster3 INV krazek scierny
0012f4 c606      	RJMP _0x472
                 ; 0000 094E             a[9] = 1;     //na minus czy na plus wzgledem uklad liniowy szczotki drucianej   0 - na minus, 1 - na plus rzad 1
                 ; 0000 094F 
                 ; 0000 0950             a[1] = a[0]+0x001;  //ster2
                 ; 0000 0951             a[2] = a[4];        //ster4 ABS druciak
                 ; 0000 0952             a[6] = a[5]+0x001;  //okrag
                 ; 0000 0953             a[8] = a[6]+0x001;  //-delta okrag
                 ; 0000 0954 
                 ; 0000 0955     break;
                 ; 0000 0956 
                 ; 0000 0957 
                 ; 0000 0958          case 40:
                 _0xD8:
0012f5 32e8      	CPI  R30,LOW(0x28)
0012f6 e0a0      	LDI  R26,HIGH(0x28)
0012f7 07fa      	CPC  R31,R26
0012f8 f449      	BRNE _0xD9
                 ; 0000 0959 
                 ; 0000 095A             a[0] = 0x0A6;   //ster1
0012f9 eae6      	LDI  R30,LOW(166)
0012fa e0f0      	LDI  R31,HIGH(166)
0012fb 940e 2d45 	CALL SUBOPT_0x3B
                 ; 0000 095B             a[3] = 0x12;    //ster4 INV druciak
0012fd 940e 2e07 	CALL SUBOPT_0x53
                 ; 0000 095C             a[4] = 0x22;    //ster3 ABS krazek scierny
                 ; 0000 095D             a[5] = 0x196;   //delta okrag
                 ; 0000 095E             a[7] = 0x10;    //ster3 INV krazek scierny
0012ff e1a0      	LDI  R26,LOW(16)
001300 e0b0      	LDI  R27,HIGH(16)
001301 c5f9      	RJMP _0x472
                 ; 0000 095F             a[9] = 1;     //na minus czy na plus wzgledem uklad liniowy szczotki drucianej   0 - na minus, 1 - na plus rzad 1
                 ; 0000 0960 
                 ; 0000 0961             a[1] = a[0]+0x001;  //ster2
                 ; 0000 0962             a[2] = a[4];        //ster4 ABS druciak
                 ; 0000 0963             a[6] = a[5]+0x001;  //okrag
                 ; 0000 0964             a[8] = a[6]+0x001;  //-delta okrag
                 ; 0000 0965 
                 ; 0000 0966     break;
                 ; 0000 0967 
                 ; 0000 0968          case 41:
                 _0xD9:
001302 32e9      	CPI  R30,LOW(0x29)
001303 e0a0      	LDI  R26,HIGH(0x29)
001304 07fa      	CPC  R31,R26
001305 f459      	BRNE _0xDA
                 ; 0000 0969 
                 ; 0000 096A             a[0] = 0x01E;   //ster1
001306 e1ee      	LDI  R30,LOW(30)
001307 e0f0      	LDI  R31,HIGH(30)
001308 940e 2d45 	CALL SUBOPT_0x3B
                 ; 0000 096B             a[3] = 0x11;    //ster4 INV druciak
00130a 940e 2d4c 	CALL SUBOPT_0x3C
                 ; 0000 096C             a[4] = 0x1F;    //ster3 ABS krazek scierny
00130c 940e 2d8d 	CALL SUBOPT_0x43
                 ; 0000 096D             a[5] = 0x196;   //delta okrag
00130e 940e 2d99 	CALL SUBOPT_0x45
                 ; 0000 096E             a[7] = 0x11;    //ster3 INV krazek scierny
001310 c5ea      	RJMP _0x472
                 ; 0000 096F             a[9] = 1;     //na minus czy na plus wzgledem uklad liniowy szczotki drucianej   0 - na minus, 1 - na plus rzad 1
                 ; 0000 0970 
                 ; 0000 0971             a[1] = a[0]+0x001;  //ster2
                 ; 0000 0972             a[2] = a[4];        //ster4 ABS druciak
                 ; 0000 0973             a[6] = a[5]+0x001;  //okrag
                 ; 0000 0974             a[8] = a[6]+0x001;  //-delta okrag
                 ; 0000 0975 
                 ; 0000 0976     break;
                 ; 0000 0977 
                 ; 0000 0978 
                 ; 0000 0979          case 42:
                 _0xDA:
001311 32ea      	CPI  R30,LOW(0x2A)
001312 e0a0      	LDI  R26,HIGH(0x2A)
001313 07fa      	CPC  R31,R26
001314 f459      	BRNE _0xDB
                 ; 0000 097A 
                 ; 0000 097B             a[0] = 0x05C;   //ster1
001315 e5ec      	LDI  R30,LOW(92)
001316 e0f0      	LDI  R31,HIGH(92)
001317 940e 2d45 	CALL SUBOPT_0x3B
                 ; 0000 097C             a[3] = 0x10;    //ster4 INV druciak
001319 940e 2d62 	CALL SUBOPT_0x3E
                 ; 0000 097D             a[4] = 0x1E;    //ster3 ABS krazek scierny
00131b 940e 2e1d 	CALL SUBOPT_0x55
                 ; 0000 097E             a[5] = 0x196;   //delta okrag
                 ; 0000 097F             a[7] = 0x11;    //ster3 INV krazek scierny
00131d 940e 2d96 	CALL SUBOPT_0x44
                 ; 0000 0980             a[9] = 0;     //na minus czy na plus wzgledem uklad liniowy szczotki drucianej   0 - na minus, 1 - na plus rzad 1
00131f c5e1      	RJMP _0x473
                 ; 0000 0981 
                 ; 0000 0982             a[1] = a[0]+0x001;  //ster2
                 ; 0000 0983             a[2] = a[4];        //ster4 ABS druciak
                 ; 0000 0984             a[6] = a[5]+0x001;  //okrag
                 ; 0000 0985             a[8] = a[6]+0x001;  //-delta okrag
                 ; 0000 0986 
                 ; 0000 0987     break;
                 ; 0000 0988 
                 ; 0000 0989 
                 ; 0000 098A          case 43:
                 _0xDB:
001320 32eb      	CPI  R30,LOW(0x2B)
001321 e0a0      	LDI  R26,HIGH(0x2B)
001322 07fa      	CPC  R31,R26
001323 f459      	BRNE _0xDC
                 ; 0000 098B 
                 ; 0000 098C             a[0] = 0x062;   //ster1
001324 e6e2      	LDI  R30,LOW(98)
001325 e0f0      	LDI  R31,HIGH(98)
001326 940e 2d45 	CALL SUBOPT_0x3B
                 ; 0000 098D             a[3] = 0x11;    //ster4 INV druciak
001328 940e 2d4c 	CALL SUBOPT_0x3C
                 ; 0000 098E             a[4] = 0x20;    //ster3 ABS krazek scierny
00132a 940e 2def 	CALL SUBOPT_0x4F
                 ; 0000 098F             a[5] = 0x196;   //delta okrag
00132c 940e 2dfd 	CALL SUBOPT_0x51
                 ; 0000 0990             a[7] = 0x12;    //ster3 INV krazek scierny
                 ; 0000 0991             a[9] = 0;     //na minus czy na plus wzgledem uklad liniowy szczotki drucianej   0 - na minus, 1 - na plus rzad 1
00132e c5d2      	RJMP _0x473
                 ; 0000 0992 
                 ; 0000 0993             a[1] = a[0]+0x001;  //ster2
                 ; 0000 0994             a[2] = a[4];        //ster4 ABS druciak
                 ; 0000 0995             a[6] = a[5]+0x001;  //okrag
                 ; 0000 0996             a[8] = a[6]+0x001;  //-delta okrag
                 ; 0000 0997 
                 ; 0000 0998     break;
                 ; 0000 0999 
                 ; 0000 099A 
                 ; 0000 099B          case 44:
                 _0xDC:
00132f 32ec      	CPI  R30,LOW(0x2C)
001330 e0a0      	LDI  R26,HIGH(0x2C)
001331 07fa      	CPC  R31,R26
001332 f419      	BRNE _0xDD
                 ; 0000 099C 
                 ; 0000 099D             a[0] = 0x;   //ster1
001333 940e 2e28 	CALL SUBOPT_0x56
                 ; 0000 099E             a[3] = 0x;    //ster4 INV druciak
                 ; 0000 099F             a[4] = 0x;    //ster3 ABS krazek scierny
                 ; 0000 09A0             a[5] = 0x;   //delta okrag
                 ; 0000 09A1             a[7] = 0x;    //ster3 INV krazek scierny
                 ; 0000 09A2             a[9] = 0;     //na minus czy na plus wzgledem uklad liniowy szczotki drucianej   0 - na minus, 1 - na plus rzad 1
001335 c5cb      	RJMP _0x473
                 ; 0000 09A3 
                 ; 0000 09A4             a[1] = a[0]+0x001;  //ster2
                 ; 0000 09A5             a[2] = a[4];        //ster4 ABS druciak
                 ; 0000 09A6             a[6] = a[5]+0x001;  //okrag
                 ; 0000 09A7             a[8] = a[6]+0x001;  //-delta okrag
                 ; 0000 09A8 
                 ; 0000 09A9     break;
                 ; 0000 09AA 
                 ; 0000 09AB 
                 ; 0000 09AC          case 45:
                 _0xDD:
001336 32ed      	CPI  R30,LOW(0x2D)
001337 e0a0      	LDI  R26,HIGH(0x2D)
001338 07fa      	CPC  R31,R26
001339 f469      	BRNE _0xDE
                 ; 0000 09AD 
                 ; 0000 09AE             a[0] = 0x010;   //ster1
00133a e1e0      	LDI  R30,LOW(16)
00133b e0f0      	LDI  R31,HIGH(16)
00133c 940e 2d45 	CALL SUBOPT_0x3B
                 ; 0000 09AF             a[3] = 0x11;    //ster4 INV druciak
00133e 940e 2d4c 	CALL SUBOPT_0x3C
                 ; 0000 09B0             a[4] = 0x1F;    //ster3 ABS krazek scierny
001340 940e 2d8d 	CALL SUBOPT_0x43
                 ; 0000 09B1             a[5] = 0x196;   //delta okrag
001342 940e 2d99 	CALL SUBOPT_0x45
                 ; 0000 09B2             a[7] = 0x11;    //ster3 INV krazek scierny
001344 940e 2d96 	CALL SUBOPT_0x44
                 ; 0000 09B3             a[9] = 0;     //na minus czy na plus wzgledem uklad liniowy szczotki drucianej   0 - na minus, 1 - na plus rzad 1
001346 c5ba      	RJMP _0x473
                 ; 0000 09B4 
                 ; 0000 09B5             a[1] = a[0]+0x001;  //ster2
                 ; 0000 09B6             a[2] = a[4];        //ster4 ABS druciak
                 ; 0000 09B7             a[6] = a[5]+0x001;  //okrag
                 ; 0000 09B8             a[8] = a[6]+0x001;  //-delta okrag
                 ; 0000 09B9 
                 ; 0000 09BA     break;
                 ; 0000 09BB 
                 ; 0000 09BC 
                 ; 0000 09BD     case 46:
                 _0xDE:
001347 32ee      	CPI  R30,LOW(0x2E)
001348 e0a0      	LDI  R26,HIGH(0x2E)
001349 07fa      	CPC  R31,R26
00134a f449      	BRNE _0xDF
                 ; 0000 09BE 
                 ; 0000 09BF             a[0] = 0x050;   //ster1
00134b e5e0      	LDI  R30,LOW(80)
00134c e0f0      	LDI  R31,HIGH(80)
00134d 940e 2d45 	CALL SUBOPT_0x3B
                 ; 0000 09C0             a[3] = 0x10;    //ster4 INV druciak
00134f 940e 2d62 	CALL SUBOPT_0x3E
                 ; 0000 09C1             a[4] = 0x1E;    //ster3 ABS krazek scierny
001351 940e 2e1d 	CALL SUBOPT_0x55
                 ; 0000 09C2             a[5] = 0x196;   //delta okrag
                 ; 0000 09C3             a[7] = 0x11;    //ster3 INV krazek scierny
001353 c5a7      	RJMP _0x472
                 ; 0000 09C4             a[9] = 1;     //na minus czy na plus wzgledem uklad liniowy szczotki drucianej   0 - na minus, 1 - na plus rzad 1
                 ; 0000 09C5 
                 ; 0000 09C6             a[1] = a[0]+0x001;  //ster2
                 ; 0000 09C7             a[2] = a[4];        //ster4 ABS druciak
                 ; 0000 09C8             a[6] = a[5]+0x001;  //okrag
                 ; 0000 09C9             a[8] = a[6]+0x001;  //-delta okrag
                 ; 0000 09CA 
                 ; 0000 09CB     break;
                 ; 0000 09CC 
                 ; 0000 09CD 
                 ; 0000 09CE     case 47:
                 _0xDF:
001354 32ef      	CPI  R30,LOW(0x2F)
001355 e0a0      	LDI  R26,HIGH(0x2F)
001356 07fa      	CPC  R31,R26
001357 f459      	BRNE _0xE0
                 ; 0000 09CF 
                 ; 0000 09D0             a[0] = 0x068;   //ster1
001358 e6e8      	LDI  R30,LOW(104)
001359 e0f0      	LDI  R31,HIGH(104)
00135a 940e 2d45 	CALL SUBOPT_0x3B
                 ; 0000 09D1             a[3] = 0x11;    //ster4 INV druciak
00135c 940e 2d4c 	CALL SUBOPT_0x3C
                 ; 0000 09D2             a[4] = 0x20;    //ster3 ABS krazek scierny
00135e 940e 2def 	CALL SUBOPT_0x4F
                 ; 0000 09D3             a[5] = 0x196;   //delta okrag
001360 e9a6      	LDI  R26,LOW(406)
001361 e0b1      	LDI  R27,HIGH(406)
001362 c592      	RJMP _0x474
                 ; 0000 09D4             a[7] = 0x12;    //ster3 INV krazek scierny
                 ; 0000 09D5             a[9] = 1;     //na minus czy na plus wzgledem uklad liniowy szczotki drucianej   0 - na minus, 1 - na plus rzad 1
                 ; 0000 09D6 
                 ; 0000 09D7             a[1] = a[0]+0x001;  //ster2
                 ; 0000 09D8             a[2] = a[4];        //ster4 ABS druciak
                 ; 0000 09D9             a[6] = a[5]+0x001;  //okrag
                 ; 0000 09DA             a[8] = a[6]+0x001;  //-delta okrag
                 ; 0000 09DB 
                 ; 0000 09DC     break;
                 ; 0000 09DD 
                 ; 0000 09DE 
                 ; 0000 09DF 
                 ; 0000 09E0     case 48:
                 _0xE0:
001363 33e0      	CPI  R30,LOW(0x30)
001364 e0a0      	LDI  R26,HIGH(0x30)
001365 07fa      	CPC  R31,R26
001366 f419      	BRNE _0xE1
                 ; 0000 09E1 
                 ; 0000 09E2             a[0] = 0x;   //ster1
001367 940e 2e28 	CALL SUBOPT_0x56
                 ; 0000 09E3             a[3] = 0x;    //ster4 INV druciak
                 ; 0000 09E4             a[4] = 0x;    //ster3 ABS krazek scierny
                 ; 0000 09E5             a[5] = 0x;   //delta okrag
                 ; 0000 09E6             a[7] = 0x;    //ster3 INV krazek scierny
                 ; 0000 09E7             a[9] = 0;     //na minus czy na plus wzgledem uklad liniowy szczotki drucianej   0 - na minus, 1 - na plus rzad 1
001369 c597      	RJMP _0x473
                 ; 0000 09E8 
                 ; 0000 09E9             a[1] = a[0]+0x001;  //ster2
                 ; 0000 09EA             a[2] = a[4];        //ster4 ABS druciak
                 ; 0000 09EB             a[6] = a[5]+0x001;  //okrag
                 ; 0000 09EC             a[8] = a[6]+0x001;  //-delta okrag
                 ; 0000 09ED 
                 ; 0000 09EE     break;
                 ; 0000 09EF 
                 ; 0000 09F0 
                 ; 0000 09F1     case 49:
                 _0xE1:
00136a 33e1      	CPI  R30,LOW(0x31)
00136b e0a0      	LDI  R26,HIGH(0x31)
00136c 07fa      	CPC  R31,R26
00136d f459      	BRNE _0xE2
                 ; 0000 09F2 
                 ; 0000 09F3             a[0] = 0x024;   //ster1
00136e e2e4      	LDI  R30,LOW(36)
00136f e0f0      	LDI  R31,HIGH(36)
001370 940e 2d45 	CALL SUBOPT_0x3B
                 ; 0000 09F4             a[3] = 0x11;    //ster4 INV druciak
001372 940e 2d4c 	CALL SUBOPT_0x3C
                 ; 0000 09F5             a[4] = 0x1F;    //ster3 ABS krazek scierny
001374 940e 2d8d 	CALL SUBOPT_0x43
                 ; 0000 09F6             a[5] = 0x196;   //delta okrag
001376 940e 2d84 	CALL SUBOPT_0x42
                 ; 0000 09F7             a[7] = 0x12;    //ster3 INV krazek scierny
                 ; 0000 09F8             a[9] = 0;     //na minus czy na plus wzgledem uklad liniowy szczotki drucianej   0 - na minus, 1 - na plus rzad 1
001378 c588      	RJMP _0x473
                 ; 0000 09F9 
                 ; 0000 09FA             a[1] = a[0]+0x001;  //ster2
                 ; 0000 09FB             a[2] = a[4];        //ster4 ABS druciak
                 ; 0000 09FC             a[6] = a[5]+0x001;  //okrag
                 ; 0000 09FD             a[8] = a[6]+0x001;  //-delta okrag
                 ; 0000 09FE 
                 ; 0000 09FF     break;
                 ; 0000 0A00 
                 ; 0000 0A01 
                 ; 0000 0A02     case 50:
                 _0xE2:
001379 33e2      	CPI  R30,LOW(0x32)
00137a e0a0      	LDI  R26,HIGH(0x32)
00137b 07fa      	CPC  R31,R26
00137c f459      	BRNE _0xE3
                 ; 0000 0A03 
                 ; 0000 0A04             a[0] = 0x014;   //ster1
00137d e1e4      	LDI  R30,LOW(20)
00137e e0f0      	LDI  R31,HIGH(20)
00137f 940e 2d45 	CALL SUBOPT_0x3B
                 ; 0000 0A05             a[3] = 0x11;    //ster4 INV druciak
001381 940e 2d4c 	CALL SUBOPT_0x3C
                 ; 0000 0A06             a[4] = 0x1E;    //ster3 ABS krazek scierny
001383 940e 2e00 	CALL SUBOPT_0x52
                 ; 0000 0A07             a[5] = 0x190;   //delta okrag
                 ; 0000 0A08             a[7] = 0x0F;    //ster3 INV krazek scierny
001385 940e 2d96 	CALL SUBOPT_0x44
                 ; 0000 0A09             a[9] = 0;     //na minus czy na plus wzgledem uklad liniowy szczotki drucianej   0 - na minus, 1 - na plus rzad 1
001387 c579      	RJMP _0x473
                 ; 0000 0A0A 
                 ; 0000 0A0B             a[1] = a[0]+0x001;  //ster2
                 ; 0000 0A0C             a[2] = a[4];        //ster4 ABS druciak
                 ; 0000 0A0D             a[6] = a[5]+0x001;  //okrag
                 ; 0000 0A0E             a[8] = a[6]+0x001;  //-delta okrag
                 ; 0000 0A0F 
                 ; 0000 0A10     break;
                 ; 0000 0A11 
                 ; 0000 0A12     case 51:
                 _0xE3:
001388 33e3      	CPI  R30,LOW(0x33)
001389 e0a0      	LDI  R26,HIGH(0x33)
00138a 07fa      	CPC  R31,R26
00138b f459      	BRNE _0xE4
                 ; 0000 0A13 
                 ; 0000 0A14             a[0] = 0x082;   //ster1
00138c e8e2      	LDI  R30,LOW(130)
00138d e0f0      	LDI  R31,HIGH(130)
00138e 940e 2d45 	CALL SUBOPT_0x3B
                 ; 0000 0A15             a[3] = 0x11;    //ster4 INV druciak
001390 940e 2d4c 	CALL SUBOPT_0x3C
                 ; 0000 0A16             a[4] = 0x1B;    //ster3 ABS krazek scierny
001392 940e 2e3e 	CALL SUBOPT_0x57
                 ; 0000 0A17             a[5] = 0x19C;   //delta okrag
001394 940e 2e1a 	CALL SUBOPT_0x54
                 ; 0000 0A18             a[7] = 0x12;    //ster3 INV krazek scierny
                 ; 0000 0A19             a[9] = 0;     //na minus czy na plus wzgledem uklad liniowy szczotki drucianej   0 - na minus, 1 - na plus rzad 1
001396 c56a      	RJMP _0x473
                 ; 0000 0A1A 
                 ; 0000 0A1B             a[1] = a[0]+0x001;  //ster2
                 ; 0000 0A1C             a[2] = a[4];        //ster4 ABS druciak
                 ; 0000 0A1D             a[6] = a[5]+0x001;  //okrag
                 ; 0000 0A1E             a[8] = a[6]+0x001;  //-delta okrag
                 ; 0000 0A1F 
                 ; 0000 0A20     break;
                 ; 0000 0A21 
                 ; 0000 0A22     case 52:
                 _0xE4:
001397 33e4      	CPI  R30,LOW(0x34)
001398 e0a0      	LDI  R26,HIGH(0x34)
001399 07fa      	CPC  R31,R26
00139a f449      	BRNE _0xE5
                 ; 0000 0A23 
                 ; 0000 0A24             a[0] = 0x106;   //ster1
00139b e0e6      	LDI  R30,LOW(262)
00139c e0f1      	LDI  R31,HIGH(262)
00139d 940e 2d45 	CALL SUBOPT_0x3B
                 ; 0000 0A25             a[3] = 0x11;    //ster4 INV druciak
00139f 940e 2d4c 	CALL SUBOPT_0x3C
                 ; 0000 0A26             a[4] = 0x19;    //ster3 ABS krazek scierny
0013a1 940e 2e45 	CALL SUBOPT_0x58
                 ; 0000 0A27             a[5] = 0x190;   //delta okrag
                 ; 0000 0A28             a[7] = 0x13;    //ster3 INV krazek scierny
0013a3 c557      	RJMP _0x472
                 ; 0000 0A29             a[9] = 1;     //na minus czy na plus wzgledem uklad liniowy szczotki drucianej   0 - na minus, 1 - na plus rzad 1
                 ; 0000 0A2A 
                 ; 0000 0A2B             a[1] = a[0]+0x001;  //ster2
                 ; 0000 0A2C             a[2] = a[4];        //ster4 ABS druciak
                 ; 0000 0A2D             a[6] = a[5]+0x001;  //okrag
                 ; 0000 0A2E             a[8] = a[6]+0x001;  //-delta okrag
                 ; 0000 0A2F 
                 ; 0000 0A30     break;
                 ; 0000 0A31 
                 ; 0000 0A32 
                 ; 0000 0A33     case 53:
                 _0xE5:
0013a4 33e5      	CPI  R30,LOW(0x35)
0013a5 e0a0      	LDI  R26,HIGH(0x35)
0013a6 07fa      	CPC  R31,R26
0013a7 f449      	BRNE _0xE6
                 ; 0000 0A34 
                 ; 0000 0A35             a[0] = 0x04C;   //ster1
0013a8 e4ec      	LDI  R30,LOW(76)
0013a9 e0f0      	LDI  R31,HIGH(76)
0013aa 940e 2d45 	CALL SUBOPT_0x3B
                 ; 0000 0A36             a[3] = 0x11;    //ster4 INV druciak
0013ac 940e 2d4c 	CALL SUBOPT_0x3C
                 ; 0000 0A37             a[4] = 0x1F;    //ster3 ABS krazek scierny
0013ae 940e 2d8d 	CALL SUBOPT_0x43
                 ; 0000 0A38             a[5] = 0x196;   //delta okrag
0013b0 c544      	RJMP _0x474
                 ; 0000 0A39             a[7] = 0x12;    //ster3 INV krazek scierny
                 ; 0000 0A3A             a[9] = 1;     //na minus czy na plus wzgledem uklad liniowy szczotki drucianej   0 - na minus, 1 - na plus rzad 1
                 ; 0000 0A3B 
                 ; 0000 0A3C             a[1] = a[0]+0x001;  //ster2
                 ; 0000 0A3D             a[2] = a[4];        //ster4 ABS druciak
                 ; 0000 0A3E             a[6] = a[5]+0x001;  //okrag
                 ; 0000 0A3F             a[8] = a[6]+0x001;  //-delta okrag
                 ; 0000 0A40 
                 ; 0000 0A41     break;
                 ; 0000 0A42 
                 ; 0000 0A43 
                 ; 0000 0A44     case 54:
                 _0xE6:
0013b1 33e6      	CPI  R30,LOW(0x36)
0013b2 e0a0      	LDI  R26,HIGH(0x36)
0013b3 07fa      	CPC  R31,R26
0013b4 f449      	BRNE _0xE7
                 ; 0000 0A45 
                 ; 0000 0A46             a[0] = 0x01C;   //ster1
0013b5 e1ec      	LDI  R30,LOW(28)
0013b6 e0f0      	LDI  R31,HIGH(28)
0013b7 940e 2d45 	CALL SUBOPT_0x3B
                 ; 0000 0A47             a[3] = 0x11;    //ster4 INV druciak
0013b9 940e 2d4c 	CALL SUBOPT_0x3C
                 ; 0000 0A48             a[4] = 0x1E;    //ster3 ABS krazek scierny
0013bb 940e 2e00 	CALL SUBOPT_0x52
                 ; 0000 0A49             a[5] = 0x190;   //delta okrag
                 ; 0000 0A4A             a[7] = 0x0F;    //ster3 INV krazek scierny
0013bd c53d      	RJMP _0x472
                 ; 0000 0A4B             a[9] = 1;     //na minus czy na plus wzgledem uklad liniowy szczotki drucianej   0 - na minus, 1 - na plus rzad 1
                 ; 0000 0A4C 
                 ; 0000 0A4D             a[1] = a[0]+0x001;  //ster2
                 ; 0000 0A4E             a[2] = a[4];        //ster4 ABS druciak
                 ; 0000 0A4F             a[6] = a[5]+0x001;  //okrag
                 ; 0000 0A50             a[8] = a[6]+0x001;  //-delta okrag
                 ; 0000 0A51 
                 ; 0000 0A52     break;
                 ; 0000 0A53 
                 ; 0000 0A54     case 55:
                 _0xE7:
0013be 33e7      	CPI  R30,LOW(0x37)
0013bf e0a0      	LDI  R26,HIGH(0x37)
0013c0 07fa      	CPC  R31,R26
0013c1 f449      	BRNE _0xE8
                 ; 0000 0A55 
                 ; 0000 0A56             a[0] = 0x114;   //ster1
0013c2 e1e4      	LDI  R30,LOW(276)
0013c3 e0f1      	LDI  R31,HIGH(276)
0013c4 940e 2d45 	CALL SUBOPT_0x3B
                 ; 0000 0A57             a[3] = 0x11;    //ster4 INV druciak
0013c6 940e 2d4c 	CALL SUBOPT_0x3C
                 ; 0000 0A58             a[4] = 0x1A;    //ster3 ABS krazek scierny
0013c8 e1aa      	LDI  R26,LOW(26)
0013c9 e0b0      	LDI  R27,HIGH(26)
0013ca c524      	RJMP _0x475
                 ; 0000 0A59             a[5] = 0x19C;   //delta okrag
                 ; 0000 0A5A             a[7] = 0x12;    //ster3 INV krazek scierny
                 ; 0000 0A5B             a[9] = 1;     //na minus czy na plus wzgledem uklad liniowy szczotki drucianej   0 - na minus, 1 - na plus rzad 1
                 ; 0000 0A5C 
                 ; 0000 0A5D             a[1] = a[0]+0x001;  //ster2
                 ; 0000 0A5E             a[2] = a[4];        //ster4 ABS druciak
                 ; 0000 0A5F             a[6] = a[5]+0x001;  //okrag
                 ; 0000 0A60             a[8] = a[6]+0x001;  //-delta okrag
                 ; 0000 0A61 
                 ; 0000 0A62     break;
                 ; 0000 0A63 
                 ; 0000 0A64 
                 ; 0000 0A65     case 56:
                 _0xE8:
0013cb 33e8      	CPI  R30,LOW(0x38)
0013cc e0a0      	LDI  R26,HIGH(0x38)
0013cd 07fa      	CPC  R31,R26
0013ce f459      	BRNE _0xE9
                 ; 0000 0A66 
                 ; 0000 0A67             a[0] = 0x0EE;   //ster1
0013cf eeee      	LDI  R30,LOW(238)
0013d0 e0f0      	LDI  R31,HIGH(238)
0013d1 940e 2d45 	CALL SUBOPT_0x3B
                 ; 0000 0A68             a[3] = 0x11;    //ster4 INV druciak
0013d3 940e 2d4c 	CALL SUBOPT_0x3C
                 ; 0000 0A69             a[4] = 0x19;    //ster3 ABS krazek scierny
0013d5 940e 2e45 	CALL SUBOPT_0x58
                 ; 0000 0A6A             a[5] = 0x190;   //delta okrag
                 ; 0000 0A6B             a[7] = 0x13;    //ster3 INV krazek scierny
0013d7 940e 2d96 	CALL SUBOPT_0x44
                 ; 0000 0A6C             a[9] = 0;     //na minus czy na plus wzgledem uklad liniowy szczotki drucianej   0 - na minus, 1 - na plus rzad 1
0013d9 c527      	RJMP _0x473
                 ; 0000 0A6D 
                 ; 0000 0A6E             a[1] = a[0]+0x001;  //ster2
                 ; 0000 0A6F             a[2] = a[4];        //ster4 ABS druciak
                 ; 0000 0A70             a[6] = a[5]+0x001;  //okrag
                 ; 0000 0A71             a[8] = a[6]+0x001;  //-delta okrag
                 ; 0000 0A72 
                 ; 0000 0A73     break;
                 ; 0000 0A74 
                 ; 0000 0A75 
                 ; 0000 0A76     case 57:
                 _0xE9:
0013da 33e9      	CPI  R30,LOW(0x39)
0013db e0a0      	LDI  R26,HIGH(0x39)
0013dc 07fa      	CPC  R31,R26
0013dd f459      	BRNE _0xEA
                 ; 0000 0A77 
                 ; 0000 0A78             a[0] = 0x0F8;   //ster1
0013de efe8      	LDI  R30,LOW(248)
0013df e0f0      	LDI  R31,HIGH(248)
0013e0 940e 2d45 	CALL SUBOPT_0x3B
                 ; 0000 0A79             a[3] = 0x11;    //ster4 INV druciak
0013e2 940e 2d4c 	CALL SUBOPT_0x3C
                 ; 0000 0A7A             a[4] = 0x19;    //ster3 ABS krazek scierny
0013e4 940e 2e54 	CALL SUBOPT_0x59
                 ; 0000 0A7B             a[5] = 0x190;   //delta okrag
                 ; 0000 0A7C             a[7] = 0x11;    //ster3 INV krazek scierny
0013e6 940e 2d96 	CALL SUBOPT_0x44
                 ; 0000 0A7D             a[9] = 0;     //na minus czy na plus wzgledem uklad liniowy szczotki drucianej   0 - na minus, 1 - na plus rzad 1
0013e8 c518      	RJMP _0x473
                 ; 0000 0A7E 
                 ; 0000 0A7F             a[1] = a[0]+0x001;  //ster2
                 ; 0000 0A80             a[2] = a[4];        //ster4 ABS druciak
                 ; 0000 0A81             a[6] = a[5]+0x001;  //okrag
                 ; 0000 0A82             a[8] = a[6]+0x001;  //-delta okrag
                 ; 0000 0A83 
                 ; 0000 0A84     break;
                 ; 0000 0A85 
                 ; 0000 0A86 
                 ; 0000 0A87     case 58:
                 _0xEA:
0013e9 33ea      	CPI  R30,LOW(0x3A)
0013ea e0a0      	LDI  R26,HIGH(0x3A)
0013eb 07fa      	CPC  R31,R26
0013ec f459      	BRNE _0xEB
                 ; 0000 0A88 
                 ; 0000 0A89             a[0] = 0x0E4;   //ster1
0013ed eee4      	LDI  R30,LOW(228)
0013ee e0f0      	LDI  R31,HIGH(228)
0013ef 940e 2d45 	CALL SUBOPT_0x3B
                 ; 0000 0A8A             a[3] = 0x11;    //ster4 INV druciak
0013f1 940e 2d4c 	CALL SUBOPT_0x3C
                 ; 0000 0A8B             a[4] = 0x20;    //ster3 ABS krazek scierny
0013f3 940e 2def 	CALL SUBOPT_0x4F
                 ; 0000 0A8C             a[5] = 0x196;   //delta okrag
0013f5 940e 2dfd 	CALL SUBOPT_0x51
                 ; 0000 0A8D             a[7] = 0x12;    //ster3 INV krazek scierny
                 ; 0000 0A8E             a[9] = 0;     //na minus czy na plus wzgledem uklad liniowy szczotki drucianej   0 - na minus, 1 - na plus rzad 1
0013f7 c509      	RJMP _0x473
                 ; 0000 0A8F 
                 ; 0000 0A90             a[1] = a[0]+0x001;  //ster2
                 ; 0000 0A91             a[2] = a[4];        //ster4 ABS druciak
                 ; 0000 0A92             a[6] = a[5]+0x001;  //okrag
                 ; 0000 0A93             a[8] = a[6]+0x001;  //-delta okrag
                 ; 0000 0A94 
                 ; 0000 0A95     break;
                 ; 0000 0A96 
                 ; 0000 0A97 
                 ; 0000 0A98     case 59:
                 _0xEB:
0013f8 33eb      	CPI  R30,LOW(0x3B)
0013f9 e0a0      	LDI  R26,HIGH(0x3B)
0013fa 07fa      	CPC  R31,R26
0013fb f459      	BRNE _0xEC
                 ; 0000 0A99 
                 ; 0000 0A9A             a[0] = 0x052;   //ster1
0013fc e5e2      	LDI  R30,LOW(82)
0013fd e0f0      	LDI  R31,HIGH(82)
0013fe 940e 2d45 	CALL SUBOPT_0x3B
                 ; 0000 0A9B             a[3] = 0x11;    //ster4 INV druciak
001400 940e 2d4c 	CALL SUBOPT_0x3C
                 ; 0000 0A9C             a[4] = 0x1C;    //ster3 ABS krazek scierny
001402 940e 2e5d 	CALL SUBOPT_0x5A
                 ; 0000 0A9D             a[5] = 0x199;   //delta okrag
001404 940e 2dda 	CALL SUBOPT_0x4C
                 ; 0000 0A9E             a[7] = 0x12;    //ster3 INV krazek scierny
                 ; 0000 0A9F             a[9] = 0;     //na minus czy na plus wzgledem uklad liniowy szczotki drucianej   0 - na minus, 1 - na plus rzad 1
001406 c4fa      	RJMP _0x473
                 ; 0000 0AA0 
                 ; 0000 0AA1             a[1] = a[0]+0x001;  //ster2
                 ; 0000 0AA2             a[2] = a[4];        //ster4 ABS druciak
                 ; 0000 0AA3             a[6] = a[5]+0x001;  //okrag
                 ; 0000 0AA4             a[8] = a[6]+0x001;  //-delta okrag
                 ; 0000 0AA5 
                 ; 0000 0AA6     break;
                 ; 0000 0AA7 
                 ; 0000 0AA8 
                 ; 0000 0AA9     case 60:
                 _0xEC:
001407 33ec      	CPI  R30,LOW(0x3C)
001408 e0a0      	LDI  R26,HIGH(0x3C)
001409 07fa      	CPC  R31,R26
00140a f479      	BRNE _0xED
                 ; 0000 0AAA 
                 ; 0000 0AAB             a[0] = 0x090;   //ster1
00140b e9e0      	LDI  R30,LOW(144)
00140c e0f0      	LDI  R31,HIGH(144)
00140d 940e 2d45 	CALL SUBOPT_0x3B
                 ; 0000 0AAC             a[3] = 0x11;    //ster4 INV druciak
00140f 940e 2d4c 	CALL SUBOPT_0x3C
                 ; 0000 0AAD             a[4] = 0x1A;    //ster3 ABS krazek scierny
001411 940e 2e64 	CALL SUBOPT_0x5B
                 ; 0000 0AAE             a[5] = 0x190;   //delta okrag
001413 e9a0      	LDI  R26,LOW(400)
001414 e0b1      	LDI  R27,HIGH(400)
001415 940e 2d99 	CALL SUBOPT_0x45
                 ; 0000 0AAF             a[7] = 0x11;    //ster3 INV krazek scierny
001417 940e 2d96 	CALL SUBOPT_0x44
                 ; 0000 0AB0             a[9] = 0;     //na minus czy na plus wzgledem uklad liniowy szczotki drucianej   0 - na minus, 1 - na plus rzad 1
001419 c4e7      	RJMP _0x473
                 ; 0000 0AB1 
                 ; 0000 0AB2             a[1] = a[0]+0x001;  //ster2
                 ; 0000 0AB3             a[2] = a[4];        //ster4 ABS druciak
                 ; 0000 0AB4             a[6] = a[5]+0x001;  //okrag
                 ; 0000 0AB5             a[8] = a[6]+0x001;  //-delta okrag
                 ; 0000 0AB6 
                 ; 0000 0AB7     break;
                 ; 0000 0AB8 
                 ; 0000 0AB9 
                 ; 0000 0ABA     case 61:
                 _0xED:
00141a 33ed      	CPI  R30,LOW(0x3D)
00141b e0a0      	LDI  R26,HIGH(0x3D)
00141c 07fa      	CPC  R31,R26
00141d f449      	BRNE _0xEE
                 ; 0000 0ABB 
                 ; 0000 0ABC             a[0] = 0x0FC;   //ster1
00141e efec      	LDI  R30,LOW(252)
00141f e0f0      	LDI  R31,HIGH(252)
001420 940e 2d45 	CALL SUBOPT_0x3B
                 ; 0000 0ABD             a[3] = 0x11;    //ster4 INV druciak
001422 940e 2d4c 	CALL SUBOPT_0x3C
                 ; 0000 0ABE             a[4] = 0x18;    //ster3 ABS krazek scierny
001424 940e 2de6 	CALL SUBOPT_0x4E
                 ; 0000 0ABF             a[5] = 0x190;   //delta okrag
                 ; 0000 0AC0             a[7] = 0x11;    //ster3 INV krazek scierny
001426 c4d4      	RJMP _0x472
                 ; 0000 0AC1             a[9] = 1;     //na minus czy na plus wzgledem uklad liniowy szczotki drucianej   0 - na minus, 1 - na plus rzad 1
                 ; 0000 0AC2 
                 ; 0000 0AC3             a[1] = a[0]+0x001;  //ster2
                 ; 0000 0AC4             a[2] = a[4];        //ster4 ABS druciak
                 ; 0000 0AC5             a[6] = a[5]+0x001;  //okrag
                 ; 0000 0AC6             a[8] = a[6]+0x001;  //-delta okrag
                 ; 0000 0AC7 
                 ; 0000 0AC8     break;
                 ; 0000 0AC9 
                 ; 0000 0ACA 
                 ; 0000 0ACB     case 62:
                 _0xEE:
001427 33ee      	CPI  R30,LOW(0x3E)
001428 e0a0      	LDI  R26,HIGH(0x3E)
001429 07fa      	CPC  R31,R26
00142a f459      	BRNE _0xEF
                 ; 0000 0ACC 
                 ; 0000 0ACD             a[0] = 0x028;   //ster1
00142b e2e8      	LDI  R30,LOW(40)
00142c e0f0      	LDI  R31,HIGH(40)
00142d 940e 2d45 	CALL SUBOPT_0x3B
                 ; 0000 0ACE             a[3] = 0x11;    //ster4 INV druciak
00142f 940e 2d4c 	CALL SUBOPT_0x3C
                 ; 0000 0ACF             a[4] = 0x20;    //ster3 ABS krazek scierny
001431 940e 2def 	CALL SUBOPT_0x4F
                 ; 0000 0AD0             a[5] = 0x196;   //delta okrag
001433 e9a6      	LDI  R26,LOW(406)
001434 e0b1      	LDI  R27,HIGH(406)
001435 c4bf      	RJMP _0x474
                 ; 0000 0AD1             a[7] = 0x12;    //ster3 INV krazek scierny
                 ; 0000 0AD2             a[9] = 1;     //na minus czy na plus wzgledem uklad liniowy szczotki drucianej   0 - na minus, 1 - na plus rzad 1
                 ; 0000 0AD3 
                 ; 0000 0AD4             a[1] = a[0]+0x001;  //ster2
                 ; 0000 0AD5             a[2] = a[4];        //ster4 ABS druciak
                 ; 0000 0AD6             a[6] = a[5]+0x001;  //okrag
                 ; 0000 0AD7             a[8] = a[6]+0x001;  //-delta okrag
                 ; 0000 0AD8 
                 ; 0000 0AD9     break;
                 ; 0000 0ADA 
                 ; 0000 0ADB 
                 ; 0000 0ADC     case 63:
                 _0xEF:
001436 33ef      	CPI  R30,LOW(0x3F)
001437 e0a0      	LDI  R26,HIGH(0x3F)
001438 07fa      	CPC  R31,R26
001439 f459      	BRNE _0xF0
                 ; 0000 0ADD 
                 ; 0000 0ADE             a[0] = 0x034;   //ster1
00143a e3e4      	LDI  R30,LOW(52)
00143b e0f0      	LDI  R31,HIGH(52)
00143c 940e 2d45 	CALL SUBOPT_0x3B
                 ; 0000 0ADF             a[3] = 0x11;    //ster4 INV druciak
00143e 940e 2d4c 	CALL SUBOPT_0x3C
                 ; 0000 0AE0             a[4] = 0x1C;    //ster3 ABS krazek scierny
001440 940e 2e5d 	CALL SUBOPT_0x5A
                 ; 0000 0AE1             a[5] = 0x199;   //delta okrag
001442 e9a9      	LDI  R26,LOW(409)
001443 e0b1      	LDI  R27,HIGH(409)
001444 c4b0      	RJMP _0x474
                 ; 0000 0AE2             a[7] = 0x12;    //ster3 INV krazek scierny
                 ; 0000 0AE3             a[9] = 1;     //na minus czy na plus wzgledem uklad liniowy szczotki drucianej   0 - na minus, 1 - na plus rzad 1
                 ; 0000 0AE4 
                 ; 0000 0AE5             a[1] = a[0]+0x001;  //ster2
                 ; 0000 0AE6             a[2] = a[4];        //ster4 ABS druciak
                 ; 0000 0AE7             a[6] = a[5]+0x001;  //okrag
                 ; 0000 0AE8             a[8] = a[6]+0x001;  //-delta okrag
                 ; 0000 0AE9 
                 ; 0000 0AEA     break;
                 ; 0000 0AEB 
                 ; 0000 0AEC 
                 ; 0000 0AED     case 64:
                 _0xF0:
001445 34e0      	CPI  R30,LOW(0x40)
001446 e0a0      	LDI  R26,HIGH(0x40)
001447 07fa      	CPC  R31,R26
001448 f449      	BRNE _0xF1
                 ; 0000 0AEE 
                 ; 0000 0AEF             a[0] = 0x0EC;   //ster1
001449 eeec      	LDI  R30,LOW(236)
00144a e0f0      	LDI  R31,HIGH(236)
00144b 940e 2d45 	CALL SUBOPT_0x3B
                 ; 0000 0AF0             a[3] = 0x11;    //ster4 INV druciak
00144d 940e 2d4c 	CALL SUBOPT_0x3C
                 ; 0000 0AF1             a[4] = 0x19;    //ster3 ABS krazek scierny
00144f 940e 2e54 	CALL SUBOPT_0x59
                 ; 0000 0AF2             a[5] = 0x190;   //delta okrag
                 ; 0000 0AF3             a[7] = 0x11;    //ster3 INV krazek scierny
001451 c4a9      	RJMP _0x472
                 ; 0000 0AF4             a[9] = 1;     //na minus czy na plus wzgledem uklad liniowy szczotki drucianej   0 - na minus, 1 - na plus rzad 1
                 ; 0000 0AF5 
                 ; 0000 0AF6             a[1] = a[0]+0x001;  //ster2
                 ; 0000 0AF7             a[2] = a[4];        //ster4 ABS druciak
                 ; 0000 0AF8             a[6] = a[5]+0x001;  //okrag
                 ; 0000 0AF9             a[8] = a[6]+0x001;  //-delta okrag
                 ; 0000 0AFA 
                 ; 0000 0AFB     break;
                 ; 0000 0AFC 
                 ; 0000 0AFD 
                 ; 0000 0AFE     case 65:
                 _0xF1:
001452 34e1      	CPI  R30,LOW(0x41)
001453 e0a0      	LDI  R26,HIGH(0x41)
001454 07fa      	CPC  R31,R26
001455 f459      	BRNE _0xF2
                 ; 0000 0AFF 
                 ; 0000 0B00             a[0] = 0x0CC;   //ster1
001456 ecec      	LDI  R30,LOW(204)
001457 e0f0      	LDI  R31,HIGH(204)
001458 940e 2d45 	CALL SUBOPT_0x3B
                 ; 0000 0B01             a[3] = 0x11;    //ster4 INV druciak
00145a 940e 2d4c 	CALL SUBOPT_0x3C
                 ; 0000 0B02             a[4] = 0x16;    //ster3 ABS krazek scierny
00145c 940e 2e6b 	CALL SUBOPT_0x5C
                 ; 0000 0B03             a[5] = 0x193;   //delta okrag
00145e 940e 2d84 	CALL SUBOPT_0x42
                 ; 0000 0B04             a[7] = 0x12;    //ster3 INV krazek scierny
                 ; 0000 0B05             a[9] = 0;     //na minus czy na plus wzgledem uklad liniowy szczotki drucianej   0 - na minus, 1 - na plus rzad 1
001460 c4a0      	RJMP _0x473
                 ; 0000 0B06 
                 ; 0000 0B07             a[1] = a[0]+0x001;  //ster2
                 ; 0000 0B08             a[2] = a[4];        //ster4 ABS druciak
                 ; 0000 0B09             a[6] = a[5]+0x001;  //okrag
                 ; 0000 0B0A             a[8] = a[6]+0x001;  //-delta okrag
                 ; 0000 0B0B 
                 ; 0000 0B0C     break;
                 ; 0000 0B0D 
                 ; 0000 0B0E 
                 ; 0000 0B0F     case 66:
                 _0xF2:
001461 34e2      	CPI  R30,LOW(0x42)
001462 e0a0      	LDI  R26,HIGH(0x42)
001463 07fa      	CPC  R31,R26
001464 f459      	BRNE _0xF3
                 ; 0000 0B10 
                 ; 0000 0B11             a[0] = 0x0BC;   //ster1
001465 ebec      	LDI  R30,LOW(188)
001466 e0f0      	LDI  R31,HIGH(188)
001467 940e 2d45 	CALL SUBOPT_0x3B
                 ; 0000 0B12             a[3] = 0x11;    //ster4 INV druciak
001469 940e 2d4c 	CALL SUBOPT_0x3C
                 ; 0000 0B13             a[4] = 0x1C;    //ster3 ABS krazek scierny
00146b 940e 2e5d 	CALL SUBOPT_0x5A
                 ; 0000 0B14             a[5] = 0x196;   //delta okrag
00146d 940e 2e74 	CALL SUBOPT_0x5D
                 ; 0000 0B15             a[7] = 0x11;    //ster3 INV krazek scierny
00146f c48b      	RJMP _0x472
                 ; 0000 0B16             a[9] = 1;     //na minus czy na plus wzgledem uklad liniowy szczotki drucianej   0 - na minus, 1 - na plus rzad 1
                 ; 0000 0B17 
                 ; 0000 0B18             a[1] = a[0]+0x001;  //ster2
                 ; 0000 0B19             a[2] = a[4];        //ster4 ABS druciak
                 ; 0000 0B1A             a[6] = a[5]+0x001;  //okrag
                 ; 0000 0B1B             a[8] = a[6]+0x001;  //-delta okrag
                 ; 0000 0B1C 
                 ; 0000 0B1D     break;
                 ; 0000 0B1E 
                 ; 0000 0B1F 
                 ; 0000 0B20     case 67:
                 _0xF3:
001470 34e3      	CPI  R30,LOW(0x43)
001471 e0a0      	LDI  R26,HIGH(0x43)
001472 07fa      	CPC  R31,R26
001473 f459      	BRNE _0xF4
                 ; 0000 0B21 
                 ; 0000 0B22             a[0] = 0x09C;   //ster1
001474 e9ec      	LDI  R30,LOW(156)
001475 e0f0      	LDI  R31,HIGH(156)
001476 940e 2d45 	CALL SUBOPT_0x3B
                 ; 0000 0B23             a[3] = 0x11;    //ster4 INV druciak
001478 940e 2d4c 	CALL SUBOPT_0x3C
                 ; 0000 0B24             a[4] = 0x1C;    //ster3 ABS krazek scierny
00147a 940e 2e5d 	CALL SUBOPT_0x5A
                 ; 0000 0B25             a[5] = 0x196;   //delta okrag
00147c e9a6      	LDI  R26,LOW(406)
00147d e0b1      	LDI  R27,HIGH(406)
00147e c476      	RJMP _0x474
                 ; 0000 0B26             a[7] = 0x12;    //ster3 INV krazek scierny
                 ; 0000 0B27             a[9] = 1;     //na minus czy na plus wzgledem uklad liniowy szczotki drucianej   0 - na minus, 1 - na plus rzad 1
                 ; 0000 0B28 
                 ; 0000 0B29             a[1] = a[0]+0x001;  //ster2
                 ; 0000 0B2A             a[2] = a[4];        //ster4 ABS druciak
                 ; 0000 0B2B             a[6] = a[5]+0x001;  //okrag
                 ; 0000 0B2C             a[8] = a[6]+0x001;  //-delta okrag
                 ; 0000 0B2D 
                 ; 0000 0B2E     break;
                 ; 0000 0B2F 
                 ; 0000 0B30 
                 ; 0000 0B31     case 68:
                 _0xF4:
00147f 34e4      	CPI  R30,LOW(0x44)
001480 e0a0      	LDI  R26,HIGH(0x44)
001481 07fa      	CPC  R31,R26
001482 f449      	BRNE _0xF5
                 ; 0000 0B32 
                 ; 0000 0B33             a[0] = 0x07C;   //ster1
001483 e7ec      	LDI  R30,LOW(124)
001484 e0f0      	LDI  R31,HIGH(124)
001485 940e 2d45 	CALL SUBOPT_0x3B
                 ; 0000 0B34             a[3] = 0x11;    //ster4 INV druciak
001487 940e 2d4c 	CALL SUBOPT_0x3C
                 ; 0000 0B35             a[4] = 0x21;    //ster3 ABS krazek scierny
001489 940e 2db2 	CALL SUBOPT_0x48
                 ; 0000 0B36             a[5] = 0x199;   //delta okrag
00148b c469      	RJMP _0x474
                 ; 0000 0B37             a[7] = 0x12;    //ster3 INV krazek scierny
                 ; 0000 0B38             a[9] = 1;     //na minus czy na plus wzgledem uklad liniowy szczotki drucianej   0 - na minus, 1 - na plus rzad 1
                 ; 0000 0B39 
                 ; 0000 0B3A             a[1] = a[0]+0x001;  //ster2
                 ; 0000 0B3B             a[2] = a[4];        //ster4 ABS druciak
                 ; 0000 0B3C             a[6] = a[5]+0x001;  //okrag
                 ; 0000 0B3D             a[8] = a[6]+0x001;  //-delta okrag
                 ; 0000 0B3E 
                 ; 0000 0B3F     break;
                 ; 0000 0B40 
                 ; 0000 0B41 
                 ; 0000 0B42     case 69:
                 _0xF5:
00148c 34e5      	CPI  R30,LOW(0x45)
00148d e0a0      	LDI  R26,HIGH(0x45)
00148e 07fa      	CPC  R31,R26
00148f f449      	BRNE _0xF6
                 ; 0000 0B43 
                 ; 0000 0B44             a[0] = 0x0D2;   //ster1
001490 ede2      	LDI  R30,LOW(210)
001491 e0f0      	LDI  R31,HIGH(210)
001492 940e 2d45 	CALL SUBOPT_0x3B
                 ; 0000 0B45             a[3] = 0x11;    //ster4 INV druciak
001494 940e 2d4c 	CALL SUBOPT_0x3C
                 ; 0000 0B46             a[4] = 0x16;    //ster3 ABS krazek scierny
001496 940e 2e6b 	CALL SUBOPT_0x5C
                 ; 0000 0B47             a[5] = 0x193;   //delta okrag
001498 c45c      	RJMP _0x474
                 ; 0000 0B48             a[7] = 0x12;    //ster3 INV krazek scierny
                 ; 0000 0B49             a[9] = 1;     //na minus czy na plus wzgledem uklad liniowy szczotki drucianej   0 - na minus, 1 - na plus rzad 1
                 ; 0000 0B4A 
                 ; 0000 0B4B             a[1] = a[0]+0x001;  //ster2
                 ; 0000 0B4C             a[2] = a[4];        //ster4 ABS druciak
                 ; 0000 0B4D             a[6] = a[5]+0x001;  //okrag
                 ; 0000 0B4E             a[8] = a[6]+0x001;  //-delta okrag
                 ; 0000 0B4F 
                 ; 0000 0B50     break;
                 ; 0000 0B51 
                 ; 0000 0B52 
                 ; 0000 0B53     case 70:
                 _0xF6:
001499 34e6      	CPI  R30,LOW(0x46)
00149a e0a0      	LDI  R26,HIGH(0x46)
00149b 07fa      	CPC  R31,R26
00149c f469      	BRNE _0xF7
                 ; 0000 0B54 
                 ; 0000 0B55             a[0] = 0x0E6;   //ster1
00149d eee6      	LDI  R30,LOW(230)
00149e e0f0      	LDI  R31,HIGH(230)
00149f 940e 2d45 	CALL SUBOPT_0x3B
                 ; 0000 0B56             a[3] = 0x11;    //ster4 INV druciak
0014a1 940e 2d4c 	CALL SUBOPT_0x3C
                 ; 0000 0B57             a[4] = 0x1C;    //ster3 ABS krazek scierny
0014a3 940e 2e5d 	CALL SUBOPT_0x5A
                 ; 0000 0B58             a[5] = 0x196;   //delta okrag
0014a5 940e 2e74 	CALL SUBOPT_0x5D
                 ; 0000 0B59             a[7] = 0x11;    //ster3 INV krazek scierny
0014a7 940e 2d96 	CALL SUBOPT_0x44
                 ; 0000 0B5A             a[9] = 0;     //na minus czy na plus wzgledem uklad liniowy szczotki drucianej   0 - na minus, 1 - na plus rzad 1
0014a9 c457      	RJMP _0x473
                 ; 0000 0B5B 
                 ; 0000 0B5C             a[1] = a[0]+0x001;  //ster2
                 ; 0000 0B5D             a[2] = a[4];        //ster4 ABS druciak
                 ; 0000 0B5E             a[6] = a[5]+0x001;  //okrag
                 ; 0000 0B5F             a[8] = a[6]+0x001;  //-delta okrag
                 ; 0000 0B60 
                 ; 0000 0B61     break;
                 ; 0000 0B62 
                 ; 0000 0B63 
                 ; 0000 0B64     case 71:
                 _0xF7:
0014aa 34e7      	CPI  R30,LOW(0x47)
0014ab e0a0      	LDI  R26,HIGH(0x47)
0014ac 07fa      	CPC  R31,R26
0014ad f459      	BRNE _0xF8
                 ; 0000 0B65 
                 ; 0000 0B66             a[0] = 0x0B4;   //ster1
0014ae ebe4      	LDI  R30,LOW(180)
0014af e0f0      	LDI  R31,HIGH(180)
0014b0 940e 2d45 	CALL SUBOPT_0x3B
                 ; 0000 0B67             a[3] = 0x11;    //ster4 INV druciak
0014b2 940e 2d4c 	CALL SUBOPT_0x3C
                 ; 0000 0B68             a[4] = 0x1C;    //ster3 ABS krazek scierny
0014b4 940e 2e5d 	CALL SUBOPT_0x5A
                 ; 0000 0B69             a[5] = 0x196;   //delta okrag
0014b6 940e 2dfd 	CALL SUBOPT_0x51
                 ; 0000 0B6A             a[7] = 0x12;    //ster3 INV krazek scierny
                 ; 0000 0B6B             a[9] = 0;     //na minus czy na plus wzgledem uklad liniowy szczotki drucianej   0 - na minus, 1 - na plus rzad 1
0014b8 c448      	RJMP _0x473
                 ; 0000 0B6C 
                 ; 0000 0B6D             a[1] = a[0]+0x001;  //ster2
                 ; 0000 0B6E             a[2] = a[4];        //ster4 ABS druciak
                 ; 0000 0B6F             a[6] = a[5]+0x001;  //okrag
                 ; 0000 0B70             a[8] = a[6]+0x001;  //-delta okrag
                 ; 0000 0B71 
                 ; 0000 0B72     break;
                 ; 0000 0B73 
                 ; 0000 0B74 
                 ; 0000 0B75     case 72:
                 _0xF8:
0014b9 34e8      	CPI  R30,LOW(0x48)
0014ba e0a0      	LDI  R26,HIGH(0x48)
0014bb 07fa      	CPC  R31,R26
0014bc f459      	BRNE _0xF9
                 ; 0000 0B76 
                 ; 0000 0B77             a[0] = 0x0AC;   //ster1
0014bd eaec      	LDI  R30,LOW(172)
0014be e0f0      	LDI  R31,HIGH(172)
0014bf 940e 2d45 	CALL SUBOPT_0x3B
                 ; 0000 0B78             a[3] = 0x11;    //ster4 INV druciak
0014c1 940e 2d4c 	CALL SUBOPT_0x3C
                 ; 0000 0B79             a[4] = 0x21;    //ster3 ABS krazek scierny
0014c3 940e 2db2 	CALL SUBOPT_0x48
                 ; 0000 0B7A             a[5] = 0x199;   //delta okrag
0014c5 940e 2d84 	CALL SUBOPT_0x42
                 ; 0000 0B7B             a[7] = 0x12;    //ster3 INV krazek scierny
                 ; 0000 0B7C             a[9] = 0;     //na minus czy na plus wzgledem uklad liniowy szczotki drucianej   0 - na minus, 1 - na plus rzad 1
0014c7 c439      	RJMP _0x473
                 ; 0000 0B7D 
                 ; 0000 0B7E             a[1] = a[0]+0x001;  //ster2
                 ; 0000 0B7F             a[2] = a[4];        //ster4 ABS druciak
                 ; 0000 0B80             a[6] = a[5]+0x001;  //okrag
                 ; 0000 0B81             a[8] = a[6]+0x001;  //-delta okrag
                 ; 0000 0B82 
                 ; 0000 0B83     break;
                 ; 0000 0B84 
                 ; 0000 0B85 
                 ; 0000 0B86     case 73:
                 _0xF9:
0014c8 34e9      	CPI  R30,LOW(0x49)
0014c9 e0a0      	LDI  R26,HIGH(0x49)
0014ca 07fa      	CPC  R31,R26
0014cb f469      	BRNE _0xFA
                 ; 0000 0B87 
                 ; 0000 0B88             a[0] = 0x012;   //ster1
0014cc e1e2      	LDI  R30,LOW(18)
0014cd e0f0      	LDI  R31,HIGH(18)
0014ce 940e 2d45 	CALL SUBOPT_0x3B
                 ; 0000 0B89             a[3] = 0x10;    //ster4 INV druciak
0014d0 940e 2d62 	CALL SUBOPT_0x3E
                 ; 0000 0B8A             a[4] = 0x1B;    //ster3 ABS krazek scierny
                +
0014d2 e6ed     +LDI R30 , LOW ( _a + ( 8 ) )
0014d3 e0f5     +LDI R31 , HIGH ( _a + ( 8 ) )
                 	__POINTW1MN _a,8
0014d4 940e 2e3e 	CALL SUBOPT_0x57
                 ; 0000 0B8B             a[5] = 0x196;   //delta okrag
0014d6 940e 2dfd 	CALL SUBOPT_0x51
                 ; 0000 0B8C             a[7] = 0x12;    //ster3 INV krazek scierny
                 ; 0000 0B8D             a[9] = 0;     //na minus czy na plus wzgledem uklad liniowy szczotki drucianej   0 - na minus, 1 - na plus rzad 1
0014d8 c428      	RJMP _0x473
                 ; 0000 0B8E 
                 ; 0000 0B8F             a[1] = a[0]+0x001;  //ster2
                 ; 0000 0B90             a[2] = a[4];        //ster4 ABS druciak
                 ; 0000 0B91             a[6] = a[5]+0x001;  //okrag
                 ; 0000 0B92             a[8] = a[6]+0x001;  //-delta okrag
                 ; 0000 0B93 
                 ; 0000 0B94     break;
                 ; 0000 0B95 
                 ; 0000 0B96 
                 ; 0000 0B97     case 74:
                 _0xFA:
0014d9 34ea      	CPI  R30,LOW(0x4A)
0014da e0a0      	LDI  R26,HIGH(0x4A)
0014db 07fa      	CPC  R31,R26
0014dc f459      	BRNE _0xFB
                 ; 0000 0B98 
                 ; 0000 0B99             a[0] = 0x0B2;   //ster1
0014dd ebe2      	LDI  R30,LOW(178)
0014de e0f0      	LDI  R31,HIGH(178)
0014df 940e 2d45 	CALL SUBOPT_0x3B
                 ; 0000 0B9A             a[3] = 0x11;    //ster4 INV druciak
0014e1 940e 2d4c 	CALL SUBOPT_0x3C
                 ; 0000 0B9B             a[4] = 0x1F;    //ster3 ABS krazek scierny
0014e3 940e 2d8d 	CALL SUBOPT_0x43
                 ; 0000 0B9C             a[5] = 0x196;   //delta okrag
0014e5 940e 2d84 	CALL SUBOPT_0x42
                 ; 0000 0B9D             a[7] = 0x12;    //ster3 INV krazek scierny
                 ; 0000 0B9E             a[9] = 0;     //na minus czy na plus wzgledem uklad liniowy szczotki drucianej   0 - na minus, 1 - na plus rzad 1
0014e7 c419      	RJMP _0x473
                 ; 0000 0B9F 
                 ; 0000 0BA0             a[1] = a[0]+0x001;  //ster2
                 ; 0000 0BA1             a[2] = a[4];        //ster4 ABS druciak
                 ; 0000 0BA2             a[6] = a[5]+0x001;  //okrag
                 ; 0000 0BA3             a[8] = a[6]+0x001;  //-delta okrag
                 ; 0000 0BA4 
                 ; 0000 0BA5     break;
                 ; 0000 0BA6 
                 ; 0000 0BA7 
                 ; 0000 0BA8     case 75:
                 _0xFB:
0014e8 34eb      	CPI  R30,LOW(0x4B)
0014e9 e0a0      	LDI  R26,HIGH(0x4B)
0014ea 07fa      	CPC  R31,R26
0014eb f459      	BRNE _0xFC
                 ; 0000 0BA9 
                 ; 0000 0BAA             a[0] = 0x10C;   //ster1
0014ec e0ec      	LDI  R30,LOW(268)
0014ed e0f1      	LDI  R31,HIGH(268)
0014ee 940e 2d45 	CALL SUBOPT_0x3B
                 ; 0000 0BAB             a[3] = 0x11;    //ster4 INV druciak
0014f0 940e 2d4c 	CALL SUBOPT_0x3C
                 ; 0000 0BAC             a[4] = 0x21;    //ster3 ABS krazek scierny
0014f2 940e 2df6 	CALL SUBOPT_0x50
                 ; 0000 0BAD             a[5] = 0x196;   //delta okrag
0014f4 940e 2dfd 	CALL SUBOPT_0x51
                 ; 0000 0BAE             a[7] = 0x12;    //ster3 INV krazek scierny
                 ; 0000 0BAF             a[9] = 0;     //na minus czy na plus wzgledem uklad liniowy szczotki drucianej   0 - na minus, 1 - na plus rzad 1
0014f6 c40a      	RJMP _0x473
                 ; 0000 0BB0 
                 ; 0000 0BB1             a[1] = a[0]+0x001;  //ster2
                 ; 0000 0BB2             a[2] = a[4];        //ster4 ABS druciak
                 ; 0000 0BB3             a[6] = a[5]+0x001;  //okrag
                 ; 0000 0BB4             a[8] = a[6]+0x001;  //-delta okrag
                 ; 0000 0BB5 
                 ; 0000 0BB6     break;
                 ; 0000 0BB7 
                 ; 0000 0BB8 
                 ; 0000 0BB9     case 76:
                 _0xFC:
0014f7 34ec      	CPI  R30,LOW(0x4C)
0014f8 e0a0      	LDI  R26,HIGH(0x4C)
0014f9 07fa      	CPC  R31,R26
0014fa f419      	BRNE _0xFD
                 ; 0000 0BBA 
                 ; 0000 0BBB             a[0] = 0x;   //ster1
0014fb 940e 2e28 	CALL SUBOPT_0x56
                 ; 0000 0BBC             a[3] = 0x;    //ster4 INV druciak
                 ; 0000 0BBD             a[4] = 0x;    //ster3 ABS krazek scierny
                 ; 0000 0BBE             a[5] = 0x;   //delta okrag
                 ; 0000 0BBF             a[7] = 0x;    //ster3 INV krazek scierny
                 ; 0000 0BC0             a[9] = 0;     //na minus czy na plus wzgledem uklad liniowy szczotki drucianej   0 - na minus, 1 - na plus rzad 1
0014fd c403      	RJMP _0x473
                 ; 0000 0BC1 
                 ; 0000 0BC2             a[1] = a[0]+0x001;  //ster2
                 ; 0000 0BC3             a[2] = a[4];        //ster4 ABS druciak
                 ; 0000 0BC4             a[6] = a[5]+0x001;  //okrag
                 ; 0000 0BC5             a[8] = a[6]+0x001;  //-delta okrag
                 ; 0000 0BC6 
                 ; 0000 0BC7     break;
                 ; 0000 0BC8 
                 ; 0000 0BC9 
                 ; 0000 0BCA     case 77:
                 _0xFD:
0014fe 34ed      	CPI  R30,LOW(0x4D)
0014ff e0a0      	LDI  R26,HIGH(0x4D)
001500 07fa      	CPC  R31,R26
001501 f469      	BRNE _0xFE
                 ; 0000 0BCB 
                 ; 0000 0BCC             a[0] = 0x026;   //ster1
001502 e2e6      	LDI  R30,LOW(38)
001503 e0f0      	LDI  R31,HIGH(38)
001504 940e 2d45 	CALL SUBOPT_0x3B
                 ; 0000 0BCD             a[3] = 0x10;    //ster4 INV druciak
001506 940e 2d62 	CALL SUBOPT_0x3E
                 ; 0000 0BCE             a[4] = 0x1B;    //ster3 ABS krazek scierny
                +
001508 e6ed     +LDI R30 , LOW ( _a + ( 8 ) )
001509 e0f5     +LDI R31 , HIGH ( _a + ( 8 ) )
                 	__POINTW1MN _a,8
00150a 940e 2e3e 	CALL SUBOPT_0x57
                 ; 0000 0BCF             a[5] = 0x196;   //delta okrag
00150c e9a6      	LDI  R26,LOW(406)
00150d e0b1      	LDI  R27,HIGH(406)
00150e c3e6      	RJMP _0x474
                 ; 0000 0BD0             a[7] = 0x12;    //ster3 INV krazek scierny
                 ; 0000 0BD1             a[9] = 1;     //na minus czy na plus wzgledem uklad liniowy szczotki drucianej   0 - na minus, 1 - na plus rzad 1
                 ; 0000 0BD2 
                 ; 0000 0BD3             a[1] = a[0]+0x001;  //ster2
                 ; 0000 0BD4             a[2] = a[4];        //ster4 ABS druciak
                 ; 0000 0BD5             a[6] = a[5]+0x001;  //okrag
                 ; 0000 0BD6             a[8] = a[6]+0x001;  //-delta okrag
                 ; 0000 0BD7 
                 ; 0000 0BD8     break;
                 ; 0000 0BD9 
                 ; 0000 0BDA 
                 ; 0000 0BDB     case 78:
                 _0xFE:
00150f 34ee      	CPI  R30,LOW(0x4E)
001510 e0a0      	LDI  R26,HIGH(0x4E)
001511 07fa      	CPC  R31,R26
001512 f459      	BRNE _0xFF
                 ; 0000 0BDC 
                 ; 0000 0BDD             a[0] = 0x11C;   //ster1
001513 e1ec      	LDI  R30,LOW(284)
001514 e0f1      	LDI  R31,HIGH(284)
001515 940e 2d45 	CALL SUBOPT_0x3B
                 ; 0000 0BDE             a[3] = 0x11;    //ster4 INV druciak
001517 940e 2d4c 	CALL SUBOPT_0x3C
                 ; 0000 0BDF             a[4] = 0x1E;    //ster3 ABS krazek scierny
001519 940e 2e77 	CALL SUBOPT_0x5E
                 ; 0000 0BE0             a[5] = 0x196;   //delta okrag
00151b e9a6      	LDI  R26,LOW(406)
00151c e0b1      	LDI  R27,HIGH(406)
00151d c3d7      	RJMP _0x474
                 ; 0000 0BE1             a[7] = 0x12;    //ster3 INV krazek scierny
                 ; 0000 0BE2             a[9] = 1;     //na minus czy na plus wzgledem uklad liniowy szczotki drucianej   0 - na minus, 1 - na plus rzad 1
                 ; 0000 0BE3 
                 ; 0000 0BE4             a[1] = a[0]+0x001;  //ster2
                 ; 0000 0BE5             a[2] = a[4];        //ster4 ABS druciak
                 ; 0000 0BE6             a[6] = a[5]+0x001;  //okrag
                 ; 0000 0BE7             a[8] = a[6]+0x001;  //-delta okrag
                 ; 0000 0BE8 
                 ; 0000 0BE9     break;
                 ; 0000 0BEA 
                 ; 0000 0BEB 
                 ; 0000 0BEC     case 79:
                 _0xFF:
00151e 34ef      	CPI  R30,LOW(0x4F)
00151f e0a0      	LDI  R26,HIGH(0x4F)
001520 07fa      	CPC  R31,R26
001521 f459      	BRNE _0x100
                 ; 0000 0BED 
                 ; 0000 0BEE             a[0] = 0x112;   //ster1
001522 e1e2      	LDI  R30,LOW(274)
001523 e0f1      	LDI  R31,HIGH(274)
001524 940e 2d45 	CALL SUBOPT_0x3B
                 ; 0000 0BEF             a[3] = 0x11;    //ster4 INV druciak
001526 940e 2d4c 	CALL SUBOPT_0x3C
                 ; 0000 0BF0             a[4] = 0x21;    //ster3 ABS krazek scierny
001528 940e 2df6 	CALL SUBOPT_0x50
                 ; 0000 0BF1             a[5] = 0x196;   //delta okrag
00152a e9a6      	LDI  R26,LOW(406)
00152b e0b1      	LDI  R27,HIGH(406)
00152c c3c8      	RJMP _0x474
                 ; 0000 0BF2             a[7] = 0x12;    //ster3 INV krazek scierny
                 ; 0000 0BF3             a[9] = 1;     //na minus czy na plus wzgledem uklad liniowy szczotki drucianej   0 - na minus, 1 - na plus rzad 1
                 ; 0000 0BF4 
                 ; 0000 0BF5             a[1] = a[0]+0x001;  //ster2
                 ; 0000 0BF6             a[2] = a[4];        //ster4 ABS druciak
                 ; 0000 0BF7             a[6] = a[5]+0x001;  //okrag
                 ; 0000 0BF8             a[8] = a[6]+0x001;  //-delta okrag
                 ; 0000 0BF9 
                 ; 0000 0BFA     break;
                 ; 0000 0BFB 
                 ; 0000 0BFC     case 80:
                 _0x100:
00152d 35e0      	CPI  R30,LOW(0x50)
00152e e0a0      	LDI  R26,HIGH(0x50)
00152f 07fa      	CPC  R31,R26
001530 f419      	BRNE _0x101
                 ; 0000 0BFD 
                 ; 0000 0BFE             a[0] = 0x;   //ster1
001531 940e 2e28 	CALL SUBOPT_0x56
                 ; 0000 0BFF             a[3] = 0x;    //ster4 INV druciak
                 ; 0000 0C00             a[4] = 0x;    //ster3 ABS krazek scierny
                 ; 0000 0C01             a[5] = 0x;   //delta okrag
                 ; 0000 0C02             a[7] = 0x;    //ster3 INV krazek scierny
                 ; 0000 0C03             a[9] = 0;     //na minus czy na plus wzgledem uklad liniowy szczotki drucianej   0 - na minus, 1 - na plus rzad 1
001533 c3cd      	RJMP _0x473
                 ; 0000 0C04 
                 ; 0000 0C05             a[1] = a[0]+0x001;  //ster2
                 ; 0000 0C06             a[2] = a[4];        //ster4 ABS druciak
                 ; 0000 0C07             a[6] = a[5]+0x001;  //okrag
                 ; 0000 0C08             a[8] = a[6]+0x001;  //-delta okrag
                 ; 0000 0C09 
                 ; 0000 0C0A     break;
                 ; 0000 0C0B 
                 ; 0000 0C0C     case 81:
                 _0x101:
001534 35e1      	CPI  R30,LOW(0x51)
001535 e0a0      	LDI  R26,HIGH(0x51)
001536 07fa      	CPC  R31,R26
001537 f459      	BRNE _0x102
                 ; 0000 0C0D 
                 ; 0000 0C0E             a[0] = 0x0EA;   //ster1
001538 eeea      	LDI  R30,LOW(234)
001539 e0f0      	LDI  R31,HIGH(234)
00153a 940e 2d45 	CALL SUBOPT_0x3B
                 ; 0000 0C0F             a[3] = 0x11;    //ster4 INV druciak
00153c 940e 2d4c 	CALL SUBOPT_0x3C
                 ; 0000 0C10             a[4] = 0x19;    //ster3 ABS krazek scierny
00153e 940e 2e7e 	CALL SUBOPT_0x5F
                 ; 0000 0C11             a[5] = 0x193;   //delta okrag
001540 940e 2d84 	CALL SUBOPT_0x42
                 ; 0000 0C12             a[7] = 0x12;    //ster3 INV krazek scierny
                 ; 0000 0C13             a[9] = 0;     //na minus czy na plus wzgledem uklad liniowy szczotki drucianej   0 - na minus, 1 - na plus rzad 1
001542 c3be      	RJMP _0x473
                 ; 0000 0C14 
                 ; 0000 0C15             a[1] = a[0]+0x001;  //ster2
                 ; 0000 0C16             a[2] = a[4];        //ster4 ABS druciak
                 ; 0000 0C17             a[6] = a[5]+0x001;  //okrag
                 ; 0000 0C18             a[8] = a[6]+0x001;  //-delta okrag
                 ; 0000 0C19 
                 ; 0000 0C1A     break;
                 ; 0000 0C1B 
                 ; 0000 0C1C 
                 ; 0000 0C1D     case 82:
                 _0x102:
001543 35e2      	CPI  R30,LOW(0x52)
001544 e0a0      	LDI  R26,HIGH(0x52)
001545 07fa      	CPC  R31,R26
001546 f459      	BRNE _0x103
                 ; 0000 0C1E 
                 ; 0000 0C1F             a[0] = 0x0D8;   //ster1
001547 ede8      	LDI  R30,LOW(216)
001548 e0f0      	LDI  R31,HIGH(216)
001549 940e 2d45 	CALL SUBOPT_0x3B
                 ; 0000 0C20             a[3] = 0x11;    //ster4 INV druciak
00154b 940e 2d4c 	CALL SUBOPT_0x3C
                 ; 0000 0C21             a[4] = 0x14;    //ster3 ABS krazek scierny
00154d 940e 2e87 	CALL SUBOPT_0x60
                 ; 0000 0C22             a[5] = 0x190;   //delta okrag
00154f 940e 2d84 	CALL SUBOPT_0x42
                 ; 0000 0C23             a[7] = 0x12;    //ster3 INV krazek scierny
                 ; 0000 0C24             a[9] = 0;     //na minus czy na plus wzgledem uklad liniowy szczotki drucianej   0 - na minus, 1 - na plus rzad 1
001551 c3af      	RJMP _0x473
                 ; 0000 0C25 
                 ; 0000 0C26             a[1] = a[0]+0x001;  //ster2
                 ; 0000 0C27             a[2] = a[4];        //ster4 ABS druciak
                 ; 0000 0C28             a[6] = a[5]+0x001;  //okrag
                 ; 0000 0C29             a[8] = a[6]+0x001;  //-delta okrag
                 ; 0000 0C2A 
                 ; 0000 0C2B     break;
                 ; 0000 0C2C 
                 ; 0000 0C2D 
                 ; 0000 0C2E     case 83:
                 _0x103:
001552 35e3      	CPI  R30,LOW(0x53)
001553 e0a0      	LDI  R26,HIGH(0x53)
001554 07fa      	CPC  R31,R26
001555 f469      	BRNE _0x104
                 ; 0000 0C2F 
                 ; 0000 0C30             a[0] = 0x08C;   //ster1
001556 e8ec      	LDI  R30,LOW(140)
001557 e0f0      	LDI  R31,HIGH(140)
001558 940e 2d45 	CALL SUBOPT_0x3B
                 ; 0000 0C31             a[3] = 0x11;    //ster4 INV druciak
00155a 940e 2d4c 	CALL SUBOPT_0x3C
                 ; 0000 0C32             a[4] = 0x22;    //ster3 ABS krazek scierny
00155c e2a2      	LDI  R26,LOW(34)
00155d e0b0      	LDI  R27,HIGH(34)
00155e 940e 2e90 	CALL SUBOPT_0x61
                 ; 0000 0C33             a[5] = 0x199;   //delta okrag
001560 e9a9      	LDI  R26,LOW(409)
001561 e0b1      	LDI  R27,HIGH(409)
001562 c392      	RJMP _0x474
                 ; 0000 0C34             a[7] = 0x12;    //ster3 INV krazek scierny
                 ; 0000 0C35             a[9] = 1;     //na minus czy na plus wzgledem uklad liniowy szczotki drucianej   0 - na minus, 1 - na plus rzad 1
                 ; 0000 0C36 
                 ; 0000 0C37             a[1] = a[0]+0x001;  //ster2
                 ; 0000 0C38             a[2] = a[4];        //ster4 ABS druciak
                 ; 0000 0C39             a[6] = a[5]+0x001;  //okrag
                 ; 0000 0C3A             a[8] = a[6]+0x001;  //-delta okrag
                 ; 0000 0C3B 
                 ; 0000 0C3C     break;
                 ; 0000 0C3D 
                 ; 0000 0C3E 
                 ; 0000 0C3F     case 84:
                 _0x104:
001563 35e4      	CPI  R30,LOW(0x54)
001564 e0a0      	LDI  R26,HIGH(0x54)
001565 07fa      	CPC  R31,R26
001566 f459      	BRNE _0x105
                 ; 0000 0C40 
                 ; 0000 0C41             a[0] = 0x0A0;   //ster1
001567 eae0      	LDI  R30,LOW(160)
001568 e0f0      	LDI  R31,HIGH(160)
001569 940e 2d45 	CALL SUBOPT_0x3B
                 ; 0000 0C42             a[3] = 0x12;    //ster4 INV druciak
00156b 940e 2e95 	CALL SUBOPT_0x62
                 ; 0000 0C43             a[4] = 0x24;    //ster3 ABS krazek scierny
                 ; 0000 0C44             a[5] = 0x196;   //delta okrag
00156d 940e 2e9e 	CALL SUBOPT_0x63
                 ; 0000 0C45             a[7] = 0x10;    //ster3 INV krazek scierny
00156f e1a0      	LDI  R26,LOW(16)
001570 e0b0      	LDI  R27,HIGH(16)
001571 c389      	RJMP _0x472
                 ; 0000 0C46             a[9] = 1;     //na minus czy na plus wzgledem uklad liniowy szczotki drucianej   0 - na minus, 1 - na plus rzad 1
                 ; 0000 0C47 
                 ; 0000 0C48             a[1] = a[0]+0x001;  //ster2
                 ; 0000 0C49             a[2] = a[4];        //ster4 ABS druciak
                 ; 0000 0C4A             a[6] = a[5]+0x001;  //okrag
                 ; 0000 0C4B             a[8] = a[6]+0x001;  //-delta okrag
                 ; 0000 0C4C 
                 ; 0000 0C4D     break;
                 ; 0000 0C4E 
                 ; 0000 0C4F 
                 ; 0000 0C50    case 85:
                 _0x105:
001572 35e5      	CPI  R30,LOW(0x55)
001573 e0a0      	LDI  R26,HIGH(0x55)
001574 07fa      	CPC  R31,R26
001575 f449      	BRNE _0x106
                 ; 0000 0C51 
                 ; 0000 0C52             a[0] = 0x0AE;   //ster1
001576 eaee      	LDI  R30,LOW(174)
001577 e0f0      	LDI  R31,HIGH(174)
001578 940e 2d45 	CALL SUBOPT_0x3B
                 ; 0000 0C53             a[3] = 0x11;    //ster4 INV druciak
00157a 940e 2d4c 	CALL SUBOPT_0x3C
                 ; 0000 0C54             a[4] = 0x19;    //ster3 ABS krazek scierny
00157c 940e 2e7e 	CALL SUBOPT_0x5F
                 ; 0000 0C55             a[5] = 0x193;   //delta okrag
00157e c376      	RJMP _0x474
                 ; 0000 0C56             a[7] = 0x12;    //ster3 INV krazek scierny
                 ; 0000 0C57             a[9] = 1;     //na minus czy na plus wzgledem uklad liniowy szczotki drucianej   0 - na minus, 1 - na plus rzad 1
                 ; 0000 0C58 
                 ; 0000 0C59             a[1] = a[0]+0x001;  //ster2
                 ; 0000 0C5A             a[2] = a[4];        //ster4 ABS druciak
                 ; 0000 0C5B             a[6] = a[5]+0x001;  //okrag
                 ; 0000 0C5C             a[8] = a[6]+0x001;  //-delta okrag
                 ; 0000 0C5D 
                 ; 0000 0C5E     break;
                 ; 0000 0C5F 
                 ; 0000 0C60     case 86:
                 _0x106:
00157f 35e6      	CPI  R30,LOW(0x56)
001580 e0a0      	LDI  R26,HIGH(0x56)
001581 07fa      	CPC  R31,R26
001582 f449      	BRNE _0x107
                 ; 0000 0C61 
                 ; 0000 0C62             a[0] = 0x0F6;   //ster1
001583 efe6      	LDI  R30,LOW(246)
001584 e0f0      	LDI  R31,HIGH(246)
001585 940e 2d45 	CALL SUBOPT_0x3B
                 ; 0000 0C63             a[3] = 0x11;    //ster4 INV druciak
001587 940e 2d4c 	CALL SUBOPT_0x3C
                 ; 0000 0C64             a[4] = 0x14;    //ster3 ABS krazek scierny
001589 940e 2e87 	CALL SUBOPT_0x60
                 ; 0000 0C65             a[5] = 0x190;   //delta okrag
00158b c369      	RJMP _0x474
                 ; 0000 0C66             a[7] = 0x12;    //ster3 INV krazek scierny
                 ; 0000 0C67             a[9] = 1;     //na minus czy na plus wzgledem uklad liniowy szczotki drucianej   0 - na minus, 1 - na plus rzad 1
                 ; 0000 0C68 
                 ; 0000 0C69             a[1] = a[0]+0x001;  //ster2
                 ; 0000 0C6A             a[2] = a[4];        //ster4 ABS druciak
                 ; 0000 0C6B             a[6] = a[5]+0x001;  //okrag
                 ; 0000 0C6C             a[8] = a[6]+0x001;  //-delta okrag
                 ; 0000 0C6D 
                 ; 0000 0C6E     break;
                 ; 0000 0C6F 
                 ; 0000 0C70 
                 ; 0000 0C71     case 87:
                 _0x107:
00158c 35e7      	CPI  R30,LOW(0x57)
00158d e0a0      	LDI  R26,HIGH(0x57)
00158e 07fa      	CPC  R31,R26
00158f f459      	BRNE _0x108
                 ; 0000 0C72 
                 ; 0000 0C73             a[0] = 0x0C4;   //ster1
001590 ece4      	LDI  R30,LOW(196)
001591 e0f0      	LDI  R31,HIGH(196)
001592 940e 2d45 	CALL SUBOPT_0x3B
                 ; 0000 0C74             a[3] = 0x11;    //ster4 INV druciak
001594 940e 2d4c 	CALL SUBOPT_0x3C
                 ; 0000 0C75             a[4] = 0x23;    //ster3 ABS krazek scierny
001596 940e 2ea5 	CALL SUBOPT_0x64
                 ; 0000 0C76             a[5] = 0x199;   //delta okrag
001598 940e 2dda 	CALL SUBOPT_0x4C
                 ; 0000 0C77             a[7] = 0x12;    //ster3 INV krazek scierny
                 ; 0000 0C78             a[9] = 0;     //na minus czy na plus wzgledem uklad liniowy szczotki drucianej   0 - na minus, 1 - na plus rzad 1
00159a c366      	RJMP _0x473
                 ; 0000 0C79 
                 ; 0000 0C7A             a[1] = a[0]+0x001;  //ster2
                 ; 0000 0C7B             a[2] = a[4];        //ster4 ABS druciak
                 ; 0000 0C7C             a[6] = a[5]+0x001;  //okrag
                 ; 0000 0C7D             a[8] = a[6]+0x001;  //-delta okrag
                 ; 0000 0C7E 
                 ; 0000 0C7F     break;
                 ; 0000 0C80 
                 ; 0000 0C81 
                 ; 0000 0C82     case 88:
                 _0x108:
00159b 35e8      	CPI  R30,LOW(0x58)
00159c e0a0      	LDI  R26,HIGH(0x58)
00159d 07fa      	CPC  R31,R26
00159e f469      	BRNE _0x109
                 ; 0000 0C83 
                 ; 0000 0C84             a[0] = 0x07E;   //ster1
00159f e7ee      	LDI  R30,LOW(126)
0015a0 e0f0      	LDI  R31,HIGH(126)
0015a1 940e 2d45 	CALL SUBOPT_0x3B
                 ; 0000 0C85             a[3] = 0x12;    //ster4 INV druciak
0015a3 940e 2e95 	CALL SUBOPT_0x62
                 ; 0000 0C86             a[4] = 0x24;    //ster3 ABS krazek scierny
                 ; 0000 0C87             a[5] = 0x196;   //delta okrag
0015a5 940e 2e9e 	CALL SUBOPT_0x63
                 ; 0000 0C88             a[7] = 0x10;    //ster3 INV krazek scierny
0015a7 940e 2d62 	CALL SUBOPT_0x3E
                 ; 0000 0C89             a[9] = 0;     //na minus czy na plus wzgledem uklad liniowy szczotki drucianej   0 - na minus, 1 - na plus rzad 1
0015a9 940e 2d76 	CALL SUBOPT_0x40
0015ab c355      	RJMP _0x473
                 ; 0000 0C8A 
                 ; 0000 0C8B             a[1] = a[0]+0x001;  //ster2
                 ; 0000 0C8C             a[2] = a[4];        //ster4 ABS druciak
                 ; 0000 0C8D             a[6] = a[5]+0x001;  //okrag
                 ; 0000 0C8E             a[8] = a[6]+0x001;  //-delta okrag
                 ; 0000 0C8F 
                 ; 0000 0C90     break;
                 ; 0000 0C91 
                 ; 0000 0C92 
                 ; 0000 0C93     case 89:
                 _0x109:
0015ac 35e9      	CPI  R30,LOW(0x59)
0015ad e0a0      	LDI  R26,HIGH(0x59)
0015ae 07fa      	CPC  R31,R26
0015af f459      	BRNE _0x10A
                 ; 0000 0C94 
                 ; 0000 0C95             a[0] = 0x02C;   //ster1
0015b0 e2ec      	LDI  R30,LOW(44)
0015b1 e0f0      	LDI  R31,HIGH(44)
0015b2 940e 2d45 	CALL SUBOPT_0x3B
                 ; 0000 0C96             a[3] = 0x11;    //ster4 INV druciak
0015b4 940e 2d4c 	CALL SUBOPT_0x3C
                 ; 0000 0C97             a[4] = 0x1A;    //ster3 ABS krazek scierny
0015b6 940e 2e64 	CALL SUBOPT_0x5B
                 ; 0000 0C98             a[5] = 0x196;   //delta okrag
0015b8 940e 2dfd 	CALL SUBOPT_0x51
                 ; 0000 0C99             a[7] = 0x12;    //ster3 INV krazek scierny
                 ; 0000 0C9A             a[9] = 0;     //na minus czy na plus wzgledem uklad liniowy szczotki drucianej   0 - na minus, 1 - na plus rzad 1
0015ba c346      	RJMP _0x473
                 ; 0000 0C9B 
                 ; 0000 0C9C             a[1] = a[0]+0x001;  //ster2
                 ; 0000 0C9D             a[2] = a[4];        //ster4 ABS druciak
                 ; 0000 0C9E             a[6] = a[5]+0x001;  //okrag
                 ; 0000 0C9F             a[8] = a[6]+0x001;  //-delta okrag
                 ; 0000 0CA0 
                 ; 0000 0CA1     break;
                 ; 0000 0CA2 
                 ; 0000 0CA3 
                 ; 0000 0CA4     case 90:
                 _0x10A:
0015bb 35ea      	CPI  R30,LOW(0x5A)
0015bc e0a0      	LDI  R26,HIGH(0x5A)
0015bd 07fa      	CPC  R31,R26
0015be f449      	BRNE _0x10B
                 ; 0000 0CA5 
                 ; 0000 0CA6             a[0] = 0x0F0;   //ster1
0015bf efe0      	LDI  R30,LOW(240)
0015c0 e0f0      	LDI  R31,HIGH(240)
0015c1 940e 2d45 	CALL SUBOPT_0x3B
                 ; 0000 0CA7             a[3] = 0x11;    //ster4 INV druciak
0015c3 940e 2d4c 	CALL SUBOPT_0x3C
                 ; 0000 0CA8             a[4] = 0x1B;    //ster3 ABS krazek scierny
0015c5 940e 2d53 	CALL SUBOPT_0x3D
                 ; 0000 0CA9             a[5] = 0x196;   //delta okrag
                 ; 0000 0CAA             a[7] = 0x11;    //ster3 INV krazek scierny
0015c7 c333      	RJMP _0x472
                 ; 0000 0CAB             a[9] = 1;     //na minus czy na plus wzgledem uklad liniowy szczotki drucianej   0 - na minus, 1 - na plus rzad 1
                 ; 0000 0CAC 
                 ; 0000 0CAD             a[1] = a[0]+0x001;  //ster2
                 ; 0000 0CAE             a[2] = a[4];        //ster4 ABS druciak
                 ; 0000 0CAF             a[6] = a[5]+0x001;  //okrag
                 ; 0000 0CB0             a[8] = a[6]+0x001;  //-delta okrag
                 ; 0000 0CB1 
                 ; 0000 0CB2     break;
                 ; 0000 0CB3 
                 ; 0000 0CB4 
                 ; 0000 0CB5     case 91:
                 _0x10B:
0015c8 35eb      	CPI  R30,LOW(0x5B)
0015c9 e0a0      	LDI  R26,HIGH(0x5B)
0015ca 07fa      	CPC  R31,R26
0015cb f459      	BRNE _0x10C
                 ; 0000 0CB6 
                 ; 0000 0CB7             a[0] = 0x0A8;   //ster1
0015cc eae8      	LDI  R30,LOW(168)
0015cd e0f0      	LDI  R31,HIGH(168)
0015ce 940e 2d45 	CALL SUBOPT_0x3B
                 ; 0000 0CB8             a[3] = 0x11;    //ster4 INV druciak
0015d0 940e 2d4c 	CALL SUBOPT_0x3C
                 ; 0000 0CB9             a[4] = 0x20;    //ster3 ABS krazek scierny
0015d2 940e 2def 	CALL SUBOPT_0x4F
                 ; 0000 0CBA             a[5] = 0x199;   //delta okrag
0015d4 e9a9      	LDI  R26,LOW(409)
0015d5 e0b1      	LDI  R27,HIGH(409)
0015d6 c31e      	RJMP _0x474
                 ; 0000 0CBB             a[7] = 0x12;    //ster3 INV krazek scierny
                 ; 0000 0CBC             a[9] = 1;     //na minus czy na plus wzgledem uklad liniowy szczotki drucianej   0 - na minus, 1 - na plus rzad 1
                 ; 0000 0CBD 
                 ; 0000 0CBE             a[1] = a[0]+0x001;  //ster2
                 ; 0000 0CBF             a[2] = a[4];        //ster4 ABS druciak
                 ; 0000 0CC0             a[6] = a[5]+0x001;  //okrag
                 ; 0000 0CC1             a[8] = a[6]+0x001;  //-delta okrag
                 ; 0000 0CC2 
                 ; 0000 0CC3     break;
                 ; 0000 0CC4 
                 ; 0000 0CC5 
                 ; 0000 0CC6     case 92:
                 _0x10C:
0015d7 35ec      	CPI  R30,LOW(0x5C)
0015d8 e0a0      	LDI  R26,HIGH(0x5C)
0015d9 07fa      	CPC  R31,R26
0015da f419      	BRNE _0x10D
                 ; 0000 0CC7 
                 ; 0000 0CC8             a[0] = 0x;   //ster1
0015db 940e 2e28 	CALL SUBOPT_0x56
                 ; 0000 0CC9             a[3] = 0x;    //ster4 INV druciak
                 ; 0000 0CCA             a[4] = 0x;    //ster3 ABS krazek scierny
                 ; 0000 0CCB             a[5] = 0x;   //delta okrag
                 ; 0000 0CCC             a[7] = 0x;    //ster3 INV krazek scierny
                 ; 0000 0CCD             a[9] = 0;     //na minus czy na plus wzgledem uklad liniowy szczotki drucianej   0 - na minus, 1 - na plus rzad 1
0015dd c323      	RJMP _0x473
                 ; 0000 0CCE 
                 ; 0000 0CCF             a[1] = a[0]+0x001;  //ster2
                 ; 0000 0CD0             a[2] = a[4];        //ster4 ABS druciak
                 ; 0000 0CD1             a[6] = a[5]+0x001;  //okrag
                 ; 0000 0CD2             a[8] = a[6]+0x001;  //-delta okrag
                 ; 0000 0CD3 
                 ; 0000 0CD4     break;
                 ; 0000 0CD5 
                 ; 0000 0CD6 
                 ; 0000 0CD7     case 93:
                 _0x10D:
0015de 35ed      	CPI  R30,LOW(0x5D)
0015df e0a0      	LDI  R26,HIGH(0x5D)
0015e0 07fa      	CPC  R31,R26
0015e1 f459      	BRNE _0x10E
                 ; 0000 0CD8 
                 ; 0000 0CD9             a[0] = 0x030;   //ster1
0015e2 e3e0      	LDI  R30,LOW(48)
0015e3 e0f0      	LDI  R31,HIGH(48)
0015e4 940e 2d45 	CALL SUBOPT_0x3B
                 ; 0000 0CDA             a[3] = 0x11;    //ster4 INV druciak
0015e6 940e 2d4c 	CALL SUBOPT_0x3C
                 ; 0000 0CDB             a[4] = 0x1A;    //ster3 ABS krazek scierny
0015e8 940e 2e64 	CALL SUBOPT_0x5B
                 ; 0000 0CDC             a[5] = 0x196;   //delta okrag
0015ea e9a6      	LDI  R26,LOW(406)
0015eb e0b1      	LDI  R27,HIGH(406)
0015ec c308      	RJMP _0x474
                 ; 0000 0CDD             a[7] = 0x12;    //ster3 INV krazek scierny
                 ; 0000 0CDE             a[9] = 1;     //na minus czy na plus wzgledem uklad liniowy szczotki drucianej   0 - na minus, 1 - na plus rzad 1
                 ; 0000 0CDF 
                 ; 0000 0CE0             a[1] = a[0]+0x001;  //ster2
                 ; 0000 0CE1             a[2] = a[4];        //ster4 ABS druciak
                 ; 0000 0CE2             a[6] = a[5]+0x001;  //okrag
                 ; 0000 0CE3             a[8] = a[6]+0x001;  //-delta okrag
                 ; 0000 0CE4 
                 ; 0000 0CE5     break;
                 ; 0000 0CE6 
                 ; 0000 0CE7 
                 ; 0000 0CE8     case 94:
                 _0x10E:
0015ed 35ee      	CPI  R30,LOW(0x5E)
0015ee e0a0      	LDI  R26,HIGH(0x5E)
0015ef 07fa      	CPC  R31,R26
0015f0 f459      	BRNE _0x10F
                 ; 0000 0CE9 
                 ; 0000 0CEA             a[0] = 0x0F4;   //ster1
0015f1 efe4      	LDI  R30,LOW(244)
0015f2 e0f0      	LDI  R31,HIGH(244)
0015f3 940e 2d45 	CALL SUBOPT_0x3B
                 ; 0000 0CEB             a[3] = 0x11;    //ster4 INV druciak
0015f5 940e 2d4c 	CALL SUBOPT_0x3C
                 ; 0000 0CEC             a[4] = 0x1B;    //ster3 ABS krazek scierny
0015f7 940e 2d53 	CALL SUBOPT_0x3D
                 ; 0000 0CED             a[5] = 0x196;   //delta okrag
                 ; 0000 0CEE             a[7] = 0x11;    //ster3 INV krazek scierny
0015f9 940e 2d96 	CALL SUBOPT_0x44
                 ; 0000 0CEF             a[9] = 0;     //na minus czy na plus wzgledem uklad liniowy szczotki drucianej   0 - na minus, 1 - na plus rzad 1
0015fb c305      	RJMP _0x473
                 ; 0000 0CF0 
                 ; 0000 0CF1             a[1] = a[0]+0x001;  //ster2
                 ; 0000 0CF2             a[2] = a[4];        //ster4 ABS druciak
                 ; 0000 0CF3             a[6] = a[5]+0x001;  //okrag
                 ; 0000 0CF4             a[8] = a[6]+0x001;  //-delta okrag
                 ; 0000 0CF5 
                 ; 0000 0CF6     break;
                 ; 0000 0CF7 
                 ; 0000 0CF8 
                 ; 0000 0CF9     case 95:
                 _0x10F:
0015fc 35ef      	CPI  R30,LOW(0x5F)
0015fd e0a0      	LDI  R26,HIGH(0x5F)
0015fe 07fa      	CPC  R31,R26
0015ff f449      	BRNE _0x110
                 ; 0000 0CFA 
                 ; 0000 0CFB             a[0] = 0x09E;   //ster1
001600 e9ee      	LDI  R30,LOW(158)
001601 e0f0      	LDI  R31,HIGH(158)
001602 940e 2d45 	CALL SUBOPT_0x3B
                 ; 0000 0CFC             a[3] = 0x11;    //ster4 INV druciak
001604 940e 2d4c 	CALL SUBOPT_0x3C
                 ; 0000 0CFD             a[4] = 0x20;    //ster3 ABS krazek scierny
001606 940e 2dbb 	CALL SUBOPT_0x49
                 ; 0000 0CFE             a[5] = 0x199;   //delta okrag
                 ; 0000 0CFF             a[7] = 0x12;    //ster3 INV krazek scierny
                 ; 0000 0D00             a[9] = 0;     //na minus czy na plus wzgledem uklad liniowy szczotki drucianej   0 - na minus, 1 - na plus rzad 1
001608 c2f8      	RJMP _0x473
                 ; 0000 0D01 
                 ; 0000 0D02             a[1] = a[0]+0x001;  //ster2
                 ; 0000 0D03             a[2] = a[4];        //ster4 ABS druciak
                 ; 0000 0D04             a[6] = a[5]+0x001;  //okrag
                 ; 0000 0D05             a[8] = a[6]+0x001;  //-delta okrag
                 ; 0000 0D06 
                 ; 0000 0D07     break;
                 ; 0000 0D08 
                 ; 0000 0D09     case 96:
                 _0x110:
001609 36e0      	CPI  R30,LOW(0x60)
00160a e0a0      	LDI  R26,HIGH(0x60)
00160b 07fa      	CPC  R31,R26
00160c f419      	BRNE _0x111
                 ; 0000 0D0A 
                 ; 0000 0D0B             a[0] = 0x;   //ster1
00160d 940e 2e28 	CALL SUBOPT_0x56
                 ; 0000 0D0C             a[3] = 0x;    //ster4 INV druciak
                 ; 0000 0D0D             a[4] = 0x;    //ster3 ABS krazek scierny
                 ; 0000 0D0E             a[5] = 0x;   //delta okrag
                 ; 0000 0D0F             a[7] = 0x;    //ster3 INV krazek scierny
                 ; 0000 0D10             a[9] = 0;     //na minus czy na plus wzgledem uklad liniowy szczotki drucianej   0 - na minus, 1 - na plus rzad 1
00160f c2f1      	RJMP _0x473
                 ; 0000 0D11 
                 ; 0000 0D12             a[1] = a[0]+0x001;  //ster2
                 ; 0000 0D13             a[2] = a[4];        //ster4 ABS druciak
                 ; 0000 0D14             a[6] = a[5]+0x001;  //okrag
                 ; 0000 0D15             a[8] = a[6]+0x001;  //-delta okrag
                 ; 0000 0D16 
                 ; 0000 0D17     break;
                 ; 0000 0D18 
                 ; 0000 0D19 
                 ; 0000 0D1A     case 97:
                 _0x111:
001610 36e1      	CPI  R30,LOW(0x61)
001611 e0a0      	LDI  R26,HIGH(0x61)
001612 07fa      	CPC  R31,R26
001613 f459      	BRNE _0x112
                 ; 0000 0D1B 
                 ; 0000 0D1C             a[0] = 0x06A;   //ster1
001614 e6ea      	LDI  R30,LOW(106)
001615 e0f0      	LDI  R31,HIGH(106)
001616 940e 2d45 	CALL SUBOPT_0x3B
                 ; 0000 0D1D             a[3] = 0x11;    //ster4 INV druciak
001618 940e 2d4c 	CALL SUBOPT_0x3C
                 ; 0000 0D1E             a[4] = 0x21;    //ster3 ABS krazek scierny
00161a 940e 2db2 	CALL SUBOPT_0x48
                 ; 0000 0D1F             a[5] = 0x199;   //delta okrag
00161c 940e 2d84 	CALL SUBOPT_0x42
                 ; 0000 0D20             a[7] = 0x12;    //ster3 INV krazek scierny
                 ; 0000 0D21             a[9] = 0;     //na minus czy na plus wzgledem uklad liniowy szczotki drucianej   0 - na minus, 1 - na plus rzad 1
00161e c2e2      	RJMP _0x473
                 ; 0000 0D22 
                 ; 0000 0D23             a[1] = a[0]+0x001;  //ster2
                 ; 0000 0D24             a[2] = a[4];        //ster4 ABS druciak
                 ; 0000 0D25             a[6] = a[5]+0x001;  //okrag
                 ; 0000 0D26             a[8] = a[6]+0x001;  //-delta okrag
                 ; 0000 0D27 
                 ; 0000 0D28     break;
                 ; 0000 0D29 
                 ; 0000 0D2A 
                 ; 0000 0D2B     case 98:
                 _0x112:
00161f 36e2      	CPI  R30,LOW(0x62)
001620 e0a0      	LDI  R26,HIGH(0x62)
001621 07fa      	CPC  R31,R26
001622 f469      	BRNE _0x113
                 ; 0000 0D2C 
                 ; 0000 0D2D             a[0] = 0x0BE;   //ster1
001623 ebee      	LDI  R30,LOW(190)
001624 e0f0      	LDI  R31,HIGH(190)
001625 940e 2d45 	CALL SUBOPT_0x3B
                 ; 0000 0D2E             a[3] = 0x11;    //ster4 INV druciak
001627 940e 2d4c 	CALL SUBOPT_0x3C
                 ; 0000 0D2F             a[4] = 0x18;    //ster3 ABS krazek scierny
001629 940e 2d7b 	CALL SUBOPT_0x41
                 ; 0000 0D30             a[5] = 0x196;   //delta okrag
00162b 940e 2ea8 	CALL SUBOPT_0x65
                 ; 0000 0D31             a[7] = 0x0F;    //ster3 INV krazek scierny
00162d 940e 2d96 	CALL SUBOPT_0x44
                 ; 0000 0D32             a[9] = 0;     //na minus czy na plus wzgledem uklad liniowy szczotki drucianej   0 - na minus, 1 - na plus rzad 1
00162f c2d1      	RJMP _0x473
                 ; 0000 0D33 
                 ; 0000 0D34             a[1] = a[0]+0x001;  //ster2
                 ; 0000 0D35             a[2] = a[4];        //ster4 ABS druciak
                 ; 0000 0D36             a[6] = a[5]+0x001;  //okrag
                 ; 0000 0D37             a[8] = a[6]+0x001;  //-delta okrag
                 ; 0000 0D38 
                 ; 0000 0D39     break;
                 ; 0000 0D3A 
                 ; 0000 0D3B 
                 ; 0000 0D3C     case 99:
                 _0x113:
001630 36e3      	CPI  R30,LOW(0x63)
001631 e0a0      	LDI  R26,HIGH(0x63)
001632 07fa      	CPC  R31,R26
001633 f459      	BRNE _0x114
                 ; 0000 0D3D 
                 ; 0000 0D3E             a[0] = 0x0BA;   //ster1
001634 ebea      	LDI  R30,LOW(186)
001635 e0f0      	LDI  R31,HIGH(186)
001636 940e 2d45 	CALL SUBOPT_0x3B
                 ; 0000 0D3F             a[3] = 0x11;    //ster4 INV druciak
001638 940e 2d4c 	CALL SUBOPT_0x3C
                 ; 0000 0D40             a[4] = 0x1E;    //ster3 ABS krazek scierny
00163a 940e 2e77 	CALL SUBOPT_0x5E
                 ; 0000 0D41             a[5] = 0x199;   //delta okrag
00163c e9a9      	LDI  R26,LOW(409)
00163d e0b1      	LDI  R27,HIGH(409)
00163e c2b6      	RJMP _0x474
                 ; 0000 0D42             a[7] = 0x12;    //ster3 INV krazek scierny
                 ; 0000 0D43             a[9] = 1;     //na minus czy na plus wzgledem uklad liniowy szczotki drucianej   0 - na minus, 1 - na plus rzad 1
                 ; 0000 0D44 
                 ; 0000 0D45             a[1] = a[0]+0x001;  //ster2
                 ; 0000 0D46             a[2] = a[4];        //ster4 ABS druciak
                 ; 0000 0D47             a[6] = a[5]+0x001;  //okrag
                 ; 0000 0D48             a[8] = a[6]+0x001;  //-delta okrag
                 ; 0000 0D49 
                 ; 0000 0D4A     break;
                 ; 0000 0D4B 
                 ; 0000 0D4C 
                 ; 0000 0D4D     case 100:
                 _0x114:
00163f 36e4      	CPI  R30,LOW(0x64)
001640 e0a0      	LDI  R26,HIGH(0x64)
001641 07fa      	CPC  R31,R26
001642 f459      	BRNE _0x115
                 ; 0000 0D4E 
                 ; 0000 0D4F             a[0] = 0x060;   //ster1
001643 e6e0      	LDI  R30,LOW(96)
001644 e0f0      	LDI  R31,HIGH(96)
001645 940e 2d45 	CALL SUBOPT_0x3B
                 ; 0000 0D50             a[3] = 0x11;    //ster4 INV druciak
001647 940e 2d4c 	CALL SUBOPT_0x3C
                 ; 0000 0D51             a[4] = 0x1F;    //ster3 ABS krazek scierny
001649 940e 2d8d 	CALL SUBOPT_0x43
                 ; 0000 0D52             a[5] = 0x196;   //delta okrag
00164b 940e 2d84 	CALL SUBOPT_0x42
                 ; 0000 0D53             a[7] = 0x12;    //ster3 INV krazek scierny
                 ; 0000 0D54             a[9] = 0;     //na minus czy na plus wzgledem uklad liniowy szczotki drucianej   0 - na minus, 1 - na plus rzad 1
00164d c2b3      	RJMP _0x473
                 ; 0000 0D55 
                 ; 0000 0D56             a[1] = a[0]+0x001;  //ster2
                 ; 0000 0D57             a[2] = a[4];        //ster4 ABS druciak
                 ; 0000 0D58             a[6] = a[5]+0x001;  //okrag
                 ; 0000 0D59             a[8] = a[6]+0x001;  //-delta okrag
                 ; 0000 0D5A 
                 ; 0000 0D5B     break;
                 ; 0000 0D5C 
                 ; 0000 0D5D 
                 ; 0000 0D5E     case 101:
                 _0x115:
00164e 36e5      	CPI  R30,LOW(0x65)
00164f e0a0      	LDI  R26,HIGH(0x65)
001650 07fa      	CPC  R31,R26
001651 f449      	BRNE _0x116
                 ; 0000 0D5F 
                 ; 0000 0D60             a[0] = 0x070;   //ster1
001652 e7e0      	LDI  R30,LOW(112)
001653 e0f0      	LDI  R31,HIGH(112)
001654 940e 2d45 	CALL SUBOPT_0x3B
                 ; 0000 0D61             a[3] = 0x11;    //ster4 INV druciak
001656 940e 2d4c 	CALL SUBOPT_0x3C
                 ; 0000 0D62             a[4] = 0x21;    //ster3 ABS krazek scierny
001658 940e 2db2 	CALL SUBOPT_0x48
                 ; 0000 0D63             a[5] = 0x199;   //delta okrag
00165a c29a      	RJMP _0x474
                 ; 0000 0D64             a[7] = 0x12;    //ster3 INV krazek scierny
                 ; 0000 0D65             a[9] = 1;     //na minus czy na plus wzgledem uklad liniowy szczotki drucianej   0 - na minus, 1 - na plus rzad 1
                 ; 0000 0D66 
                 ; 0000 0D67             a[1] = a[0]+0x001;  //ster2
                 ; 0000 0D68             a[2] = a[4];        //ster4 ABS druciak
                 ; 0000 0D69             a[6] = a[5]+0x001;  //okrag
                 ; 0000 0D6A             a[8] = a[6]+0x001;  //-delta okrag
                 ; 0000 0D6B 
                 ; 0000 0D6C     break;
                 ; 0000 0D6D 
                 ; 0000 0D6E 
                 ; 0000 0D6F     case 102:
                 _0x116:
00165b 36e6      	CPI  R30,LOW(0x66)
00165c e0a0      	LDI  R26,HIGH(0x66)
00165d 07fa      	CPC  R31,R26
00165e f459      	BRNE _0x117
                 ; 0000 0D70 
                 ; 0000 0D71             a[0] = 0x08A;   //ster1
00165f e8ea      	LDI  R30,LOW(138)
001660 e0f0      	LDI  R31,HIGH(138)
001661 940e 2d45 	CALL SUBOPT_0x3B
                 ; 0000 0D72             a[3] = 0x11;    //ster4 INV druciak
001663 940e 2d4c 	CALL SUBOPT_0x3C
                 ; 0000 0D73             a[4] = 0x18;    //ster3 ABS krazek scierny
001665 940e 2d7b 	CALL SUBOPT_0x41
                 ; 0000 0D74             a[5] = 0x196;   //delta okrag
001667 940e 2ea8 	CALL SUBOPT_0x65
                 ; 0000 0D75             a[7] = 0x0F;    //ster3 INV krazek scierny
001669 c291      	RJMP _0x472
                 ; 0000 0D76             a[9] = 1;     //na minus czy na plus wzgledem uklad liniowy szczotki drucianej   0 - na minus, 1 - na plus rzad 1
                 ; 0000 0D77 
                 ; 0000 0D78             a[1] = a[0]+0x001;  //ster2
                 ; 0000 0D79             a[2] = a[4];        //ster4 ABS druciak
                 ; 0000 0D7A             a[6] = a[5]+0x001;  //okrag
                 ; 0000 0D7B             a[8] = a[6]+0x001;  //-delta okrag
                 ; 0000 0D7C 
                 ; 0000 0D7D     break;
                 ; 0000 0D7E 
                 ; 0000 0D7F 
                 ; 0000 0D80     case 103:
                 _0x117:
00166a 36e7      	CPI  R30,LOW(0x67)
00166b e0a0      	LDI  R26,HIGH(0x67)
00166c 07fa      	CPC  R31,R26
00166d f459      	BRNE _0x118
                 ; 0000 0D81 
                 ; 0000 0D82             a[0] = 0x080;   //ster1
00166e e8e0      	LDI  R30,LOW(128)
00166f e0f0      	LDI  R31,HIGH(128)
001670 940e 2d45 	CALL SUBOPT_0x3B
                 ; 0000 0D83             a[3] = 0x11;    //ster4 INV druciak
001672 940e 2d4c 	CALL SUBOPT_0x3C
                 ; 0000 0D84             a[4] = 0x1E;    //ster3 ABS krazek scierny
001674 940e 2e77 	CALL SUBOPT_0x5E
                 ; 0000 0D85             a[5] = 0x199;   //delta okrag
001676 940e 2dda 	CALL SUBOPT_0x4C
                 ; 0000 0D86             a[7] = 0x12;    //ster3 INV krazek scierny
                 ; 0000 0D87             a[9] = 0;     //na minus czy na plus wzgledem uklad liniowy szczotki drucianej   0 - na minus, 1 - na plus rzad 1
001678 c288      	RJMP _0x473
                 ; 0000 0D88 
                 ; 0000 0D89             a[1] = a[0]+0x001;  //ster2
                 ; 0000 0D8A             a[2] = a[4];        //ster4 ABS druciak
                 ; 0000 0D8B             a[6] = a[5]+0x001;  //okrag
                 ; 0000 0D8C             a[8] = a[6]+0x001;  //-delta okrag
                 ; 0000 0D8D 
                 ; 0000 0D8E     break;
                 ; 0000 0D8F 
                 ; 0000 0D90 
                 ; 0000 0D91     case 104:
                 _0x118:
001679 36e8      	CPI  R30,LOW(0x68)
00167a e0a0      	LDI  R26,HIGH(0x68)
00167b 07fa      	CPC  R31,R26
00167c f449      	BRNE _0x119
                 ; 0000 0D92 
                 ; 0000 0D93             a[0] = 0x0B6;   //ster1
00167d ebe6      	LDI  R30,LOW(182)
00167e e0f0      	LDI  R31,HIGH(182)
00167f 940e 2d45 	CALL SUBOPT_0x3B
                 ; 0000 0D94             a[3] = 0x11;    //ster4 INV druciak
001681 940e 2d4c 	CALL SUBOPT_0x3C
                 ; 0000 0D95             a[4] = 0x1F;    //ster3 ABS krazek scierny
001683 940e 2d8d 	CALL SUBOPT_0x43
                 ; 0000 0D96             a[5] = 0x196;   //delta okrag
001685 c26f      	RJMP _0x474
                 ; 0000 0D97             a[7] = 0x12;    //ster3 INV krazek scierny
                 ; 0000 0D98             a[9] = 1;     //na minus czy na plus wzgledem uklad liniowy szczotki drucianej   0 - na minus, 1 - na plus rzad 1
                 ; 0000 0D99 
                 ; 0000 0D9A             a[1] = a[0]+0x001;  //ster2
                 ; 0000 0D9B             a[2] = a[4];        //ster4 ABS druciak
                 ; 0000 0D9C             a[6] = a[5]+0x001;  //okrag
                 ; 0000 0D9D             a[8] = a[6]+0x001;  //-delta okrag
                 ; 0000 0D9E 
                 ; 0000 0D9F     break;
                 ; 0000 0DA0 
                 ; 0000 0DA1 
                 ; 0000 0DA2     case 105:
                 _0x119:
001686 36e9      	CPI  R30,LOW(0x69)
001687 e0a0      	LDI  R26,HIGH(0x69)
001688 07fa      	CPC  R31,R26
001689 f469      	BRNE _0x11A
                 ; 0000 0DA3 
                 ; 0000 0DA4             a[0] = 0x044;   //ster1
00168a e4e4      	LDI  R30,LOW(68)
00168b e0f0      	LDI  R31,HIGH(68)
00168c 940e 2d45 	CALL SUBOPT_0x3B
                 ; 0000 0DA5             a[3] = 0x11;    //ster4 INV druciak
00168e 940e 2d4c 	CALL SUBOPT_0x3C
                 ; 0000 0DA6             a[4] = 0x1F;    //ster3 ABS krazek scierny
001690 940e 2eaf 	CALL SUBOPT_0x66
                 ; 0000 0DA7             a[5] = 0x190;   //delta okrag
001692 940e 2ddd 	CALL SUBOPT_0x4D
                 ; 0000 0DA8             a[7] = 0x0F;    //ster3 INV krazek scierny
001694 940e 2d96 	CALL SUBOPT_0x44
                 ; 0000 0DA9             a[9] = 0;     //na minus czy na plus wzgledem uklad liniowy szczotki drucianej   0 - na minus, 1 - na plus rzad 1
001696 c26a      	RJMP _0x473
                 ; 0000 0DAA 
                 ; 0000 0DAB             a[1] = a[0]+0x001;  //ster2
                 ; 0000 0DAC             a[2] = a[4];        //ster4 ABS druciak
                 ; 0000 0DAD             a[6] = a[5]+0x001;  //okrag
                 ; 0000 0DAE             a[8] = a[6]+0x001;  //-delta okrag
                 ; 0000 0DAF 
                 ; 0000 0DB0     break;
                 ; 0000 0DB1 
                 ; 0000 0DB2 
                 ; 0000 0DB3     case 106:
                 _0x11A:
001697 36ea      	CPI  R30,LOW(0x6A)
001698 e0a0      	LDI  R26,HIGH(0x6A)
001699 07fa      	CPC  R31,R26
00169a f449      	BRNE _0x11B
                 ; 0000 0DB4 
                 ; 0000 0DB5             a[0] = 0x03A;   //ster1
00169b e3ea      	LDI  R30,LOW(58)
00169c e0f0      	LDI  R31,HIGH(58)
00169d 940e 2d45 	CALL SUBOPT_0x3B
                 ; 0000 0DB6             a[3] = 0x11;    //ster4 INV druciak
00169f 940e 2d4c 	CALL SUBOPT_0x3C
                 ; 0000 0DB7             a[4] = 0x1E;    //ster3 ABS krazek scierny
0016a1 940e 2e00 	CALL SUBOPT_0x52
                 ; 0000 0DB8             a[5] = 0x190;   //delta okrag
                 ; 0000 0DB9             a[7] = 0x0F;    //ster3 INV krazek scierny
0016a3 c257      	RJMP _0x472
                 ; 0000 0DBA             a[9] = 1;     //na minus czy na plus wzgledem uklad liniowy szczotki drucianej   0 - na minus, 1 - na plus rzad 1
                 ; 0000 0DBB 
                 ; 0000 0DBC             a[1] = a[0]+0x001;  //ster2
                 ; 0000 0DBD             a[2] = a[4];        //ster4 ABS druciak
                 ; 0000 0DBE             a[6] = a[5]+0x001;  //okrag
                 ; 0000 0DBF             a[8] = a[6]+0x001;  //-delta okrag
                 ; 0000 0DC0 
                 ; 0000 0DC1     break;
                 ; 0000 0DC2 
                 ; 0000 0DC3 
                 ; 0000 0DC4     case 107:
                 _0x11B:
0016a4 36eb      	CPI  R30,LOW(0x6B)
0016a5 e0a0      	LDI  R26,HIGH(0x6B)
0016a6 07fa      	CPC  R31,R26
0016a7 f419      	BRNE _0x11C
                 ; 0000 0DC5 
                 ; 0000 0DC6             a[0] = 0x;   //ster1
0016a8 940e 2e28 	CALL SUBOPT_0x56
                 ; 0000 0DC7             a[3] = 0x;    //ster4 INV druciak
                 ; 0000 0DC8             a[4] = 0x;    //ster3 ABS krazek scierny
                 ; 0000 0DC9             a[5] = 0x;   //delta okrag
                 ; 0000 0DCA             a[7] = 0x;    //ster3 INV krazek scierny
                 ; 0000 0DCB             a[9] = 0;     //na minus czy na plus wzgledem uklad liniowy szczotki drucianej   0 - na minus, 1 - na plus rzad 1
0016aa c256      	RJMP _0x473
                 ; 0000 0DCC 
                 ; 0000 0DCD             a[1] = a[0]+0x001;  //ster2
                 ; 0000 0DCE             a[2] = a[4];        //ster4 ABS druciak
                 ; 0000 0DCF             a[6] = a[5]+0x001;  //okrag
                 ; 0000 0DD0             a[8] = a[6]+0x001;  //-delta okrag
                 ; 0000 0DD1 
                 ; 0000 0DD2     break;
                 ; 0000 0DD3 
                 ; 0000 0DD4 
                 ; 0000 0DD5     case 108:
                 _0x11C:
0016ab 36ec      	CPI  R30,LOW(0x6C)
0016ac e0a0      	LDI  R26,HIGH(0x6C)
0016ad 07fa      	CPC  R31,R26
0016ae f469      	BRNE _0x11D
                 ; 0000 0DD6 
                 ; 0000 0DD7             a[0] = 0x0C6;   //ster1
0016af ece6      	LDI  R30,LOW(198)
0016b0 e0f0      	LDI  R31,HIGH(198)
0016b1 940e 2d45 	CALL SUBOPT_0x3B
                 ; 0000 0DD8             a[3] = 0x11;    //ster4 INV druciak
0016b3 940e 2d4c 	CALL SUBOPT_0x3C
                 ; 0000 0DD9             a[4] = 0x1C;    //ster3 ABS krazek scierny
0016b5 940e 2e5d 	CALL SUBOPT_0x5A
                 ; 0000 0DDA             a[5] = 0x196;   //delta okrag
0016b7 940e 2e74 	CALL SUBOPT_0x5D
                 ; 0000 0DDB             a[7] = 0x11;    //ster3 INV krazek scierny
0016b9 940e 2d96 	CALL SUBOPT_0x44
                 ; 0000 0DDC             a[9] = 0;     //na minus czy na plus wzgledem uklad liniowy szczotki drucianej   0 - na minus, 1 - na plus rzad 1
0016bb c245      	RJMP _0x473
                 ; 0000 0DDD 
                 ; 0000 0DDE             a[1] = a[0]+0x001;  //ster2
                 ; 0000 0DDF             a[2] = a[4];        //ster4 ABS druciak
                 ; 0000 0DE0             a[6] = a[5]+0x001;  //okrag
                 ; 0000 0DE1             a[8] = a[6]+0x001;  //-delta okrag
                 ; 0000 0DE2 
                 ; 0000 0DE3     break;
                 ; 0000 0DE4 
                 ; 0000 0DE5 
                 ; 0000 0DE6     case 109:
                 _0x11D:
0016bc 36ed      	CPI  R30,LOW(0x6D)
0016bd e0a0      	LDI  R26,HIGH(0x6D)
0016be 07fa      	CPC  R31,R26
0016bf f459      	BRNE _0x11E
                 ; 0000 0DE7 
                 ; 0000 0DE8             a[0] = 0x00A;   //ster1
0016c0 e0ea      	LDI  R30,LOW(10)
0016c1 e0f0      	LDI  R31,HIGH(10)
0016c2 940e 2d45 	CALL SUBOPT_0x3B
                 ; 0000 0DE9             a[3] = 0x10;    //ster4 INV druciak
0016c4 940e 2d62 	CALL SUBOPT_0x3E
                 ; 0000 0DEA             a[4] = 0x1C;    //ster3 ABS krazek scierny
0016c6 940e 2d67 	CALL SUBOPT_0x3F
                 ; 0000 0DEB             a[5] = 0x190;   //delta okrag
                 ; 0000 0DEC             a[7] = 0x10;    //ster3 INV krazek scierny
0016c8 e1a0      	LDI  R26,LOW(16)
0016c9 e0b0      	LDI  R27,HIGH(16)
0016ca c230      	RJMP _0x472
                 ; 0000 0DED             a[9] = 1;     //na minus czy na plus wzgledem uklad liniowy szczotki drucianej   0 - na minus, 1 - na plus rzad 1
                 ; 0000 0DEE 
                 ; 0000 0DEF             a[1] = a[0]+0x001;  //ster2
                 ; 0000 0DF0             a[2] = a[4];        //ster4 ABS druciak
                 ; 0000 0DF1             a[6] = a[5]+0x001;  //okrag
                 ; 0000 0DF2             a[8] = a[6]+0x001;  //-delta okrag
                 ; 0000 0DF3 
                 ; 0000 0DF4     break;
                 ; 0000 0DF5 
                 ; 0000 0DF6 
                 ; 0000 0DF7     case 110:
                 _0x11E:
0016cb 36ee      	CPI  R30,LOW(0x6E)
0016cc e0a0      	LDI  R26,HIGH(0x6E)
0016cd 07fa      	CPC  R31,R26
0016ce f459      	BRNE _0x11F
                 ; 0000 0DF8 
                 ; 0000 0DF9             a[0] = 0x032;   //ster1
0016cf e3e2      	LDI  R30,LOW(50)
0016d0 e0f0      	LDI  R31,HIGH(50)
0016d1 940e 2d45 	CALL SUBOPT_0x3B
                 ; 0000 0DFA             a[3] = 0x11;    //ster4 INV druciak
0016d3 940e 2d4c 	CALL SUBOPT_0x3C
                 ; 0000 0DFB             a[4] = 0x1E;    //ster3 ABS krazek scierny
0016d5 940e 2e00 	CALL SUBOPT_0x52
                 ; 0000 0DFC             a[5] = 0x190;   //delta okrag
                 ; 0000 0DFD             a[7] = 0x0F;    //ster3 INV krazek scierny
0016d7 940e 2d96 	CALL SUBOPT_0x44
                 ; 0000 0DFE             a[9] = 0;     //na minus czy na plus wzgledem uklad liniowy szczotki drucianej   0 - na minus, 1 - na plus rzad 1
0016d9 c227      	RJMP _0x473
                 ; 0000 0DFF 
                 ; 0000 0E00             a[1] = a[0]+0x001;  //ster2
                 ; 0000 0E01             a[2] = a[4];        //ster4 ABS druciak
                 ; 0000 0E02             a[6] = a[5]+0x001;  //okrag
                 ; 0000 0E03             a[8] = a[6]+0x001;  //-delta okrag
                 ; 0000 0E04 
                 ; 0000 0E05     break;
                 ; 0000 0E06 
                 ; 0000 0E07 
                 ; 0000 0E08     case 111:
                 _0x11F:
0016da 36ef      	CPI  R30,LOW(0x6F)
0016db e0a0      	LDI  R26,HIGH(0x6F)
0016dc 07fa      	CPC  R31,R26
0016dd f419      	BRNE _0x120
                 ; 0000 0E09 
                 ; 0000 0E0A             a[0] = 0x;   //ster1
0016de 940e 2e28 	CALL SUBOPT_0x56
                 ; 0000 0E0B             a[3] = 0x;    //ster4 INV druciak
                 ; 0000 0E0C             a[4] = 0x;    //ster3 ABS krazek scierny
                 ; 0000 0E0D             a[5] = 0x;   //delta okrag
                 ; 0000 0E0E             a[7] = 0x;    //ster3 INV krazek scierny
                 ; 0000 0E0F             a[9] = 0;     //na minus czy na plus wzgledem uklad liniowy szczotki drucianej   0 - na minus, 1 - na plus rzad 1
0016e0 c220      	RJMP _0x473
                 ; 0000 0E10 
                 ; 0000 0E11             a[1] = a[0]+0x001;  //ster2
                 ; 0000 0E12             a[2] = a[4];        //ster4 ABS druciak
                 ; 0000 0E13             a[6] = a[5]+0x001;  //okrag
                 ; 0000 0E14             a[8] = a[6]+0x001;  //-delta okrag
                 ; 0000 0E15 
                 ; 0000 0E16     break;
                 ; 0000 0E17 
                 ; 0000 0E18 
                 ; 0000 0E19     case 112:
                 _0x120:
0016e1 37e0      	CPI  R30,LOW(0x70)
0016e2 e0a0      	LDI  R26,HIGH(0x70)
0016e3 07fa      	CPC  R31,R26
0016e4 f459      	BRNE _0x121
                 ; 0000 0E1A 
                 ; 0000 0E1B             a[0] = 0x0E2;   //ster1
0016e5 eee2      	LDI  R30,LOW(226)
0016e6 e0f0      	LDI  R31,HIGH(226)
0016e7 940e 2d45 	CALL SUBOPT_0x3B
                 ; 0000 0E1C             a[3] = 0x11;    //ster4 INV druciak
0016e9 940e 2d4c 	CALL SUBOPT_0x3C
                 ; 0000 0E1D             a[4] = 0x1C;    //ster3 ABS krazek scierny
0016eb 940e 2e5d 	CALL SUBOPT_0x5A
                 ; 0000 0E1E             a[5] = 0x196;   //delta okrag
0016ed 940e 2e74 	CALL SUBOPT_0x5D
                 ; 0000 0E1F             a[7] = 0x11;    //ster3 INV krazek scierny
0016ef c20b      	RJMP _0x472
                 ; 0000 0E20             a[9] = 1;     //na minus czy na plus wzgledem uklad liniowy szczotki drucianej   0 - na minus, 1 - na plus rzad 1
                 ; 0000 0E21 
                 ; 0000 0E22             a[1] = a[0]+0x001;  //ster2
                 ; 0000 0E23             a[2] = a[4];        //ster4 ABS druciak
                 ; 0000 0E24             a[6] = a[5]+0x001;  //okrag
                 ; 0000 0E25             a[8] = a[6]+0x001;  //-delta okrag
                 ; 0000 0E26 
                 ; 0000 0E27     break;
                 ; 0000 0E28 
                 ; 0000 0E29 
                 ; 0000 0E2A     case 113:
                 _0x121:
0016f0 37e1      	CPI  R30,LOW(0x71)
0016f1 e0a0      	LDI  R26,HIGH(0x71)
0016f2 07fa      	CPC  R31,R26
0016f3 f469      	BRNE _0x122
                 ; 0000 0E2B 
                 ; 0000 0E2C             a[0] = 0x0D4;   //ster1
0016f4 ede4      	LDI  R30,LOW(212)
0016f5 e0f0      	LDI  R31,HIGH(212)
0016f6 940e 2d45 	CALL SUBOPT_0x3B
                 ; 0000 0E2D             a[3] = 0x11;    //ster4 INV druciak
0016f8 940e 2d4c 	CALL SUBOPT_0x3C
                 ; 0000 0E2E             a[4] = 0x19;    //ster3 ABS krazek scierny
0016fa 940e 2eb2 	CALL SUBOPT_0x67
                 ; 0000 0E2F             a[5] = 0x196;   //delta okrag
0016fc 940e 2e74 	CALL SUBOPT_0x5D
                 ; 0000 0E30             a[7] = 0x11;    //ster3 INV krazek scierny
0016fe 940e 2d96 	CALL SUBOPT_0x44
                 ; 0000 0E31             a[9] = 0;     //na minus czy na plus wzgledem uklad liniowy szczotki drucianej   0 - na minus, 1 - na plus rzad 1
001700 c200      	RJMP _0x473
                 ; 0000 0E32 
                 ; 0000 0E33             a[1] = a[0]+0x001;  //ster2
                 ; 0000 0E34             a[2] = a[4];        //ster4 ABS druciak
                 ; 0000 0E35             a[6] = a[5]+0x001;  //okrag
                 ; 0000 0E36             a[8] = a[6]+0x001;  //-delta okrag
                 ; 0000 0E37 
                 ; 0000 0E38     break;
                 ; 0000 0E39 
                 ; 0000 0E3A 
                 ; 0000 0E3B     case 114:
                 _0x122:
001701 37e2      	CPI  R30,LOW(0x72)
001702 e0a0      	LDI  R26,HIGH(0x72)
001703 07fa      	CPC  R31,R26
001704 f479      	BRNE _0x123
                 ; 0000 0E3C 
                 ; 0000 0E3D             a[0] = 0x04A;   //ster1
001705 e4ea      	LDI  R30,LOW(74)
001706 e0f0      	LDI  R31,HIGH(74)
001707 940e 2d45 	CALL SUBOPT_0x3B
                 ; 0000 0E3E             a[3] = 0x10;    //ster4 INV druciak
001709 940e 2d62 	CALL SUBOPT_0x3E
                 ; 0000 0E3F             a[4] = 0x1D;    //ster3 ABS krazek scierny
00170b 940e 2eb5 	CALL SUBOPT_0x68
                 ; 0000 0E40             a[5] = 0x196;   //delta okrag
00170d 940e 2e9e 	CALL SUBOPT_0x63
                 ; 0000 0E41             a[7] = 0x0F;    //ster3 INV krazek scierny
00170f e0af      	LDI  R26,LOW(15)
001710 e0b0      	LDI  R27,HIGH(15)
001711 940e 2d96 	CALL SUBOPT_0x44
                 ; 0000 0E42             a[9] = 0;     //na minus czy na plus wzgledem uklad liniowy szczotki drucianej   0 - na minus, 1 - na plus rzad 1
001713 c1ed      	RJMP _0x473
                 ; 0000 0E43 
                 ; 0000 0E44             a[1] = a[0]+0x001;  //ster2
                 ; 0000 0E45             a[2] = a[4];        //ster4 ABS druciak
                 ; 0000 0E46             a[6] = a[5]+0x001;  //okrag
                 ; 0000 0E47             a[8] = a[6]+0x001;  //-delta okrag
                 ; 0000 0E48 
                 ; 0000 0E49     break;
                 ; 0000 0E4A 
                 ; 0000 0E4B 
                 ; 0000 0E4C     case 115:
                 _0x123:
001714 37e3      	CPI  R30,LOW(0x73)
001715 e0a0      	LDI  R26,HIGH(0x73)
001716 07fa      	CPC  R31,R26
001717 f469      	BRNE _0x124
                 ; 0000 0E4D 
                 ; 0000 0E4E             a[0] = 0x076;   //ster1
001718 e7e6      	LDI  R30,LOW(118)
001719 e0f0      	LDI  R31,HIGH(118)
00171a 940e 2d45 	CALL SUBOPT_0x3B
                 ; 0000 0E4F             a[3] = 0x12;    //ster4 INV druciak
00171c 940e 2eb8 	CALL SUBOPT_0x69
                 ; 0000 0E50             a[4] = 0x1F;    //ster3 ABS krazek scierny
                 ; 0000 0E51             a[5] = 0x19C;   //delta okrag
00171e e9ac      	LDI  R26,LOW(412)
00171f e0b1      	LDI  R27,HIGH(412)
001720 940e 2d99 	CALL SUBOPT_0x45
                 ; 0000 0E52             a[7] = 0x11;    //ster3 INV krazek scierny
001722 940e 2d96 	CALL SUBOPT_0x44
                 ; 0000 0E53             a[9] = 0;     //na minus czy na plus wzgledem uklad liniowy szczotki drucianej   0 - na minus, 1 - na plus rzad 1
001724 c1dc      	RJMP _0x473
                 ; 0000 0E54 
                 ; 0000 0E55             a[1] = a[0]+0x001;  //ster2
                 ; 0000 0E56             a[2] = a[4];        //ster4 ABS druciak
                 ; 0000 0E57             a[6] = a[5]+0x001;  //okrag
                 ; 0000 0E58             a[8] = a[6]+0x001;  //-delta okrag
                 ; 0000 0E59 
                 ; 0000 0E5A     break;
                 ; 0000 0E5B 
                 ; 0000 0E5C 
                 ; 0000 0E5D     case 116:
                 _0x124:
001725 37e4      	CPI  R30,LOW(0x74)
001726 e0a0      	LDI  R26,HIGH(0x74)
001727 07fa      	CPC  R31,R26
001728 f459      	BRNE _0x125
                 ; 0000 0E5E 
                 ; 0000 0E5F             a[0] = 0x092;   //ster1
001729 e9e2      	LDI  R30,LOW(146)
00172a e0f0      	LDI  R31,HIGH(146)
00172b 940e 2d45 	CALL SUBOPT_0x3B
                 ; 0000 0E60             a[3] = 0x11;    //ster4 INV druciak
00172d 940e 2d4c 	CALL SUBOPT_0x3C
                 ; 0000 0E61             a[4] = 0x21;    //ster3 ABS krazek scierny
00172f 940e 2df6 	CALL SUBOPT_0x50
                 ; 0000 0E62             a[5] = 0x196;   //delta okrag
001731 e9a6      	LDI  R26,LOW(406)
001732 e0b1      	LDI  R27,HIGH(406)
001733 c1c1      	RJMP _0x474
                 ; 0000 0E63             a[7] = 0x12;    //ster3 INV krazek scierny
                 ; 0000 0E64             a[9] = 1;     //na minus czy na plus wzgledem uklad liniowy szczotki drucianej   0 - na minus, 1 - na plus rzad 1
                 ; 0000 0E65 
                 ; 0000 0E66             a[1] = a[0]+0x001;  //ster2
                 ; 0000 0E67             a[2] = a[4];        //ster4 ABS druciak
                 ; 0000 0E68             a[6] = a[5]+0x001;  //okrag
                 ; 0000 0E69             a[8] = a[6]+0x001;  //-delta okrag
                 ; 0000 0E6A 
                 ; 0000 0E6B     break;
                 ; 0000 0E6C 
                 ; 0000 0E6D 
                 ; 0000 0E6E 
                 ; 0000 0E6F     case 117:
                 _0x125:
001734 37e5      	CPI  R30,LOW(0x75)
001735 e0a0      	LDI  R26,HIGH(0x75)
001736 07fa      	CPC  R31,R26
001737 f459      	BRNE _0x126
                 ; 0000 0E70 
                 ; 0000 0E71             a[0] = 0x11A;   //ster1
001738 e1ea      	LDI  R30,LOW(282)
001739 e0f1      	LDI  R31,HIGH(282)
00173a 940e 2d45 	CALL SUBOPT_0x3B
                 ; 0000 0E72             a[3] = 0x11;    //ster4 INV druciak
00173c 940e 2d4c 	CALL SUBOPT_0x3C
                 ; 0000 0E73             a[4] = 0x19;    //ster3 ABS krazek scierny
00173e 940e 2eb2 	CALL SUBOPT_0x67
                 ; 0000 0E74             a[5] = 0x196;   //delta okrag
001740 940e 2e74 	CALL SUBOPT_0x5D
                 ; 0000 0E75             a[7] = 0x11;    //ster3 INV krazek scierny
001742 c1b8      	RJMP _0x472
                 ; 0000 0E76             a[9] = 1;     //na minus czy na plus wzgledem uklad liniowy szczotki drucianej   0 - na minus, 1 - na plus rzad 1
                 ; 0000 0E77 
                 ; 0000 0E78             a[1] = a[0]+0x001;  //ster2
                 ; 0000 0E79             a[2] = a[4];        //ster4 ABS druciak
                 ; 0000 0E7A             a[6] = a[5]+0x001;  //okrag
                 ; 0000 0E7B             a[8] = a[6]+0x001;  //-delta okrag
                 ; 0000 0E7C 
                 ; 0000 0E7D     break;
                 ; 0000 0E7E 
                 ; 0000 0E7F 
                 ; 0000 0E80 
                 ; 0000 0E81     case 118:
                 _0x126:
001743 37e6      	CPI  R30,LOW(0x76)
001744 e0a0      	LDI  R26,HIGH(0x76)
001745 07fa      	CPC  R31,R26
001746 f459      	BRNE _0x127
                 ; 0000 0E82 
                 ; 0000 0E83             a[0] = 0x056;   //ster1
001747 e5e6      	LDI  R30,LOW(86)
001748 e0f0      	LDI  R31,HIGH(86)
001749 940e 2d45 	CALL SUBOPT_0x3B
                 ; 0000 0E84             a[3] = 0x10;    //ster4 INV druciak
00174b 940e 2d62 	CALL SUBOPT_0x3E
                 ; 0000 0E85             a[4] = 0x1D;    //ster3 ABS krazek scierny
00174d 940e 2eb5 	CALL SUBOPT_0x68
                 ; 0000 0E86             a[5] = 0x196;   //delta okrag
00174f 940e 2e74 	CALL SUBOPT_0x5D
                 ; 0000 0E87             a[7] = 0x11;    //ster3 INV krazek scierny
001751 c1a9      	RJMP _0x472
                 ; 0000 0E88             a[9] = 1;     //na minus czy na plus wzgledem uklad liniowy szczotki drucianej   0 - na minus, 1 - na plus rzad 1
                 ; 0000 0E89 
                 ; 0000 0E8A             a[1] = a[0]+0x001;  //ster2
                 ; 0000 0E8B             a[2] = a[4];        //ster4 ABS druciak
                 ; 0000 0E8C             a[6] = a[5]+0x001;  //okrag
                 ; 0000 0E8D             a[8] = a[6]+0x001;  //-delta okrag
                 ; 0000 0E8E 
                 ; 0000 0E8F     break;
                 ; 0000 0E90 
                 ; 0000 0E91 
                 ; 0000 0E92     case 119:
                 _0x127:
001752 37e7      	CPI  R30,LOW(0x77)
001753 e0a0      	LDI  R26,HIGH(0x77)
001754 07fa      	CPC  R31,R26
001755 f459      	BRNE _0x128
                 ; 0000 0E93 
                 ; 0000 0E94             a[0] = 0x072;   //ster1
001756 e7e2      	LDI  R30,LOW(114)
001757 e0f0      	LDI  R31,HIGH(114)
001758 940e 2d45 	CALL SUBOPT_0x3B
                 ; 0000 0E95             a[3] = 0x12;    //ster4 INV druciak
00175a 940e 2eb8 	CALL SUBOPT_0x69
                 ; 0000 0E96             a[4] = 0x1F;    //ster3 ABS krazek scierny
                 ; 0000 0E97             a[5] = 0x19C;   //delta okrag
00175c e9ac      	LDI  R26,LOW(412)
00175d e0b1      	LDI  R27,HIGH(412)
00175e 940e 2d99 	CALL SUBOPT_0x45
                 ; 0000 0E98             a[7] = 0x11;    //ster3 INV krazek scierny
001760 c19a      	RJMP _0x472
                 ; 0000 0E99             a[9] = 1;     //na minus czy na plus wzgledem uklad liniowy szczotki drucianej   0 - na minus, 1 - na plus rzad 1
                 ; 0000 0E9A 
                 ; 0000 0E9B             a[1] = a[0]+0x001;  //ster2
                 ; 0000 0E9C             a[2] = a[4];        //ster4 ABS druciak
                 ; 0000 0E9D             a[6] = a[5]+0x001;  //okrag
                 ; 0000 0E9E             a[8] = a[6]+0x001;  //-delta okrag
                 ; 0000 0E9F 
                 ; 0000 0EA0     break;
                 ; 0000 0EA1 
                 ; 0000 0EA2 
                 ; 0000 0EA3     case 120:
                 _0x128:
001761 37e8      	CPI  R30,LOW(0x78)
001762 e0a0      	LDI  R26,HIGH(0x78)
001763 07fa      	CPC  R31,R26
001764 f459      	BRNE _0x129
                 ; 0000 0EA4 
                 ; 0000 0EA5             a[0] = 0x0D0;   //ster1
001765 ede0      	LDI  R30,LOW(208)
001766 e0f0      	LDI  R31,HIGH(208)
001767 940e 2d45 	CALL SUBOPT_0x3B
                 ; 0000 0EA6             a[3] = 0x11;    //ster4 INV druciak
001769 940e 2d4c 	CALL SUBOPT_0x3C
                 ; 0000 0EA7             a[4] = 0x21;    //ster3 ABS krazek scierny
00176b 940e 2df6 	CALL SUBOPT_0x50
                 ; 0000 0EA8             a[5] = 0x196;   //delta okrag
00176d 940e 2dfd 	CALL SUBOPT_0x51
                 ; 0000 0EA9             a[7] = 0x12;    //ster3 INV krazek scierny
                 ; 0000 0EAA             a[9] = 0;     //na minus czy na plus wzgledem uklad liniowy szczotki drucianej   0 - na minus, 1 - na plus rzad 1
00176f c191      	RJMP _0x473
                 ; 0000 0EAB 
                 ; 0000 0EAC             a[1] = a[0]+0x001;  //ster2
                 ; 0000 0EAD             a[2] = a[4];        //ster4 ABS druciak
                 ; 0000 0EAE             a[6] = a[5]+0x001;  //okrag
                 ; 0000 0EAF             a[8] = a[6]+0x001;  //-delta okrag
                 ; 0000 0EB0 
                 ; 0000 0EB1     break;
                 ; 0000 0EB2 
                 ; 0000 0EB3 
                 ; 0000 0EB4     case 121:
                 _0x129:
001770 37e9      	CPI  R30,LOW(0x79)
001771 e0a0      	LDI  R26,HIGH(0x79)
001772 07fa      	CPC  R31,R26
001773 f469      	BRNE _0x12A
                 ; 0000 0EB5 
                 ; 0000 0EB6             a[0] = 0x048;   //ster1
001774 e4e8      	LDI  R30,LOW(72)
001775 e0f0      	LDI  R31,HIGH(72)
001776 940e 2d45 	CALL SUBOPT_0x3B
                 ; 0000 0EB7             a[3] = 0x10;    //ster4 INV druciak
001778 940e 2d62 	CALL SUBOPT_0x3E
                 ; 0000 0EB8             a[4] = 0x1D;    //ster3 ABS krazek scierny
00177a 940e 2eb5 	CALL SUBOPT_0x68
                 ; 0000 0EB9             a[5] = 0x196;   //delta okrag
00177c 940e 2e74 	CALL SUBOPT_0x5D
                 ; 0000 0EBA             a[7] = 0x11;    //ster3 INV krazek scierny
00177e 940e 2d96 	CALL SUBOPT_0x44
                 ; 0000 0EBB             a[9] = 0;     //na minus czy na plus wzgledem uklad liniowy szczotki drucianej   0 - na minus, 1 - na plus rzad 1
001780 c180      	RJMP _0x473
                 ; 0000 0EBC 
                 ; 0000 0EBD             a[1] = a[0]+0x001;  //ster2
                 ; 0000 0EBE             a[2] = a[4];        //ster4 ABS druciak
                 ; 0000 0EBF             a[6] = a[5]+0x001;  //okrag
                 ; 0000 0EC0             a[8] = a[6]+0x001;  //-delta okrag
                 ; 0000 0EC1 
                 ; 0000 0EC2     break;
                 ; 0000 0EC3 
                 ; 0000 0EC4 
                 ; 0000 0EC5     case 122:
                 _0x12A:
001781 37ea      	CPI  R30,LOW(0x7A)
001782 e0a0      	LDI  R26,HIGH(0x7A)
001783 07fa      	CPC  R31,R26
001784 f459      	BRNE _0x12B
                 ; 0000 0EC6 
                 ; 0000 0EC7             a[0] = 0x09A;   //ster1
001785 e9ea      	LDI  R30,LOW(154)
001786 e0f0      	LDI  R31,HIGH(154)
001787 940e 2d45 	CALL SUBOPT_0x3B
                 ; 0000 0EC8             a[3] = 0x11;    //ster4 INV druciak
001789 940e 2d4c 	CALL SUBOPT_0x3C
                 ; 0000 0EC9             a[4] = 0x1E;    //ster3 ABS krazek scierny
00178b 940e 2e77 	CALL SUBOPT_0x5E
                 ; 0000 0ECA             a[5] = 0x196;   //delta okrag
00178d 940e 2dfd 	CALL SUBOPT_0x51
                 ; 0000 0ECB             a[7] = 0x12;    //ster3 INV krazek scierny
                 ; 0000 0ECC             a[9] = 0;     //na minus czy na plus wzgledem uklad liniowy szczotki drucianej   0 - na minus, 1 - na plus rzad 1
00178f c171      	RJMP _0x473
                 ; 0000 0ECD 
                 ; 0000 0ECE             a[1] = a[0]+0x001;  //ster2
                 ; 0000 0ECF             a[2] = a[4];        //ster4 ABS druciak
                 ; 0000 0ED0             a[6] = a[5]+0x001;  //okrag
                 ; 0000 0ED1             a[8] = a[6]+0x001;  //-delta okrag
                 ; 0000 0ED2 
                 ; 0000 0ED3     break;
                 ; 0000 0ED4 
                 ; 0000 0ED5 
                 ; 0000 0ED6     case 123:
                 _0x12B:
001790 37eb      	CPI  R30,LOW(0x7B)
001791 e0a0      	LDI  R26,HIGH(0x7B)
001792 07fa      	CPC  R31,R26
001793 f469      	BRNE _0x12C
                 ; 0000 0ED7 
                 ; 0000 0ED8             a[0] = 0x046;   //ster1
001794 e4e6      	LDI  R30,LOW(70)
001795 e0f0      	LDI  R31,HIGH(70)
001796 940e 2d45 	CALL SUBOPT_0x3B
                 ; 0000 0ED9             a[3] = 0x10;    //ster4 INV druciak
001798 940e 2d62 	CALL SUBOPT_0x3E
                 ; 0000 0EDA             a[4] = 0x17;    //ster3 ABS krazek scierny
00179a 940e 2ebf 	CALL SUBOPT_0x6A
                 ; 0000 0EDB             a[5] = 0x193;   //delta okrag
00179c 940e 2ec4 	CALL SUBOPT_0x6B
                 ; 0000 0EDC             a[7] = 0x13;    //ster3 INV krazek scierny
00179e 940e 2d96 	CALL SUBOPT_0x44
                 ; 0000 0EDD             a[9] = 0;     //na minus czy na plus wzgledem uklad liniowy szczotki drucianej   0 - na minus, 1 - na plus rzad 1
0017a0 c160      	RJMP _0x473
                 ; 0000 0EDE 
                 ; 0000 0EDF             a[1] = a[0]+0x001;  //ster2
                 ; 0000 0EE0             a[2] = a[4];        //ster4 ABS druciak
                 ; 0000 0EE1             a[6] = a[5]+0x001;  //okrag
                 ; 0000 0EE2             a[8] = a[6]+0x001;  //-delta okrag
                 ; 0000 0EE3 
                 ; 0000 0EE4     break;
                 ; 0000 0EE5 
                 ; 0000 0EE6 
                 ; 0000 0EE7 
                 ; 0000 0EE8     case 124:
                 _0x12C:
0017a1 37ec      	CPI  R30,LOW(0x7C)
0017a2 e0a0      	LDI  R26,HIGH(0x7C)
0017a3 07fa      	CPC  R31,R26
0017a4 f489      	BRNE _0x12D
                 ; 0000 0EE9 
                 ; 0000 0EEA             a[0] = 0x0E0;   //ster1
0017a5 eee0      	LDI  R30,LOW(224)
0017a6 e0f0      	LDI  R31,HIGH(224)
0017a7 940e 2d45 	CALL SUBOPT_0x3B
                 ; 0000 0EEB             a[3] = 0x0F;    //ster4 INV druciak
0017a9 940e 2ecd 	CALL SUBOPT_0x6C
                 ; 0000 0EEC             a[4] = 0x15;    //ster3 ABS krazek scierny
0017ab e1a5      	LDI  R26,LOW(21)
0017ac e0b0      	LDI  R27,HIGH(21)
0017ad 940e 2e90 	CALL SUBOPT_0x61
                 ; 0000 0EED             a[5] = 0x196;   //delta okrag
0017af 940e 2e9e 	CALL SUBOPT_0x63
                 ; 0000 0EEE             a[7] = 0x13;    //ster3 INV krazek scierny
0017b1 e1a3      	LDI  R26,LOW(19)
0017b2 e0b0      	LDI  R27,HIGH(19)
0017b3 940e 2d96 	CALL SUBOPT_0x44
                 ; 0000 0EEF             a[9] = 0;     //na minus czy na plus wzgledem uklad liniowy szczotki drucianej   0 - na minus, 1 - na plus rzad 1
0017b5 c14b      	RJMP _0x473
                 ; 0000 0EF0 
                 ; 0000 0EF1             a[1] = a[0]+0x001;  //ster2
                 ; 0000 0EF2             a[2] = a[4];        //ster4 ABS druciak
                 ; 0000 0EF3             a[6] = a[5]+0x001;  //okrag
                 ; 0000 0EF4             a[8] = a[6]+0x001;  //-delta okrag
                 ; 0000 0EF5 
                 ; 0000 0EF6     break;
                 ; 0000 0EF7 
                 ; 0000 0EF8 
                 ; 0000 0EF9     case 125:
                 _0x12D:
0017b6 37ed      	CPI  R30,LOW(0x7D)
0017b7 e0a0      	LDI  R26,HIGH(0x7D)
0017b8 07fa      	CPC  R31,R26
0017b9 f459      	BRNE _0x12E
                 ; 0000 0EFA 
                 ; 0000 0EFB             a[0] = 0x038;   //ster1
0017ba e3e8      	LDI  R30,LOW(56)
0017bb e0f0      	LDI  R31,HIGH(56)
0017bc 940e 2d45 	CALL SUBOPT_0x3B
                 ; 0000 0EFC             a[3] = 0x11;    //ster4 INV druciak
0017be 940e 2d4c 	CALL SUBOPT_0x3C
                 ; 0000 0EFD             a[4] = 0x1E;    //ster3 ABS krazek scierny
0017c0 940e 2e77 	CALL SUBOPT_0x5E
                 ; 0000 0EFE             a[5] = 0x196;   //delta okrag
0017c2 940e 2e74 	CALL SUBOPT_0x5D
                 ; 0000 0EFF             a[7] = 0x11;    //ster3 INV krazek scierny
0017c4 c136      	RJMP _0x472
                 ; 0000 0F00             a[9] = 1;     //na minus czy na plus wzgledem uklad liniowy szczotki drucianej   0 - na minus, 1 - na plus rzad 1
                 ; 0000 0F01 
                 ; 0000 0F02             a[1] = a[0]+0x001;  //ster2
                 ; 0000 0F03             a[2] = a[4];        //ster4 ABS druciak
                 ; 0000 0F04             a[6] = a[5]+0x001;  //okrag
                 ; 0000 0F05             a[8] = a[6]+0x001;  //-delta okrag
                 ; 0000 0F06 
                 ; 0000 0F07     break;
                 ; 0000 0F08 
                 ; 0000 0F09 
                 ; 0000 0F0A     case 126:
                 _0x12E:
0017c5 37ee      	CPI  R30,LOW(0x7E)
0017c6 e0a0      	LDI  R26,HIGH(0x7E)
0017c7 07fa      	CPC  R31,R26
0017c8 f459      	BRNE _0x12F
                 ; 0000 0F0B 
                 ; 0000 0F0C             a[0] = 0x0CA;   //ster1
0017c9 ecea      	LDI  R30,LOW(202)
0017ca e0f0      	LDI  R31,HIGH(202)
0017cb 940e 2d45 	CALL SUBOPT_0x3B
                 ; 0000 0F0D             a[3] = 0x11;    //ster4 INV druciak
0017cd 940e 2d4c 	CALL SUBOPT_0x3C
                 ; 0000 0F0E             a[4] = 0x1E;    //ster3 ABS krazek scierny
0017cf 940e 2e77 	CALL SUBOPT_0x5E
                 ; 0000 0F0F             a[5] = 0x196;   //delta okrag
0017d1 e9a6      	LDI  R26,LOW(406)
0017d2 e0b1      	LDI  R27,HIGH(406)
0017d3 c121      	RJMP _0x474
                 ; 0000 0F10             a[7] = 0x12;    //ster3 INV krazek scierny
                 ; 0000 0F11             a[9] = 1;     //na minus czy na plus wzgledem uklad liniowy szczotki drucianej   0 - na minus, 1 - na plus rzad 1
                 ; 0000 0F12 
                 ; 0000 0F13             a[1] = a[0]+0x001;  //ster2
                 ; 0000 0F14             a[2] = a[4];        //ster4 ABS druciak
                 ; 0000 0F15             a[6] = a[5]+0x001;  //okrag
                 ; 0000 0F16             a[8] = a[6]+0x001;  //-delta okrag
                 ; 0000 0F17 
                 ; 0000 0F18     break;
                 ; 0000 0F19 
                 ; 0000 0F1A 
                 ; 0000 0F1B     case 127:
                 _0x12F:
0017d4 37ef      	CPI  R30,LOW(0x7F)
0017d5 e0a0      	LDI  R26,HIGH(0x7F)
0017d6 07fa      	CPC  R31,R26
0017d7 f459      	BRNE _0x130
                 ; 0000 0F1C 
                 ; 0000 0F1D             a[0] = 0x0DE;   //ster1
0017d8 edee      	LDI  R30,LOW(222)
0017d9 e0f0      	LDI  R31,HIGH(222)
0017da 940e 2d45 	CALL SUBOPT_0x3B
                 ; 0000 0F1E             a[3] = 0x10;    //ster4 INV druciak
0017dc 940e 2d62 	CALL SUBOPT_0x3E
                 ; 0000 0F1F             a[4] = 0x17;    //ster3 ABS krazek scierny
0017de 940e 2ebf 	CALL SUBOPT_0x6A
                 ; 0000 0F20             a[5] = 0x193;   //delta okrag
0017e0 940e 2ec4 	CALL SUBOPT_0x6B
                 ; 0000 0F21             a[7] = 0x13;    //ster3 INV krazek scierny
0017e2 c118      	RJMP _0x472
                 ; 0000 0F22             a[9] = 1;     //na minus czy na plus wzgledem uklad liniowy szczotki drucianej   0 - na minus, 1 - na plus rzad 1
                 ; 0000 0F23 
                 ; 0000 0F24             a[1] = a[0]+0x001;  //ster2
                 ; 0000 0F25             a[2] = a[4];        //ster4 ABS druciak
                 ; 0000 0F26             a[6] = a[5]+0x001;  //okrag
                 ; 0000 0F27             a[8] = a[6]+0x001;  //-delta okrag
                 ; 0000 0F28 
                 ; 0000 0F29     break;
                 ; 0000 0F2A 
                 ; 0000 0F2B 
                 ; 0000 0F2C     case 128:
                 _0x130:
0017e3 38e0      	CPI  R30,LOW(0x80)
0017e4 e0a0      	LDI  R26,HIGH(0x80)
0017e5 07fa      	CPC  R31,R26
0017e6 f469      	BRNE _0x131
                 ; 0000 0F2D 
                 ; 0000 0F2E             a[0] = 0x116;   //ster1
0017e7 e1e6      	LDI  R30,LOW(278)
0017e8 e0f1      	LDI  R31,HIGH(278)
0017e9 940e 2d45 	CALL SUBOPT_0x3B
                 ; 0000 0F2F             a[3] = 0x10;    //ster4 INV druciak
0017eb 940e 2d62 	CALL SUBOPT_0x3E
                 ; 0000 0F30             a[4] = 0x18;    //ster3 ABS krazek scierny
                +
0017ed e6ed     +LDI R30 , LOW ( _a + ( 8 ) )
0017ee e0f5     +LDI R31 , HIGH ( _a + ( 8 ) )
                 	__POINTW1MN _a,8
0017ef 940e 2d7b 	CALL SUBOPT_0x41
                 ; 0000 0F31             a[5] = 0x196;   //delta okrag
0017f1 940e 2ed4 	CALL SUBOPT_0x6D
                 ; 0000 0F32             a[7] = 0x13;    //ster3 INV krazek scierny
0017f3 c107      	RJMP _0x472
                 ; 0000 0F33             a[9] = 1;     //na minus czy na plus wzgledem uklad liniowy szczotki drucianej   0 - na minus, 1 - na plus rzad 1
                 ; 0000 0F34 
                 ; 0000 0F35             a[1] = a[0]+0x001;  //ster2
                 ; 0000 0F36             a[2] = a[4];        //ster4 ABS druciak
                 ; 0000 0F37             a[6] = a[5]+0x001;  //okrag
                 ; 0000 0F38             a[8] = a[6]+0x001;  //-delta okrag
                 ; 0000 0F39 
                 ; 0000 0F3A     break;
                 ; 0000 0F3B 
                 ; 0000 0F3C 
                 ; 0000 0F3D     case 129:
                 _0x131:
0017f4 38e1      	CPI  R30,LOW(0x81)
0017f5 e0a0      	LDI  R26,HIGH(0x81)
0017f6 07fa      	CPC  R31,R26
0017f7 f479      	BRNE _0x132
                 ; 0000 0F3E 
                 ; 0000 0F3F             a[0] = 0x0E8;   //ster1
0017f8 eee8      	LDI  R30,LOW(232)
0017f9 e0f0      	LDI  R31,HIGH(232)
0017fa 940e 2d45 	CALL SUBOPT_0x3B
                 ; 0000 0F40             a[3] = 0x0F;    //ster4 INV druciak
0017fc 940e 2ecd 	CALL SUBOPT_0x6C
                 ; 0000 0F41             a[4] = 0x18;    //ster3 ABS krazek scierny
0017fe 940e 2edb 	CALL SUBOPT_0x6E
                 ; 0000 0F42             a[5] = 0x199;   //delta okrag
001800 e9a9      	LDI  R26,LOW(409)
001801 e0b1      	LDI  R27,HIGH(409)
001802 940e 2ed4 	CALL SUBOPT_0x6D
                 ; 0000 0F43             a[7] = 0x13;    //ster3 INV krazek scierny
001804 940e 2d96 	CALL SUBOPT_0x44
                 ; 0000 0F44             a[9] = 0;     //na minus czy na plus wzgledem uklad liniowy szczotki drucianej   0 - na minus, 1 - na plus rzad 1
001806 c0fa      	RJMP _0x473
                 ; 0000 0F45 
                 ; 0000 0F46             a[1] = a[0]+0x001;  //ster2
                 ; 0000 0F47             a[2] = a[4];        //ster4 ABS druciak
                 ; 0000 0F48             a[6] = a[5]+0x001;  //okrag
                 ; 0000 0F49             a[8] = a[6]+0x001;  //-delta okrag
                 ; 0000 0F4A 
                 ; 0000 0F4B     break;
                 ; 0000 0F4C 
                 ; 0000 0F4D 
                 ; 0000 0F4E     case 130:
                 _0x132:
001807 38e2      	CPI  R30,LOW(0x82)
001808 e0a0      	LDI  R26,HIGH(0x82)
001809 07fa      	CPC  R31,R26
00180a f469      	BRNE _0x133
                 ; 0000 0F4F 
                 ; 0000 0F50             a[0] = 0x0F2;   //ster1
00180b efe2      	LDI  R30,LOW(242)
00180c e0f0      	LDI  R31,HIGH(242)
00180d 940e 2d45 	CALL SUBOPT_0x3B
                 ; 0000 0F51             a[3] = 0x12;    //ster4 INV druciak
00180f 940e 2ede 	CALL SUBOPT_0x6F
                 ; 0000 0F52             a[4] = 0x23;    //ster3 ABS krazek scierny
                 ; 0000 0F53             a[5] = 0x196;   //delta okrag
001811 940e 2e9e 	CALL SUBOPT_0x63
                 ; 0000 0F54             a[7] = 0x10;    //ster3 INV krazek scierny
001813 940e 2d62 	CALL SUBOPT_0x3E
                 ; 0000 0F55             a[9] = 0;     //na minus czy na plus wzgledem uklad liniowy szczotki drucianej   0 - na minus, 1 - na plus rzad 1
001815 940e 2d76 	CALL SUBOPT_0x40
001817 c0e9      	RJMP _0x473
                 ; 0000 0F56 
                 ; 0000 0F57             a[1] = a[0]+0x001;  //ster2
                 ; 0000 0F58             a[2] = a[4];        //ster4 ABS druciak
                 ; 0000 0F59             a[6] = a[5]+0x001;  //okrag
                 ; 0000 0F5A             a[8] = a[6]+0x001;  //-delta okrag
                 ; 0000 0F5B 
                 ; 0000 0F5C     break;
                 ; 0000 0F5D 
                 ; 0000 0F5E 
                 ; 0000 0F5F     case 131:
                 _0x133:
001818 38e3      	CPI  R30,LOW(0x83)
001819 e0a0      	LDI  R26,HIGH(0x83)
00181a 07fa      	CPC  R31,R26
00181b f449      	BRNE _0x134
                 ; 0000 0F60 
                 ; 0000 0F61             a[0] = 0x108;   //ster1
00181c e0e8      	LDI  R30,LOW(264)
00181d e0f1      	LDI  R31,HIGH(264)
00181e 940e 2d45 	CALL SUBOPT_0x3B
                 ; 0000 0F62             a[3] = 0x11;    //ster4 INV druciak
001820 940e 2d4c 	CALL SUBOPT_0x3C
                 ; 0000 0F63             a[4] = 0x1F;    //ster3 ABS krazek scierny
001822 e1af      	LDI  R26,LOW(31)
001823 e0b0      	LDI  R27,HIGH(31)
001824 c0ca      	RJMP _0x475
                 ; 0000 0F64             a[5] = 0x19C;   //delta okrag
                 ; 0000 0F65             a[7] = 0x12;    //ster3 INV krazek scierny
                 ; 0000 0F66             a[9] = 1;     //na minus czy na plus wzgledem uklad liniowy szczotki drucianej   0 - na minus, 1 - na plus rzad 1
                 ; 0000 0F67 
                 ; 0000 0F68             a[1] = a[0]+0x001;  //ster2
                 ; 0000 0F69             a[2] = a[4];        //ster4 ABS druciak
                 ; 0000 0F6A             a[6] = a[5]+0x001;  //okrag
                 ; 0000 0F6B             a[8] = a[6]+0x001;  //-delta okrag
                 ; 0000 0F6C 
                 ; 0000 0F6D     break;
                 ; 0000 0F6E 
                 ; 0000 0F6F 
                 ; 0000 0F70 
                 ; 0000 0F71     case 132:
                 _0x134:
001825 38e4      	CPI  R30,LOW(0x84)
001826 e0a0      	LDI  R26,HIGH(0x84)
001827 07fa      	CPC  R31,R26
001828 f459      	BRNE _0x135
                 ; 0000 0F72 
                 ; 0000 0F73             a[0] = 0x064;   //ster1
001829 e6e4      	LDI  R30,LOW(100)
00182a e0f0      	LDI  R31,HIGH(100)
00182b 940e 2d45 	CALL SUBOPT_0x3B
                 ; 0000 0F74             a[3] = 0x11;    //ster4 INV druciak
00182d 940e 2d4c 	CALL SUBOPT_0x3C
                 ; 0000 0F75             a[4] = 0x1C;    //ster3 ABS krazek scierny
00182f 940e 2e5d 	CALL SUBOPT_0x5A
                 ; 0000 0F76             a[5] = 0x19C;   //delta okrag
001831 940e 2e1a 	CALL SUBOPT_0x54
                 ; 0000 0F77             a[7] = 0x12;    //ster3 INV krazek scierny
                 ; 0000 0F78             a[9] = 0;     //na minus czy na plus wzgledem uklad liniowy szczotki drucianej   0 - na minus, 1 - na plus rzad 1
001833 c0cd      	RJMP _0x473
                 ; 0000 0F79 
                 ; 0000 0F7A             a[1] = a[0]+0x001;  //ster2
                 ; 0000 0F7B             a[2] = a[4];        //ster4 ABS druciak
                 ; 0000 0F7C             a[6] = a[5]+0x001;  //okrag
                 ; 0000 0F7D             a[8] = a[6]+0x001;  //-delta okrag
                 ; 0000 0F7E 
                 ; 0000 0F7F     break;
                 ; 0000 0F80 
                 ; 0000 0F81 
                 ; 0000 0F82     case 133:
                 _0x135:
001834 38e5      	CPI  R30,LOW(0x85)
001835 e0a0      	LDI  R26,HIGH(0x85)
001836 07fa      	CPC  R31,R26
001837 f469      	BRNE _0x136
                 ; 0000 0F83 
                 ; 0000 0F84             a[0] = 0x088;   //ster1
001838 e8e8      	LDI  R30,LOW(136)
001839 e0f0      	LDI  R31,HIGH(136)
00183a 940e 2d45 	CALL SUBOPT_0x3B
                 ; 0000 0F85             a[3] = 0x0F;    //ster4 INV druciak
00183c 940e 2ecd 	CALL SUBOPT_0x6C
                 ; 0000 0F86             a[4] = 0x18;    //ster3 ABS krazek scierny
00183e 940e 2edb 	CALL SUBOPT_0x6E
                 ; 0000 0F87             a[5] = 0x199;   //delta okrag
001840 e9a9      	LDI  R26,LOW(409)
001841 e0b1      	LDI  R27,HIGH(409)
001842 940e 2ed4 	CALL SUBOPT_0x6D
                 ; 0000 0F88             a[7] = 0x13;    //ster3 INV krazek scierny
001844 c0b6      	RJMP _0x472
                 ; 0000 0F89             a[9] = 1;     //na minus czy na plus wzgledem uklad liniowy szczotki drucianej   0 - na minus, 1 - na plus rzad 1
                 ; 0000 0F8A 
                 ; 0000 0F8B             a[1] = a[0]+0x001;  //ster2
                 ; 0000 0F8C             a[2] = a[4];        //ster4 ABS druciak
                 ; 0000 0F8D             a[6] = a[5]+0x001;  //okrag
                 ; 0000 0F8E             a[8] = a[6]+0x001;  //-delta okrag
                 ; 0000 0F8F 
                 ; 0000 0F90     break;
                 ; 0000 0F91 
                 ; 0000 0F92 
                 ; 0000 0F93 
                 ; 0000 0F94     case 134:
                 _0x136:
001845 38e6      	CPI  R30,LOW(0x86)
001846 e0a0      	LDI  R26,HIGH(0x86)
001847 07fa      	CPC  R31,R26
001848 f459      	BRNE _0x137
                 ; 0000 0F95 
                 ; 0000 0F96             a[0] = 0x10E;   //ster1
001849 e0ee      	LDI  R30,LOW(270)
00184a e0f1      	LDI  R31,HIGH(270)
00184b 940e 2d45 	CALL SUBOPT_0x3B
                 ; 0000 0F97             a[3] = 0x12;    //ster4 INV druciak
00184d 940e 2ede 	CALL SUBOPT_0x6F
                 ; 0000 0F98             a[4] = 0x23;    //ster3 ABS krazek scierny
                 ; 0000 0F99             a[5] = 0x196;   //delta okrag
00184f 940e 2e9e 	CALL SUBOPT_0x63
                 ; 0000 0F9A             a[7] = 0x10;    //ster3 INV krazek scierny
001851 e1a0      	LDI  R26,LOW(16)
001852 e0b0      	LDI  R27,HIGH(16)
001853 c0a7      	RJMP _0x472
                 ; 0000 0F9B             a[9] = 1;     //na minus czy na plus wzgledem uklad liniowy szczotki drucianej   0 - na minus, 1 - na plus rzad 1
                 ; 0000 0F9C 
                 ; 0000 0F9D             a[1] = a[0]+0x001;  //ster2
                 ; 0000 0F9E             a[2] = a[4];        //ster4 ABS druciak
                 ; 0000 0F9F             a[6] = a[5]+0x001;  //okrag
                 ; 0000 0FA0             a[8] = a[6]+0x001;  //-delta okrag
                 ; 0000 0FA1 
                 ; 0000 0FA2     break;
                 ; 0000 0FA3 
                 ; 0000 0FA4                ////////////////////////////////////////////////////////////////////////////////////////////////////////
                 ; 0000 0FA5      case 135:
                 _0x137:
001854 38e7      	CPI  R30,LOW(0x87)
001855 e0a0      	LDI  R26,HIGH(0x87)
001856 07fa      	CPC  R31,R26
001857 f459      	BRNE _0x138
                 ; 0000 0FA6 
                 ; 0000 0FA7             a[0] = 0x054;   //ster1
001858 e5e4      	LDI  R30,LOW(84)
001859 e0f0      	LDI  R31,HIGH(84)
00185a 940e 2d45 	CALL SUBOPT_0x3B
                 ; 0000 0FA8             a[3] = 0x11;    //ster4 INV druciak
00185c 940e 2d4c 	CALL SUBOPT_0x3C
                 ; 0000 0FA9             a[4] = 0x1F;    //ster3 ABS krazek scierny
00185e 940e 2eaf 	CALL SUBOPT_0x66
                 ; 0000 0FAA             a[5] = 0x19C;   //delta okrag
001860 940e 2e1a 	CALL SUBOPT_0x54
                 ; 0000 0FAB             a[7] = 0x12;    //ster3 INV krazek scierny
                 ; 0000 0FAC             a[9] = 0;     //na minus czy na plus wzgledem uklad liniowy szczotki drucianej   0 - na minus, 1 - na plus rzad 1
001862 c09e      	RJMP _0x473
                 ; 0000 0FAD 
                 ; 0000 0FAE             a[1] = a[0]+0x001;  //ster2
                 ; 0000 0FAF             a[2] = a[4];        //ster4 ABS druciak
                 ; 0000 0FB0             a[6] = a[5]+0x001;  //okrag
                 ; 0000 0FB1             a[8] = a[6]+0x001;  //-delta okrag
                 ; 0000 0FB2 
                 ; 0000 0FB3     break;
                 ; 0000 0FB4 
                 ; 0000 0FB5 
                 ; 0000 0FB6      case 136:
                 _0x138:
001863 38e8      	CPI  R30,LOW(0x88)
001864 e0a0      	LDI  R26,HIGH(0x88)
001865 07fa      	CPC  R31,R26
001866 f479      	BRNE _0x139
                 ; 0000 0FB7 
                 ; 0000 0FB8             a[0] = 0x03E;   //ster1
001867 e3ee      	LDI  R30,LOW(62)
001868 e0f0      	LDI  R31,HIGH(62)
001869 940e 2d45 	CALL SUBOPT_0x3B
                 ; 0000 0FB9             a[3] = 0x10;    //ster4 INV druciak
00186b 940e 2d62 	CALL SUBOPT_0x3E
                 ; 0000 0FBA             a[4] = 0x18;    //ster3 ABS krazek scierny
                +
00186d e6ed     +LDI R30 , LOW ( _a + ( 8 ) )
00186e e0f5     +LDI R31 , HIGH ( _a + ( 8 ) )
                 	__POINTW1MN _a,8
00186f 940e 2edb 	CALL SUBOPT_0x6E
                 ; 0000 0FBB             a[5] = 0x190;   //delta okrag
001871 940e 2ee5 	CALL SUBOPT_0x70
                 ; 0000 0FBC             a[7] = 0x10;    //ster3 INV krazek scierny
001873 e1a0      	LDI  R26,LOW(16)
001874 e0b0      	LDI  R27,HIGH(16)
001875 c085      	RJMP _0x472
                 ; 0000 0FBD             a[9] = 1;     //na minus czy na plus wzgledem uklad liniowy szczotki drucianej   0 - na minus, 1 - na plus rzad 1
                 ; 0000 0FBE 
                 ; 0000 0FBF             a[1] = a[0]+0x001;  //ster2
                 ; 0000 0FC0             a[2] = a[4];        //ster4 ABS druciak
                 ; 0000 0FC1             a[6] = a[5]+0x001;  //okrag
                 ; 0000 0FC2             a[8] = a[6]+0x001;  //-delta okrag
                 ; 0000 0FC3 
                 ; 0000 0FC4     break;
                 ; 0000 0FC5 
                 ; 0000 0FC6      case 137:
                 _0x139:
001876 38e9      	CPI  R30,LOW(0x89)
001877 e0a0      	LDI  R26,HIGH(0x89)
001878 07fa      	CPC  R31,R26
001879 f459      	BRNE _0x13A
                 ; 0000 0FC7 
                 ; 0000 0FC8             a[0] = 0x00C;   //ster1
00187a e0ec      	LDI  R30,LOW(12)
00187b e0f0      	LDI  R31,HIGH(12)
00187c 940e 2d45 	CALL SUBOPT_0x3B
                 ; 0000 0FC9             a[3] = 0x11;    //ster4 INV druciak
00187e 940e 2d4c 	CALL SUBOPT_0x3C
                 ; 0000 0FCA             a[4] = 0x1E;    //ster3 ABS krazek scierny
001880 940e 2e00 	CALL SUBOPT_0x52
                 ; 0000 0FCB             a[5] = 0x190;   //delta okrag
                 ; 0000 0FCC             a[7] = 0x0F;    //ster3 INV krazek scierny
001882 940e 2d96 	CALL SUBOPT_0x44
                 ; 0000 0FCD             a[9] = 0;     //na minus czy na plus wzgledem uklad liniowy szczotki drucianej   0 - na minus, 1 - na plus rzad 1
001884 c07c      	RJMP _0x473
                 ; 0000 0FCE 
                 ; 0000 0FCF             a[1] = a[0]+0x001;  //ster2
                 ; 0000 0FD0             a[2] = a[4];        //ster4 ABS druciak
                 ; 0000 0FD1             a[6] = a[5]+0x001;  //okrag
                 ; 0000 0FD2             a[8] = a[6]+0x001;  //-delta okrag
                 ; 0000 0FD3 
                 ; 0000 0FD4     break;
                 ; 0000 0FD5 
                 ; 0000 0FD6 
                 ; 0000 0FD7      case 138:
                 _0x13A:
001885 38ea      	CPI  R30,LOW(0x8A)
001886 e0a0      	LDI  R26,HIGH(0x8A)
001887 07fa      	CPC  R31,R26
001888 f459      	BRNE _0x13B
                 ; 0000 0FD8 
                 ; 0000 0FD9             a[0] = 0x0DC;   //ster1
001889 edec      	LDI  R30,LOW(220)
00188a e0f0      	LDI  R31,HIGH(220)
00188b 940e 2d45 	CALL SUBOPT_0x3B
                 ; 0000 0FDA             a[3] = 0x10;    //ster4 INV druciak
00188d 940e 2d62 	CALL SUBOPT_0x3E
                 ; 0000 0FDB             a[4] = 0x1B;    //ster3 ABS krazek scierny
                +
00188f e6ed     +LDI R30 , LOW ( _a + ( 8 ) )
001890 e0f5     +LDI R31 , HIGH ( _a + ( 8 ) )
                 	__POINTW1MN _a,8
001891 940e 2d53 	CALL SUBOPT_0x3D
                 ; 0000 0FDC             a[5] = 0x196;   //delta okrag
                 ; 0000 0FDD             a[7] = 0x11;    //ster3 INV krazek scierny
001893 c067      	RJMP _0x472
                 ; 0000 0FDE             a[9] = 1;     //na minus czy na plus wzgledem uklad liniowy szczotki drucianej   0 - na minus, 1 - na plus rzad 1
                 ; 0000 0FDF 
                 ; 0000 0FE0             a[1] = a[0]+0x001;  //ster2
                 ; 0000 0FE1             a[2] = a[4];        //ster4 ABS druciak
                 ; 0000 0FE2             a[6] = a[5]+0x001;  //okrag
                 ; 0000 0FE3             a[8] = a[6]+0x001;  //-delta okrag
                 ; 0000 0FE4 
                 ; 0000 0FE5     break;
                 ; 0000 0FE6 
                 ; 0000 0FE7 
                 ; 0000 0FE8      case 139:
                 _0x13B:
001894 38eb      	CPI  R30,LOW(0x8B)
001895 e0a0      	LDI  R26,HIGH(0x8B)
001896 07fa      	CPC  R31,R26
001897 f459      	BRNE _0x13C
                 ; 0000 0FE9 
                 ; 0000 0FEA             a[0] = 0x058;   //ster1
001898 e5e8      	LDI  R30,LOW(88)
001899 e0f0      	LDI  R31,HIGH(88)
00189a 940e 2d45 	CALL SUBOPT_0x3B
                 ; 0000 0FEB             a[3] = 0x11;    //ster4 INV druciak
00189c 940e 2d4c 	CALL SUBOPT_0x3C
                 ; 0000 0FEC             a[4] = 0x19;    //ster3 ABS krazek scierny
00189e 940e 2eb2 	CALL SUBOPT_0x67
                 ; 0000 0FED             a[5] = 0x196;   //delta okrag
0018a0 e9a6      	LDI  R26,LOW(406)
0018a1 e0b1      	LDI  R27,HIGH(406)
0018a2 c052      	RJMP _0x474
                 ; 0000 0FEE             a[7] = 0x12;    //ster3 INV krazek scierny
                 ; 0000 0FEF             a[9] = 1;     //na minus czy na plus wzgledem uklad liniowy szczotki drucianej   0 - na minus, 1 - na plus rzad 1
                 ; 0000 0FF0 
                 ; 0000 0FF1             a[1] = a[0]+0x001;  //ster2
                 ; 0000 0FF2             a[2] = a[4];        //ster4 ABS druciak
                 ; 0000 0FF3             a[6] = a[5]+0x001;  //okrag
                 ; 0000 0FF4             a[8] = a[6]+0x001;  //-delta okrag
                 ; 0000 0FF5 
                 ; 0000 0FF6     break;
                 ; 0000 0FF7 
                 ; 0000 0FF8 
                 ; 0000 0FF9      case 140:
                 _0x13C:
0018a3 38ec      	CPI  R30,LOW(0x8C)
0018a4 e0a0      	LDI  R26,HIGH(0x8C)
0018a5 07fa      	CPC  R31,R26
0018a6 f479      	BRNE _0x13D
                 ; 0000 0FFA 
                 ; 0000 0FFB             a[0] = 0x03C;   //ster1
0018a7 e3ec      	LDI  R30,LOW(60)
0018a8 e0f0      	LDI  R31,HIGH(60)
0018a9 940e 2d45 	CALL SUBOPT_0x3B
                 ; 0000 0FFC             a[3] = 0x10;    //ster4 INV druciak
0018ab 940e 2d62 	CALL SUBOPT_0x3E
                 ; 0000 0FFD             a[4] = 0x17;    //ster3 ABS krazek scierny
0018ad 940e 2ebf 	CALL SUBOPT_0x6A
                 ; 0000 0FFE             a[5] = 0x190;   //delta okrag
0018af 940e 2ee5 	CALL SUBOPT_0x70
                 ; 0000 0FFF             a[7] = 0x10;    //ster3 INV krazek scierny
0018b1 940e 2d62 	CALL SUBOPT_0x3E
                 ; 0000 1000             a[9] = 0;     //na minus czy na plus wzgledem uklad liniowy szczotki drucianej   0 - na minus, 1 - na plus rzad 1
0018b3 940e 2d76 	CALL SUBOPT_0x40
0018b5 c04b      	RJMP _0x473
                 ; 0000 1001 
                 ; 0000 1002             a[1] = a[0]+0x001;  //ster2
                 ; 0000 1003             a[2] = a[4];        //ster4 ABS druciak
                 ; 0000 1004             a[6] = a[5]+0x001;  //okrag
                 ; 0000 1005             a[8] = a[6]+0x001;  //-delta okrag
                 ; 0000 1006 
                 ; 0000 1007 
                 ; 0000 1008 
                 ; 0000 1009     break;
                 ; 0000 100A 
                 ; 0000 100B 
                 ; 0000 100C      case 141:
                 _0x13D:
0018b6 38ed      	CPI  R30,LOW(0x8D)
0018b7 e0a0      	LDI  R26,HIGH(0x8D)
0018b8 07fa      	CPC  R31,R26
0018b9 f449      	BRNE _0x13E
                 ; 0000 100D 
                 ; 0000 100E             a[0] = 0x00E;   //ster1
0018ba e0ee      	LDI  R30,LOW(14)
0018bb e0f0      	LDI  R31,HIGH(14)
0018bc 940e 2d45 	CALL SUBOPT_0x3B
                 ; 0000 100F             a[3] = 0x11;    //ster4 INV druciak
0018be 940e 2d4c 	CALL SUBOPT_0x3C
                 ; 0000 1010             a[4] = 0x1E;    //ster3 ABS krazek scierny
0018c0 940e 2e00 	CALL SUBOPT_0x52
                 ; 0000 1011             a[5] = 0x190;   //delta okrag
                 ; 0000 1012             a[7] = 0x0F;    //ster3 INV krazek scierny
0018c2 c038      	RJMP _0x472
                 ; 0000 1013             a[9] = 1;     //na minus czy na plus wzgledem uklad liniowy szczotki drucianej   0 - na minus, 1 - na plus rzad 1
                 ; 0000 1014 
                 ; 0000 1015             a[1] = a[0]+0x001;  //ster2
                 ; 0000 1016             a[2] = a[4];        //ster4 ABS druciak
                 ; 0000 1017             a[6] = a[5]+0x001;  //okrag
                 ; 0000 1018             a[8] = a[6]+0x001;  //-delta okrag
                 ; 0000 1019 
                 ; 0000 101A     break;
                 ; 0000 101B 
                 ; 0000 101C 
                 ; 0000 101D      case 142:
                 _0x13E:
0018c3 38ee      	CPI  R30,LOW(0x8E)
0018c4 e0a0      	LDI  R26,HIGH(0x8E)
0018c5 07fa      	CPC  R31,R26
0018c6 f469      	BRNE _0x13F
                 ; 0000 101E 
                 ; 0000 101F             a[0] = 0x10A;   //ster1
0018c7 e0ea      	LDI  R30,LOW(266)
0018c8 e0f1      	LDI  R31,HIGH(266)
0018c9 940e 2d45 	CALL SUBOPT_0x3B
                 ; 0000 1020             a[3] = 0x10;    //ster4 INV druciak
0018cb 940e 2d62 	CALL SUBOPT_0x3E
                 ; 0000 1021             a[4] = 0x1B;    //ster3 ABS krazek scierny
                +
0018cd e6ed     +LDI R30 , LOW ( _a + ( 8 ) )
0018ce e0f5     +LDI R31 , HIGH ( _a + ( 8 ) )
                 	__POINTW1MN _a,8
0018cf 940e 2d53 	CALL SUBOPT_0x3D
                 ; 0000 1022             a[5] = 0x196;   //delta okrag
                 ; 0000 1023             a[7] = 0x11;    //ster3 INV krazek scierny
0018d1 940e 2d96 	CALL SUBOPT_0x44
                 ; 0000 1024             a[9] = 0;     //na minus czy na plus wzgledem uklad liniowy szczotki drucianej   0 - na minus, 1 - na plus rzad 1
0018d3 c02d      	RJMP _0x473
                 ; 0000 1025 
                 ; 0000 1026             a[1] = a[0]+0x001;  //ster2
                 ; 0000 1027             a[2] = a[4];        //ster4 ABS druciak
                 ; 0000 1028             a[6] = a[5]+0x001;  //okrag
                 ; 0000 1029             a[8] = a[6]+0x001;  //-delta okrag
                 ; 0000 102A 
                 ; 0000 102B     break;
                 ; 0000 102C 
                 ; 0000 102D 
                 ; 0000 102E 
                 ; 0000 102F      case 143:
                 _0x13F:
0018d4 38ef      	CPI  R30,LOW(0x8F)
0018d5 e0a0      	LDI  R26,HIGH(0x8F)
0018d6 07fa      	CPC  R31,R26
0018d7 f459      	BRNE _0x140
                 ; 0000 1030 
                 ; 0000 1031             a[0] = 0x022;   //ster1
0018d8 e2e2      	LDI  R30,LOW(34)
0018d9 e0f0      	LDI  R31,HIGH(34)
0018da 940e 2d45 	CALL SUBOPT_0x3B
                 ; 0000 1032             a[3] = 0x11;    //ster4 INV druciak
0018dc 940e 2d4c 	CALL SUBOPT_0x3C
                 ; 0000 1033             a[4] = 0x19;    //ster3 ABS krazek scierny
0018de 940e 2eb2 	CALL SUBOPT_0x67
                 ; 0000 1034             a[5] = 0x196;   //delta okrag
0018e0 940e 2dfd 	CALL SUBOPT_0x51
                 ; 0000 1035             a[7] = 0x12;    //ster3 INV krazek scierny
                 ; 0000 1036             a[9] = 0;     //na minus czy na plus wzgledem uklad liniowy szczotki drucianej   0 - na minus, 1 - na plus rzad 1
0018e2 c01e      	RJMP _0x473
                 ; 0000 1037 
                 ; 0000 1038             a[1] = a[0]+0x001;  //ster2
                 ; 0000 1039             a[2] = a[4];        //ster4 ABS druciak
                 ; 0000 103A             a[6] = a[5]+0x001;  //okrag
                 ; 0000 103B             a[8] = a[6]+0x001;  //-delta okrag
                 ; 0000 103C 
                 ; 0000 103D     break;
                 ; 0000 103E 
                 ; 0000 103F 
                 ; 0000 1040      case 144:
                 _0x140:
0018e3 39e0      	CPI  R30,LOW(0x90)
0018e4 e0a0      	LDI  R26,HIGH(0x90)
0018e5 07fa      	CPC  R31,R26
0018e6 f569      	BRNE _0xB0
                 ; 0000 1041 
                 ; 0000 1042             a[0] = 0x066;   //ster1
0018e7 e6e6      	LDI  R30,LOW(102)
0018e8 e0f0      	LDI  R31,HIGH(102)
0018e9 940e 2d45 	CALL SUBOPT_0x3B
                 ; 0000 1043             a[3] = 0x11;    //ster4 INV druciak
0018eb 940e 2d4c 	CALL SUBOPT_0x3C
                 ; 0000 1044             a[4] = 0x1C;    //ster3 ABS krazek scierny
0018ed e1ac      	LDI  R26,LOW(28)
0018ee e0b0      	LDI  R27,HIGH(28)
                 _0x475:
0018ef 83a0      	STD  Z+0,R26
0018f0 83b1      	STD  Z+1,R27
                 ; 0000 1045             a[5] = 0x19C;   //delta okrag
                +
0018f1 e6ef     +LDI R30 , LOW ( _a + ( 10 ) )
0018f2 e0f5     +LDI R31 , HIGH ( _a + ( 10 ) )
                 	__POINTW1MN _a,10
0018f3 e9ac      	LDI  R26,LOW(412)
0018f4 e0b1      	LDI  R27,HIGH(412)
                 _0x474:
0018f5 83a0      	STD  Z+0,R26
0018f6 83b1      	STD  Z+1,R27
                 ; 0000 1046             a[7] = 0x12;    //ster3 INV krazek scierny
                +
0018f7 e7e3     +LDI R30 , LOW ( _a + ( 14 ) )
0018f8 e0f5     +LDI R31 , HIGH ( _a + ( 14 ) )
                 	__POINTW1MN _a,14
0018f9 e1a2      	LDI  R26,LOW(18)
0018fa e0b0      	LDI  R27,HIGH(18)
                 _0x472:
0018fb 83a0      	STD  Z+0,R26
0018fc 83b1      	STD  Z+1,R27
                 ; 0000 1047             a[9] = 1;     //na minus czy na plus wzgledem uklad liniowy szczotki drucianej   0 - na minus, 1 - na plus rzad 1
                +
0018fd e7e7     +LDI R30 , LOW ( _a + ( 18 ) )
0018fe e0f5     +LDI R31 , HIGH ( _a + ( 18 ) )
                 	__POINTW1MN _a,18
0018ff e0a1      	LDI  R26,LOW(1)
001900 e0b0      	LDI  R27,HIGH(1)
                 _0x473:
001901 83a0      	STD  Z+0,R26
001902 83b1      	STD  Z+1,R27
                 ; 0000 1048 
                 ; 0000 1049             a[1] = a[0]+0x001;  //ster2
001903 940e 2eec 	CALL SUBOPT_0x71
001905 9631      	ADIW R30,1
                +
001906 93e0 0567+STS _a + ( 2 ) , R30
001908 93f0 0568+STS _a + ( 2 ) + 1 , R31
                 	__PUTW1MN _a,2
                 ; 0000 104A             a[2] = a[4];        //ster4 ABS druciak
00190a 940e 2ef1 	CALL SUBOPT_0x72
                +
00190c 93e0 0569+STS _a + ( 4 ) , R30
00190e 93f0 056a+STS _a + ( 4 ) + 1 , R31
                 	__PUTW1MN _a,4
                 ; 0000 104B             a[6] = a[5]+0x001;  //okrag
001910 940e 2ef6 	CALL SUBOPT_0x73
001912 940e 2efb 	CALL SUBOPT_0x74
                 ; 0000 104C             a[8] = a[6]+0x001;  //-delta okrag
                 ; 0000 104D 
                 ; 0000 104E     break;
                 ; 0000 104F 
                 ; 0000 1050 
                 ; 0000 1051 }
                 _0xB0:
                 ; 0000 1052 
                 ; 0000 1053 if(predkosc_pion_szczotka == 50)   //zwolnienie predkosci pion
001914 91a0 057d 	LDS  R26,_predkosc_pion_szczotka
001916 91b0 057e 	LDS  R27,_predkosc_pion_szczotka+1
001918 97d2      	SBIW R26,50
001919 f439      	BRNE _0x142
                 ; 0000 1054        {
                 ; 0000 1055        a[3] = a[3] - 0x05;
00191a 940e 2f0a 	CALL SUBOPT_0x75
00191c 9735      	SBIW R30,5
                +
00191d 93e0 056b+STS _a + ( 6 ) , R30
00191f 93f0 056c+STS _a + ( 6 ) + 1 , R31
                 	__PUTW1MN _a,6
                 ; 0000 1056        }
                 ; 0000 1057 if(predkosc_pion_krazek == 50)   //zwolnienie predkosci pion
                 _0x142:
001921 91a0 057f 	LDS  R26,_predkosc_pion_krazek
001923 91b0 0580 	LDS  R27,_predkosc_pion_krazek+1
001925 97d2      	SBIW R26,50
001926 f449      	BRNE _0x143
                 ; 0000 1058        {
                 ; 0000 1059        a[7] = a[7] - 0x05;
                +
001927 91e0 0573+LDS R30 , _a + ( 14 )
001929 91f0 0574+LDS R31 , _a + ( 14 ) + 1
                 	__GETW1MN _a,14
00192b 9735      	SBIW R30,5
                +
00192c 93e0 0573+STS _a + ( 14 ) , R30
00192e 93f0 0574+STS _a + ( 14 ) + 1 , R31
                 	__PUTW1MN _a,14
                 ; 0000 105A        }
                 ; 0000 105B 
                 ; 0000 105C 
                 ; 0000 105D //if(wejscie_krazka_sciernego_w_pow_boczna_cylindra == 1 & predkosc_ruchow_po_okregu_krazek_scierny == 50)
                 ; 0000 105E     //{
                 ; 0000 105F     //nic
                 ; 0000 1060     //}
                 ; 0000 1061 
                 ; 0000 1062 
                 ; 0000 1063 if(wejscie_krazka_sciernego_w_pow_boczna_cylindra == 2 & predkosc_ruchow_po_okregu_krazek_scierny == 50)
                 _0x143:
001930 940e 2f0f 	CALL SUBOPT_0x76
001932 940e 2f14 	CALL SUBOPT_0x77
001934 e3e2      	LDI  R30,LOW(50)
001935 e0f0      	LDI  R31,HIGH(50)
001936 940e 3361 	CALL __EQW12
001938 21e0      	AND  R30,R0
001939 f039      	BREQ _0x144
                 ; 0000 1064     {
                 ; 0000 1065     a[5] = a[5] + 0x10;   //plus 16 dzesietnie
00193a 940e 2ef6 	CALL SUBOPT_0x73
00193c 9670      	ADIW R30,16
00193d 940e 2f1e 	CALL SUBOPT_0x78
                 ; 0000 1066     a[6] = a[5]+0x001;  //okrag
00193f 940e 2efb 	CALL SUBOPT_0x74
                 ; 0000 1067     a[8] = a[6]+0x001;  //-delta okrag
                 ; 0000 1068     }
                 ; 0000 1069 
                 ; 0000 106A if(wejscie_krazka_sciernego_w_pow_boczna_cylindra == 1 & predkosc_ruchow_po_okregu_krazek_scierny == 10)
                 _0x144:
001941 940e 2f0f 	CALL SUBOPT_0x76
001943 940e 2f23 	CALL SUBOPT_0x79
001945 2e0e      	MOV  R0,R30
001946 91a0 0583 	LDS  R26,_predkosc_ruchow_po_okregu_krazek_scierny
001948 91b0 0584 	LDS  R27,_predkosc_ruchow_po_okregu_krazek_scierny+1
00194a 940e 2f28 	CALL SUBOPT_0x7A
00194c f039      	BREQ _0x145
                 ; 0000 106B     {
                 ; 0000 106C     a[5] = a[5] + 0x20;   //plus 32 dzesietnie
00194d 940e 2ef6 	CALL SUBOPT_0x73
00194f 96b0      	ADIW R30,32
001950 940e 2f1e 	CALL SUBOPT_0x78
                 ; 0000 106D     a[6] = a[5]+0x001;  //okrag
001952 940e 2efb 	CALL SUBOPT_0x74
                 ; 0000 106E     a[8] = a[6]+0x001;  //-delta okrag
                 ; 0000 106F     }
                 ; 0000 1070 
                 ; 0000 1071 
                 ; 0000 1072 if(wejscie_krazka_sciernego_w_pow_boczna_cylindra == 2 & predkosc_ruchow_po_okregu_krazek_scierny == 10)
                 _0x145:
001954 940e 2f0f 	CALL SUBOPT_0x76
001956 940e 2f14 	CALL SUBOPT_0x77
001958 940e 2f28 	CALL SUBOPT_0x7A
00195a f039      	BREQ _0x146
                 ; 0000 1073     {
                 ; 0000 1074     a[5] = a[5] + 0x30;   //plus 48 dzesietnie
00195b 940e 2ef6 	CALL SUBOPT_0x73
00195d 96f0      	ADIW R30,48
00195e 940e 2f1e 	CALL SUBOPT_0x78
                 ; 0000 1075     a[6] = a[5]+0x001;  //okrag
001960 940e 2efb 	CALL SUBOPT_0x74
                 ; 0000 1076     a[8] = a[6]+0x001;  //-delta okrag
                 ; 0000 1077     }
                 ; 0000 1078 
                 ; 0000 1079 
                 ; 0000 107A 
                 ; 0000 107B 
                 ; 0000 107C 
                 ; 0000 107D 
                 ; 0000 107E 
                 ; 0000 107F 
                 ; 0000 1080      /*
                 ; 0000 1081         a[0] = 0x05A;   //ster1
                 ; 0000 1082             a[3] = 0x11;    //ster4 INV druciak
                 ; 0000 1083             a[4] = 0x21;    //ster3 ABS krazek scierny
                 ; 0000 1084             a[5] = 0x196;   //delta okrag
                 ; 0000 1085             a[7] = 0x12;    //ster3 INV krazek scierny
                 ; 0000 1086             a[9] = 0;       //na minus czy na plus wzgledem uklad liniowy szczotki drucianej   0 - na minus, 1 - na plus rzad 1
                 ; 0000 1087 
                 ; 0000 1088             a[1] = a[0]+0x001;  //ster2
                 ; 0000 1089             a[2] = a[4];        //ster4 ABS druciak
                 ; 0000 108A             a[6] = a[5]+0x001;  //okrag
                 ; 0000 108B             a[8] = a[6]+0x001;  //-delta okrag
                 ; 0000 108C         */
                 ; 0000 108D }
                 _0x146:
001962 9622      	ADIW R28,2
001963 9508      	RET
                 ;
                 ;
                 ;void wartosci_wstepne_panelu()
                 ; 0000 1091 {
                 _wartosci_wstepne_panelu:
                 ; 0000 1092                                                       //3040
                 ; 0000 1093 wartosc_parametru_panelu(szczotka_druciana_ilosc_cykli,48,64);  //wykonano zaciskow rzad1
001964 940e 2c81 	CALL SUBOPT_0x1D
001966 93fa      	ST   -Y,R31
001967 93ea      	ST   -Y,R30
001968 940e 2c2e 	CALL SUBOPT_0x11
00196a 940e 2f2e 	CALL SUBOPT_0x7B
                 ; 0000 1094                                                 //2090
                 ; 0000 1095 wartosc_parametru_panelu(krazek_scierny_ilosc_cykli,32,144);  //wykonano zaciskow rzad1
00196c 940e 2c86 	CALL SUBOPT_0x1E
00196e 940e 2f34 	CALL SUBOPT_0x7C
001970 940e 2c22 	CALL SUBOPT_0xF
001972 940e 04c5 	CALL _wartosc_parametru_panelu
                 ; 0000 1096                                                         //3000
                 ; 0000 1097 wartosc_parametru_panelu(krazek_scierny_cykl_po_okregu_ilosc,48,0);  //wykonano zaciskow rzad1
001974 940e 2c8b 	CALL SUBOPT_0x1F
001976 93fa      	ST   -Y,R31
001977 93ea      	ST   -Y,R30
001978 e3e0      	LDI  R30,LOW(48)
001979 e0f0      	LDI  R31,HIGH(48)
00197a 940e 2c1b 	CALL SUBOPT_0xE
00197c 940e 04c5 	CALL _wartosc_parametru_panelu
                 ; 0000 1098                                                 //2050
                 ; 0000 1099 wartosc_parametru_panelu(predkosc_pion_szczotka,32,80);
00197e 91e0 057d 	LDS  R30,_predkosc_pion_szczotka
001980 91f0 057e 	LDS  R31,_predkosc_pion_szczotka+1
001982 940e 2f34 	CALL SUBOPT_0x7C
001984 940e 2ced 	CALL SUBOPT_0x2E
001986 940e 04c5 	CALL _wartosc_parametru_panelu
                 ; 0000 109A                                                 //2060
                 ; 0000 109B wartosc_parametru_panelu(predkosc_pion_krazek,32,96);
001988 91e0 057f 	LDS  R30,_predkosc_pion_krazek
00198a 91f0 0580 	LDS  R31,_predkosc_pion_krazek+1
00198c 940e 2f34 	CALL SUBOPT_0x7C
00198e 940e 2cf2 	CALL SUBOPT_0x2F
001990 940e 04c5 	CALL _wartosc_parametru_panelu
                 ; 0000 109C                                                                        //3010
                 ; 0000 109D wartosc_parametru_panelu(wejscie_krazka_sciernego_w_pow_boczna_cylindra,48,16);
001992 91e0 0581 	LDS  R30,_wejscie_krazka_sciernego_w_pow_boczna_cylindra
001994 91f0 0582 	LDS  R31,_wejscie_krazka_sciernego_w_pow_boczna_cylindra+1
001996 93fa      	ST   -Y,R31
001997 93ea      	ST   -Y,R30
001998 e3e0      	LDI  R30,LOW(48)
001999 e0f0      	LDI  R31,HIGH(48)
00199a 940e 2c27 	CALL SUBOPT_0x10
00199c 940e 04c5 	CALL _wartosc_parametru_panelu
                 ; 0000 109E                                                                      //2070
                 ; 0000 109F wartosc_parametru_panelu(predkosc_ruchow_po_okregu_krazek_scierny,32,112);
00199e 91e0 0583 	LDS  R30,_predkosc_ruchow_po_okregu_krazek_scierny
0019a0 91f0 0584 	LDS  R31,_predkosc_ruchow_po_okregu_krazek_scierny+1
0019a2 940e 2f34 	CALL SUBOPT_0x7C
0019a4 940e 2ce8 	CALL SUBOPT_0x2D
0019a6 940e 04c5 	CALL _wartosc_parametru_panelu
                 ; 0000 10A0 
                 ; 0000 10A1 wartosc_parametru_panelu(czas_pracy_szczotki_drucianej_stala,16,112);
0019a8 940e 2c7c 	CALL SUBOPT_0x1C
0019aa 940e 2c27 	CALL SUBOPT_0x10
0019ac 940e 2ce8 	CALL SUBOPT_0x2D
0019ae 940e 04c5 	CALL _wartosc_parametru_panelu
                 ; 0000 10A2 
                 ; 0000 10A3 wartosc_parametru_panelu(czas_pracy_krazka_sciernego_stala,32,16);
0019b0 940e 2c77 	CALL SUBOPT_0x1B
0019b2 93fa      	ST   -Y,R31
0019b3 93ea      	ST   -Y,R30
0019b4 e2e0      	LDI  R30,LOW(32)
0019b5 e0f0      	LDI  R31,HIGH(32)
0019b6 940e 2c27 	CALL SUBOPT_0x10
0019b8 940e 04c5 	CALL _wartosc_parametru_panelu
                 ; 0000 10A4 
                 ; 0000 10A5 wartosc_parametru_panelu(czas_pracy_szczotki_drucianej_h,0,144);
0019ba 940e 2c00 	CALL SUBOPT_0x9
0019bc 940e 2c1b 	CALL SUBOPT_0xE
0019be 940e 2c22 	CALL SUBOPT_0xF
0019c0 940e 04c5 	CALL _wartosc_parametru_panelu
                 ; 0000 10A6 
                 ; 0000 10A7 wartosc_parametru_panelu(czas_pracy_krazka_sciernego_h,16,48);
0019c2 940e 2c0b 	CALL SUBOPT_0xB
0019c4 940e 2c27 	CALL SUBOPT_0x10
0019c6 940e 2c2e 	CALL SUBOPT_0x11
0019c8 940e 04c5 	CALL _wartosc_parametru_panelu
                 ; 0000 10A8 
                 ; 0000 10A9 }
0019ca 9508      	RET
                 ;
                 ;void wypozycjonuj_napedy_minimalistyczna()
                 ; 0000 10AC {
                 _wypozycjonuj_napedy_minimalistyczna:
                 ; 0000 10AD 
                 ; 0000 10AE while(start == 0)
                 _0x147:
0019cb 2c0c      	MOV  R0,R12
0019cc 280d      	OR   R0,R13
0019cd f4a1      	BRNE _0x149
                 ; 0000 10AF     {
                 ; 0000 10B0     komunikat_na_panel("                                                ",adr1,adr2);
0019ce 940e 2d01 	CALL SUBOPT_0x31
                 ; 0000 10B1     komunikat_na_panel("Nacisnij START aby wypozycjonowac napedy",adr1,adr2);
                +
0019d0 eee0     +LDI R30 , LOW ( 2 * _0x0 + ( 1344 ) )
0019d1 e0f5     +LDI R31 , HIGH ( 2 * _0x0 + ( 1344 ) )
                 	__POINTW1FN _0x0,1344
0019d2 940e 2d42 	CALL SUBOPT_0x3A
                 ; 0000 10B2     komunikat_na_panel("                                                ",adr3,adr4);
0019d4 940e 2f37 	CALL SUBOPT_0x7D
                 ; 0000 10B3     komunikat_na_panel("Nacisnij START aby wypozycjonowac napedy",adr3,adr4);
                +
0019d6 eee0     +LDI R30 , LOW ( 2 * _0x0 + ( 1344 ) )
0019d7 e0f5     +LDI R31 , HIGH ( 2 * _0x0 + ( 1344 ) )
                 	__POINTW1FN _0x0,1344
0019d8 940e 2f46 	CALL SUBOPT_0x7E
                 ; 0000 10B4     delay_ms(1000);
0019da 940e 2f53 	CALL SUBOPT_0x7F
                 ; 0000 10B5     start = odczytaj_parametr(0,64);
0019dc 940e 2cad 	CALL SUBOPT_0x24
0019de 940e 2cb2 	CALL SUBOPT_0x25
0019e0 016f      	MOVW R12,R30
                 ; 0000 10B6     }
0019e1 cfe9      	RJMP _0x147
                 _0x149:
                 ; 0000 10B7 
                 ; 0000 10B8 
                 ; 0000 10B9 while(sprawdz_pin0(PORTMM,0x77) == 1 | sprawdz_pin1(PORTMM,0x77) == 1)
                 _0x14A:
0019e2 940e 2ca3 	CALL SUBOPT_0x23
0019e4 940e 2f59 	CALL SUBOPT_0x80
0019e6 93ef      	PUSH R30
0019e7 940e 2ca3 	CALL SUBOPT_0x23
0019e9 940e 2f5f 	CALL SUBOPT_0x81
0019eb 91af      	POP  R26
0019ec 2bea      	OR   R30,R26
0019ed f7a1      	BRNE _0x14A
                 ; 0000 10BA     {
                 ; 0000 10BB     //krancowki
                 ; 0000 10BC     }
                 ; 0000 10BD 
                 ; 0000 10BE 
                 ; 0000 10BF PORTD.2 = 1;   //setup wspolny
0019ee 9a92      	SBI  0x12,2
                 ; 0000 10C0 delay_ms(1000);
0019ef 940e 2f53 	CALL SUBOPT_0x7F
                 ; 0000 10C1 
                 ; 0000 10C2 
                 ; 0000 10C3 
                 ; 0000 10C4 
                 ; 0000 10C5 while(sprawdz_pin3(PORTJJ,0x79) == 1 | sprawdz_pin3(PORTLL,0x71) == 1 |
                 _0x14F:
                 ; 0000 10C6       sprawdz_pin3(PORTKK,0x75) == 1 | sprawdz_pin7(PORTKK,0x75) == 1)
0019f1 940e 2cf7 	CALL SUBOPT_0x30
0019f3 940e 2f65 	CALL SUBOPT_0x82
0019f5 93ef      	PUSH R30
0019f6 940e 2f6b 	CALL SUBOPT_0x83
0019f8 940e 2f65 	CALL SUBOPT_0x82
0019fa 91af      	POP  R26
0019fb 2bea      	OR   R30,R26
0019fc 93ef      	PUSH R30
0019fd 940e 2f75 	CALL SUBOPT_0x84
0019ff 940e 2f65 	CALL SUBOPT_0x82
001a01 91af      	POP  R26
001a02 2bea      	OR   R30,R26
001a03 93ef      	PUSH R30
001a04 940e 2f75 	CALL SUBOPT_0x84
001a06 940e 2f7f 	CALL SUBOPT_0x85
001a08 91af      	POP  R26
001a09 2bea      	OR   R30,R26
001a0a f411      	BRNE PC+3
001a0b 940c 1abc 	JMP _0x151
                 ; 0000 10C7       {
                 ; 0000 10C8 
                 ; 0000 10C9       if(sprawdz_pin0(PORTMM,0x77) == 1 | sprawdz_pin1(PORTMM,0x77) == 1)
001a0d 940e 2ca3 	CALL SUBOPT_0x23
001a0f 940e 2f59 	CALL SUBOPT_0x80
001a11 93ef      	PUSH R30
001a12 940e 2ca3 	CALL SUBOPT_0x23
001a14 940e 2f5f 	CALL SUBOPT_0x81
001a16 91af      	POP  R26
001a17 2bea      	OR   R30,R26
001a18 f011      	BREQ _0x152
                 ; 0000 10CA         while(1)
                 _0x153:
                 ; 0000 10CB             {
                 ; 0000 10CC             PORTD.7 = 1;
001a19 9a97      	SBI  0x12,7
                 ; 0000 10CD             }
001a1a cffe      	RJMP _0x153
                 ; 0000 10CE 
                 ; 0000 10CF 
                 ; 0000 10D0       komunikat_na_panel("                                                ",adr1,adr2);
                 _0x152:
001a1b 940e 2d01 	CALL SUBOPT_0x31
                 ; 0000 10D1       komunikat_na_panel("Pozycjonuje uklady liniowe XYZ",adr1,adr2);
                +
001a1d e0e9     +LDI R30 , LOW ( 2 * _0x0 + ( 1385 ) )
001a1e e0f6     +LDI R31 , HIGH ( 2 * _0x0 + ( 1385 ) )
                 	__POINTW1FN _0x0,1385
001a1f 940e 2d42 	CALL SUBOPT_0x3A
                 ; 0000 10D2       komunikat_na_panel("                                                ",adr3,adr4);
001a21 940e 2f37 	CALL SUBOPT_0x7D
                 ; 0000 10D3       komunikat_na_panel("Pozycjonuje uklady liniowe XYZ",adr3,adr4);
                +
001a23 e0e9     +LDI R30 , LOW ( 2 * _0x0 + ( 1385 ) )
001a24 e0f6     +LDI R31 , HIGH ( 2 * _0x0 + ( 1385 ) )
                 	__POINTW1FN _0x0,1385
001a25 940e 2f46 	CALL SUBOPT_0x7E
                 ; 0000 10D4       delay_ms(1000);
001a27 940e 2f53 	CALL SUBOPT_0x7F
                 ; 0000 10D5 
                 ; 0000 10D6       if(sprawdz_pin3(PORTJJ,0x79) == 0)
001a29 940e 2cf7 	CALL SUBOPT_0x30
001a2b 940e 0419 	CALL _sprawdz_pin3
001a2d 30e0      	CPI  R30,0
001a2e f441      	BRNE _0x158
                 ; 0000 10D7             {
                 ; 0000 10D8             komunikat_na_panel("                                                ",adr1,adr2);
001a2f 940e 2d01 	CALL SUBOPT_0x31
                 ; 0000 10D9             komunikat_na_panel("Sterownik 1 - wypozycjonowalem",adr1,adr2);
                +
001a31 e2e8     +LDI R30 , LOW ( 2 * _0x0 + ( 1416 ) )
001a32 e0f6     +LDI R31 , HIGH ( 2 * _0x0 + ( 1416 ) )
                 	__POINTW1FN _0x0,1416
001a33 940e 2d42 	CALL SUBOPT_0x3A
                 ; 0000 10DA             delay_ms(1000);
001a35 940e 2f53 	CALL SUBOPT_0x7F
                 ; 0000 10DB             }
                 ; 0000 10DC       if(sprawdz_pin3(PORTLL,0x71) == 0)
                 _0x158:
001a37 940e 2f6b 	CALL SUBOPT_0x83
001a39 940e 0419 	CALL _sprawdz_pin3
001a3b 30e0      	CPI  R30,0
001a3c f441      	BRNE _0x159
                 ; 0000 10DD             {
                 ; 0000 10DE             komunikat_na_panel("                                                ",adr3,adr4);
001a3d 940e 2f37 	CALL SUBOPT_0x7D
                 ; 0000 10DF             komunikat_na_panel("Sterownik 2 - wypozycjonowalem",adr3,adr4);
                +
001a3f e4e7     +LDI R30 , LOW ( 2 * _0x0 + ( 1447 ) )
001a40 e0f6     +LDI R31 , HIGH ( 2 * _0x0 + ( 1447 ) )
                 	__POINTW1FN _0x0,1447
001a41 940e 2f46 	CALL SUBOPT_0x7E
                 ; 0000 10E0             delay_ms(1000);
001a43 940e 2f53 	CALL SUBOPT_0x7F
                 ; 0000 10E1             }
                 ; 0000 10E2       if(sprawdz_pin3(PORTKK,0x75) == 0)
                 _0x159:
001a45 940e 2f75 	CALL SUBOPT_0x84
001a47 940e 0419 	CALL _sprawdz_pin3
001a49 30e0      	CPI  R30,0
001a4a f441      	BRNE _0x15A
                 ; 0000 10E3             {
                 ; 0000 10E4             komunikat_na_panel("                                                ",adr1,adr2);
001a4b 940e 2d01 	CALL SUBOPT_0x31
                 ; 0000 10E5             komunikat_na_panel("Sterownik 3 - wypozycjonowalem",adr1,adr2);
                +
001a4d e6e6     +LDI R30 , LOW ( 2 * _0x0 + ( 1478 ) )
001a4e e0f6     +LDI R31 , HIGH ( 2 * _0x0 + ( 1478 ) )
                 	__POINTW1FN _0x0,1478
001a4f 940e 2d42 	CALL SUBOPT_0x3A
                 ; 0000 10E6             delay_ms(1000);
001a51 940e 2f53 	CALL SUBOPT_0x7F
                 ; 0000 10E7             }
                 ; 0000 10E8       if(sprawdz_pin7(PORTKK,0x75) == 0)
                 _0x15A:
001a53 940e 2f75 	CALL SUBOPT_0x84
001a55 940e 042e 	CALL _sprawdz_pin7
001a57 30e0      	CPI  R30,0
001a58 f441      	BRNE _0x15B
                 ; 0000 10E9             {
                 ; 0000 10EA             komunikat_na_panel("                                                ",adr3,adr4);
001a59 940e 2f37 	CALL SUBOPT_0x7D
                 ; 0000 10EB             komunikat_na_panel("Sterownik 4 - wypozycjonowalem",adr1,adr2);
                +
001a5b e8e5     +LDI R30 , LOW ( 2 * _0x0 + ( 1509 ) )
001a5c e0f6     +LDI R31 , HIGH ( 2 * _0x0 + ( 1509 ) )
                 	__POINTW1FN _0x0,1509
001a5d 940e 2d42 	CALL SUBOPT_0x3A
                 ; 0000 10EC             delay_ms(1000);
001a5f 940e 2f53 	CALL SUBOPT_0x7F
                 ; 0000 10ED             }
                 ; 0000 10EE 
                 ; 0000 10EF 
                 ; 0000 10F0 
                 ; 0000 10F1        if(sprawdz_pin7(PORTMM,0x77) == 1)
                 _0x15B:
001a61 940e 2ca3 	CALL SUBOPT_0x23
001a63 940e 042e 	CALL _sprawdz_pin7
001a65 30e1      	CPI  R30,LOW(0x1)
001a66 f409      	BRNE _0x15C
                 ; 0000 10F2             PORTD.7 = 1;
001a67 9a97      	SBI  0x12,7
                 ; 0000 10F3 
                 ; 0000 10F4       if(sprawdz_pin6(PORTMM,0x77) == 1 |
                 _0x15C:
                 ; 0000 10F5          sprawdz_pin7(PORTMM,0x77) == 1 |
                 ; 0000 10F6          sprawdz_pin5(PORTJJ,0x79) == 1 |
                 ; 0000 10F7          sprawdz_pin5(PORTLL,0x71) == 1)
001a68 940e 2ca3 	CALL SUBOPT_0x23
001a6a 940e 2f85 	CALL SUBOPT_0x86
001a6c 93ef      	PUSH R30
001a6d 940e 2ca3 	CALL SUBOPT_0x23
001a6f 940e 2f7f 	CALL SUBOPT_0x85
001a71 91af      	POP  R26
001a72 2bea      	OR   R30,R26
001a73 93ef      	PUSH R30
001a74 940e 2cf7 	CALL SUBOPT_0x30
001a76 940e 2f8b 	CALL SUBOPT_0x87
001a78 91af      	POP  R26
001a79 2bea      	OR   R30,R26
001a7a 93ef      	PUSH R30
001a7b 940e 2f6b 	CALL SUBOPT_0x83
001a7d 940e 2f8b 	CALL SUBOPT_0x87
001a7f 91af      	POP  R26
001a80 2bea      	OR   R30,R26
001a81 f1c9      	BREQ _0x15F
                 ; 0000 10F8             {
                 ; 0000 10F9             PORTD.7 = 1;
001a82 9a97      	SBI  0x12,7
                 ; 0000 10FA             if(sprawdz_pin6(PORTMM,0x77) == 1)
001a83 940e 2ca3 	CALL SUBOPT_0x23
001a85 940e 0429 	CALL _sprawdz_pin6
001a87 30e1      	CPI  R30,LOW(0x1)
001a88 f441      	BRNE _0x162
                 ; 0000 10FB                 {
                 ; 0000 10FC                 komunikat_na_panel("                                                ",adr1,adr2);
001a89 940e 2d01 	CALL SUBOPT_0x31
                 ; 0000 10FD                 komunikat_na_panel("Alarm Sterownik 4",adr1,adr2);
                +
001a8b eae4     +LDI R30 , LOW ( 2 * _0x0 + ( 1540 ) )
001a8c e0f6     +LDI R31 , HIGH ( 2 * _0x0 + ( 1540 ) )
                 	__POINTW1FN _0x0,1540
001a8d 940e 2d42 	CALL SUBOPT_0x3A
                 ; 0000 10FE                 delay_ms(1000);
001a8f 940e 2f53 	CALL SUBOPT_0x7F
                 ; 0000 10FF                 }
                 ; 0000 1100             if(sprawdz_pin7(PORTMM,0x77) == 1)
                 _0x162:
001a91 940e 2ca3 	CALL SUBOPT_0x23
001a93 940e 042e 	CALL _sprawdz_pin7
001a95 30e1      	CPI  R30,LOW(0x1)
001a96 f441      	BRNE _0x163
                 ; 0000 1101                 {
                 ; 0000 1102                 komunikat_na_panel("                                                ",adr1,adr2);
001a97 940e 2d01 	CALL SUBOPT_0x31
                 ; 0000 1103                 komunikat_na_panel("Alarm Sterownik 3",adr1,adr2);
                +
001a99 ebe6     +LDI R30 , LOW ( 2 * _0x0 + ( 1558 ) )
001a9a e0f6     +LDI R31 , HIGH ( 2 * _0x0 + ( 1558 ) )
                 	__POINTW1FN _0x0,1558
001a9b 940e 2d42 	CALL SUBOPT_0x3A
                 ; 0000 1104                 delay_ms(1000);
001a9d 940e 2f53 	CALL SUBOPT_0x7F
                 ; 0000 1105                 }
                 ; 0000 1106             if(sprawdz_pin5(PORTJJ,0x79) == 1)
                 _0x163:
001a9f 940e 2cf7 	CALL SUBOPT_0x30
001aa1 940e 0423 	CALL _sprawdz_pin5
001aa3 30e1      	CPI  R30,LOW(0x1)
001aa4 f441      	BRNE _0x164
                 ; 0000 1107                 {
                 ; 0000 1108                 komunikat_na_panel("                                                ",adr1,adr2);
001aa5 940e 2d01 	CALL SUBOPT_0x31
                 ; 0000 1109                 komunikat_na_panel("Alarm Sterownik 1",adr1,adr2);
                +
001aa7 ece8     +LDI R30 , LOW ( 2 * _0x0 + ( 1576 ) )
001aa8 e0f6     +LDI R31 , HIGH ( 2 * _0x0 + ( 1576 ) )
                 	__POINTW1FN _0x0,1576
001aa9 940e 2d42 	CALL SUBOPT_0x3A
                 ; 0000 110A                 delay_ms(1000);
001aab 940e 2f53 	CALL SUBOPT_0x7F
                 ; 0000 110B                 }
                 ; 0000 110C             if(sprawdz_pin5(PORTLL,0x71) == 1)
                 _0x164:
001aad 940e 2f6b 	CALL SUBOPT_0x83
001aaf 940e 0423 	CALL _sprawdz_pin5
001ab1 30e1      	CPI  R30,LOW(0x1)
001ab2 f441      	BRNE _0x165
                 ; 0000 110D                 {
                 ; 0000 110E                 komunikat_na_panel("                                                ",adr1,adr2);
001ab3 940e 2d01 	CALL SUBOPT_0x31
                 ; 0000 110F                 komunikat_na_panel("Alarm Sterownik 2",adr1,adr2);
                +
001ab5 edea     +LDI R30 , LOW ( 2 * _0x0 + ( 1594 ) )
001ab6 e0f6     +LDI R31 , HIGH ( 2 * _0x0 + ( 1594 ) )
                 	__POINTW1FN _0x0,1594
001ab7 940e 2d42 	CALL SUBOPT_0x3A
                 ; 0000 1110                 delay_ms(1000);
001ab9 940e 2f53 	CALL SUBOPT_0x7F
                 ; 0000 1111                 }
                 ; 0000 1112 
                 ; 0000 1113             }
                 _0x165:
                 ; 0000 1114 
                 ; 0000 1115       //sprawdz_pin6(PORTMM,0x77) ALARM STEROWNIK4
                 ; 0000 1116 //sprawdz_pin7(PORTMM,0x77) ALARM STEROWNIK3
                 ; 0000 1117       //sprawdz_pin5(PORTJJ,0x79)  ALARM  STEROWNIK1
                 ; 0000 1118        //sprawdz_pin5(PORTLL,0x71)  ALARM  STEROWNIK2
                 ; 0000 1119 
                 ; 0000 111A 
                 ; 0000 111B 
                 ; 0000 111C       }
                 _0x15F:
001abb cf35      	RJMP _0x14F
                 _0x151:
                 ; 0000 111D 
                 ; 0000 111E komunikat_na_panel("                                                ",adr1,adr2);
001abc 940e 2d01 	CALL SUBOPT_0x31
                 ; 0000 111F komunikat_na_panel("Wypozycjonowano uklady liniowe XYZ",adr1,adr2);
                +
001abe eeec     +LDI R30 , LOW ( 2 * _0x0 + ( 1612 ) )
001abf e0f6     +LDI R31 , HIGH ( 2 * _0x0 + ( 1612 ) )
                 	__POINTW1FN _0x0,1612
001ac0 940e 2d42 	CALL SUBOPT_0x3A
                 ; 0000 1120 komunikat_na_panel("                                                ",adr3,adr4);
001ac2 940e 2f37 	CALL SUBOPT_0x7D
                 ; 0000 1121 komunikat_na_panel("Wypozycjonowano uklady liniowe XYZ",adr3,adr4);
                +
001ac4 eeec     +LDI R30 , LOW ( 2 * _0x0 + ( 1612 ) )
001ac5 e0f6     +LDI R31 , HIGH ( 2 * _0x0 + ( 1612 ) )
                 	__POINTW1FN _0x0,1612
001ac6 940e 2f46 	CALL SUBOPT_0x7E
                 ; 0000 1122 
                 ; 0000 1123 PORTD.2 = 0;   //setup wspolny
001ac8 9892      	CBI  0x12,2
                 ; 0000 1124 delay_ms(1000);
001ac9 940e 2f53 	CALL SUBOPT_0x7F
                 ; 0000 1125 wartosc_parametru_panelu(0,0,64);  //start na 0;
001acb 940e 2f91 	CALL SUBOPT_0x88
001acd 940e 2f2e 	CALL SUBOPT_0x7B
                 ; 0000 1126 start = 0;
001acf 24cc      	CLR  R12
001ad0 24dd      	CLR  R13
                 ; 0000 1127 
                 ; 0000 1128 }
001ad1 9508      	RET
                 ;
                 ;int wypozycjonuj_LEFS32_300_1(int step)
                 ; 0000 112B {
                 ; 0000 112C //PORTF.0   IN0  STEROWNIK3
                 ; 0000 112D //PORTF.1   IN1  STEROWNIK3
                 ; 0000 112E //PORTF.2   IN2  STEROWNIK3
                 ; 0000 112F //PORTF.3   IN3  STEROWNIK3
                 ; 0000 1130 
                 ; 0000 1131 //PORTF.4   SETUP  STEROWNIK3
                 ; 0000 1132 //PORTF.5   DRIVE  STEROWNIK3
                 ; 0000 1133 
                 ; 0000 1134 //sprawdz_pin0(PORTKK,0x75)  B7 BUSY    LECCP STEROWNIK3
                 ; 0000 1135 //sprawdz_pin3(PORTKK,0x75)  B10 INP    LECP6 STEROWNIK3
                 ; 0000 1136 
                 ; 0000 1137 
                 ; 0000 1138 if(step == 0)
                 ;	step -> Y+0
                 ; 0000 1139 {
                 ; 0000 113A switch(pozycjonowanie_LEFS32_300_1)
                 ; 0000 113B     {
                 ; 0000 113C     case 0:
                 ; 0000 113D             PORT_F.bits.b4 = 1;      // ////A9  SETUP
                 ; 0000 113E             PORTF = PORT_F.byte;
                 ; 0000 113F 
                 ; 0000 1140             if(sprawdz_pin0(PORTKK,0x75) == 1)  //BUSY
                 ; 0000 1141                 {
                 ; 0000 1142                 }
                 ; 0000 1143             else
                 ; 0000 1144                 {
                 ; 0000 1145                 pozycjonowanie_LEFS32_300_1 = 1;
                 ; 0000 1146                 }
                 ; 0000 1147 
                 ; 0000 1148     break;
                 ; 0000 1149 
                 ; 0000 114A     case 1:
                 ; 0000 114B             if(sprawdz_pin0(PORTKK,0x75) == 0)
                 ; 0000 114C                 {
                 ; 0000 114D                 }
                 ; 0000 114E             else
                 ; 0000 114F                 {
                 ; 0000 1150                 pozycjonowanie_LEFS32_300_1 = 2;
                 ; 0000 1151                 }
                 ; 0000 1152             if(sprawdz_pin7(PORTMM,0x77) == 1)     //alarm
                 ; 0000 1153                    {
                 ; 0000 1154                    komunikat_na_panel("                                                ",adr1,adr2);
                 ; 0000 1155                    komunikat_na_panel("Przeciazenia LEFS32_1",adr1,adr2);
                 ; 0000 1156                    }
                 ; 0000 1157 
                 ; 0000 1158     break;
                 ; 0000 1159 
                 ; 0000 115A     case 2:
                 ; 0000 115B 
                 ; 0000 115C             if(sprawdz_pin3(PORTKK,0x75) == 1)
                 ; 0000 115D                 {
                 ; 0000 115E                 }
                 ; 0000 115F             else
                 ; 0000 1160                 {
                 ; 0000 1161                 pozycjonowanie_LEFS32_300_1 = 3;
                 ; 0000 1162                 }
                 ; 0000 1163              if(sprawdz_pin7(PORTMM,0x77) == 1)     //alarm
                 ; 0000 1164                    {
                 ; 0000 1165                    komunikat_na_panel("                                                ",adr1,adr2);
                 ; 0000 1166                    komunikat_na_panel("Przeciazenia LEFS32_1",adr1,adr2);
                 ; 0000 1167                    }
                 ; 0000 1168 
                 ; 0000 1169     break;
                 ; 0000 116A 
                 ; 0000 116B     case 3:
                 ; 0000 116C 
                 ; 0000 116D             if(sprawdz_pin3(PORTKK,0x75) == 0)
                 ; 0000 116E                 {
                 ; 0000 116F                 PORT_F.bits.b4 = 0;      // ////A9  SETUP
                 ; 0000 1170                 PORTF = PORT_F.byte;
                 ; 0000 1171                 pozycjonowanie_LEFS32_300_1 = 4;
                 ; 0000 1172 
                 ; 0000 1173                 }
                 ; 0000 1174 
                 ; 0000 1175     break;
                 ; 0000 1176 
                 ; 0000 1177     }
                 ; 0000 1178 }
                 ; 0000 1179 
                 ; 0000 117A 
                 ; 0000 117B 
                 ; 0000 117C if(step == 1)
                 ; 0000 117D {
                 ; 0000 117E while(cykl < 5)
                 ; 0000 117F {
                 ; 0000 1180     switch(cykl)
                 ; 0000 1181         {
                 ; 0000 1182         case 0:
                 ; 0000 1183 
                 ; 0000 1184             sek2 = 0;
                 ; 0000 1185             PORT_F.bits.b0 = 1;
                 ; 0000 1186             PORT_F.bits.b1 = 1;         //STEP 0
                 ; 0000 1187             PORT_F.bits.b2 = 1;
                 ; 0000 1188             PORT_F.bits.b3 = 1;
                 ; 0000 1189             PORTF = PORT_F.byte;
                 ; 0000 118A             cykl = 1;
                 ; 0000 118B 
                 ; 0000 118C 
                 ; 0000 118D         break;
                 ; 0000 118E 
                 ; 0000 118F         case 1:
                 ; 0000 1190 
                 ; 0000 1191             if(sek2 > 1)
                 ; 0000 1192                 {
                 ; 0000 1193                 PORT_F.bits.b5 = 1;
                 ; 0000 1194                 PORTF = PORT_F.byte;
                 ; 0000 1195                 cykl = 2;
                 ; 0000 1196                 delay_ms(1000);
                 ; 0000 1197                 }
                 ; 0000 1198         break;
                 ; 0000 1199 
                 ; 0000 119A 
                 ; 0000 119B         case 2:
                 ; 0000 119C 
                 ; 0000 119D                if(sprawdz_pin0(PORTKK,0x75) == 0)
                 ; 0000 119E                   {
                 ; 0000 119F                   PORT_F.bits.b5 = 0;
                 ; 0000 11A0                   PORTF = PORT_F.byte;       //DRIVE koniec
                 ; 0000 11A1 
                 ; 0000 11A2                   PORT_F.bits.b0 = 0;
                 ; 0000 11A3                   PORT_F.bits.b1 = 0;         //STEP 1 koniec
                 ; 0000 11A4                   PORT_F.bits.b2 = 0;
                 ; 0000 11A5                   PORT_F.bits.b3 = 0;
                 ; 0000 11A6                   PORTF = PORT_F.byte;
                 ; 0000 11A7 
                 ; 0000 11A8                   delay_ms(1000);
                 ; 0000 11A9                   cykl = 3;
                 ; 0000 11AA                   }
                 ; 0000 11AB 
                 ; 0000 11AC         break;
                 ; 0000 11AD 
                 ; 0000 11AE         case 3:
                 ; 0000 11AF 
                 ; 0000 11B0                if(sprawdz_pin3(PORTKK,0x75) == 0)
                 ; 0000 11B1                   {
                 ; 0000 11B2                   sek2 = 0;
                 ; 0000 11B3                   cykl = 4;
                 ; 0000 11B4                   }
                 ; 0000 11B5               if(sprawdz_pin7(PORTMM,0x77) == 1)     //alarm
                 ; 0000 11B6                    {
                 ; 0000 11B7                    komunikat_na_panel("                                                ",adr1,adr2);
                 ; 0000 11B8                    komunikat_na_panel("Przeciazenia LEFS32_1",adr1,adr2);
                 ; 0000 11B9                    }
                 ; 0000 11BA 
                 ; 0000 11BB         break;
                 ; 0000 11BC 
                 ; 0000 11BD 
                 ; 0000 11BE         case 4:
                 ; 0000 11BF 
                 ; 0000 11C0             if(sek2 > 50)
                 ; 0000 11C1                 {
                 ; 0000 11C2                 cykl = 5;
                 ; 0000 11C3                 }
                 ; 0000 11C4         break;
                 ; 0000 11C5 
                 ; 0000 11C6         }
                 ; 0000 11C7 }
                 ; 0000 11C8 
                 ; 0000 11C9 cykl = 0;
                 ; 0000 11CA }
                 ; 0000 11CB 
                 ; 0000 11CC 
                 ; 0000 11CD 
                 ; 0000 11CE 
                 ; 0000 11CF 
                 ; 0000 11D0 if(step == 0 & pozycjonowanie_LEFS32_300_1 == 4)
                 ; 0000 11D1     {
                 ; 0000 11D2     pozycjonowanie_LEFS32_300_1 = 0;
                 ; 0000 11D3     cykl = 0;
                 ; 0000 11D4     return 1;
                 ; 0000 11D5     }
                 ; 0000 11D6 if(step == 1)
                 ; 0000 11D7     return 2;
                 ; 0000 11D8 
                 ; 0000 11D9 
                 ; 0000 11DA 
                 ; 0000 11DB }
                 ;
                 ;
                 ;int wypozycjonuj_LEFS32_300_2(int step)
                 ; 0000 11DF {
                 ; 0000 11E0 //PORTB.0   IN0  STEROWNIK4
                 ; 0000 11E1 //PORTB.1   IN1  STEROWNIK4
                 ; 0000 11E2 //PORTB.2   IN2  STEROWNIK4
                 ; 0000 11E3 //PORTB.3   IN3  STEROWNIK4
                 ; 0000 11E4 
                 ; 0000 11E5 //PORTB.4   SETUP  STEROWNIK4
                 ; 0000 11E6 //PORTB.5   DRIVE  STEROWNIK4
                 ; 0000 11E7 
                 ; 0000 11E8 //sprawdz_pin4(PORTKK,0x75)  B7 BUSY    LECCP STEROWNIK4
                 ; 0000 11E9 //sprawdz_pin7(PORTKK,0x75)  B10 INP    LECP6 STEROWNIK4
                 ; 0000 11EA 
                 ; 0000 11EB 
                 ; 0000 11EC if(step == 0)
                 ;	step -> Y+0
                 ; 0000 11ED {
                 ; 0000 11EE switch(pozycjonowanie_LEFS32_300_2)
                 ; 0000 11EF     {
                 ; 0000 11F0     case 0:
                 ; 0000 11F1             PORTB.4 = 1;      // ////A9  SETUP
                 ; 0000 11F2 
                 ; 0000 11F3             if(sprawdz_pin4(PORTKK,0x75) == 1)  //BUSY
                 ; 0000 11F4                 {
                 ; 0000 11F5                 }
                 ; 0000 11F6             else
                 ; 0000 11F7                 pozycjonowanie_LEFS32_300_2 = 1;
                 ; 0000 11F8 
                 ; 0000 11F9     break;
                 ; 0000 11FA 
                 ; 0000 11FB     case 1:
                 ; 0000 11FC             if(sprawdz_pin4(PORTKK,0x75) == 0)
                 ; 0000 11FD                 {
                 ; 0000 11FE                 }
                 ; 0000 11FF             else
                 ; 0000 1200                 pozycjonowanie_LEFS32_300_2 = 2;
                 ; 0000 1201 
                 ; 0000 1202              if(sprawdz_pin6(PORTMM,0x77) == 1)     //alarm
                 ; 0000 1203                    {
                 ; 0000 1204                    komunikat_na_panel("                                                ",adr1,adr2);
                 ; 0000 1205                    komunikat_na_panel("Przeciazenia LEFS32_2",adr3,adr4);
                 ; 0000 1206                    }
                 ; 0000 1207 
                 ; 0000 1208     break;
                 ; 0000 1209 
                 ; 0000 120A     case 2:
                 ; 0000 120B 
                 ; 0000 120C             if(sprawdz_pin7(PORTKK,0x75) == 1)
                 ; 0000 120D                 {
                 ; 0000 120E                 }
                 ; 0000 120F             else
                 ; 0000 1210                 pozycjonowanie_LEFS32_300_2 = 3;
                 ; 0000 1211 
                 ; 0000 1212             if(sprawdz_pin6(PORTMM,0x77) == 1)     //alarm
                 ; 0000 1213                    {
                 ; 0000 1214                    komunikat_na_panel("                                                ",adr1,adr2);
                 ; 0000 1215                    komunikat_na_panel("Przeciazenia LEFS32_2",adr3,adr4);
                 ; 0000 1216                    }
                 ; 0000 1217 
                 ; 0000 1218     break;
                 ; 0000 1219 
                 ; 0000 121A     case 3:
                 ; 0000 121B 
                 ; 0000 121C             if(sprawdz_pin7(PORTKK,0x75) == 0)
                 ; 0000 121D                 {
                 ; 0000 121E                 PORTB.4 = 0;      // ////A9  SETUP
                 ; 0000 121F 
                 ; 0000 1220                 pozycjonowanie_LEFS32_300_2 = 4;
                 ; 0000 1221                 }
                 ; 0000 1222 
                 ; 0000 1223     break;
                 ; 0000 1224 
                 ; 0000 1225     }
                 ; 0000 1226 }
                 ; 0000 1227 
                 ; 0000 1228 if(step == 1)
                 ; 0000 1229 {
                 ; 0000 122A while(cykl < 5)
                 ; 0000 122B {
                 ; 0000 122C     switch(cykl)
                 ; 0000 122D         {
                 ; 0000 122E         case 0:
                 ; 0000 122F 
                 ; 0000 1230             sek4 = 0;
                 ; 0000 1231             PORTB.0 = 1;    //STEP 0
                 ; 0000 1232             PORTB.1 = 1;
                 ; 0000 1233             PORTB.2 = 1;
                 ; 0000 1234             PORTB.3 = 1;
                 ; 0000 1235 
                 ; 0000 1236             cykl = 1;
                 ; 0000 1237 
                 ; 0000 1238 
                 ; 0000 1239         break;
                 ; 0000 123A 
                 ; 0000 123B         case 1:
                 ; 0000 123C 
                 ; 0000 123D             if(sek4 > 1)
                 ; 0000 123E                 {
                 ; 0000 123F                 PORTB.5 = 1;
                 ; 0000 1240                 cykl = 2;
                 ; 0000 1241                 delay_ms(1000);
                 ; 0000 1242                 }
                 ; 0000 1243         break;
                 ; 0000 1244 
                 ; 0000 1245 
                 ; 0000 1246         case 2:
                 ; 0000 1247 
                 ; 0000 1248                if(sprawdz_pin4(PORTKK,0x75) == 0)
                 ; 0000 1249                   {
                 ; 0000 124A                   PORTB.5 = 0;
                 ; 0000 124B                       //DRIVE koniec
                 ; 0000 124C 
                 ; 0000 124D                   PORTB.0 = 0;    //STEP 0
                 ; 0000 124E                   PORTB.1 = 0;
                 ; 0000 124F                   PORTB.2 = 0;
                 ; 0000 1250                   PORTB.3 = 0;
                 ; 0000 1251 
                 ; 0000 1252 
                 ; 0000 1253                   delay_ms(1000);
                 ; 0000 1254                   cykl = 3;
                 ; 0000 1255                   }
                 ; 0000 1256 
                 ; 0000 1257         break;
                 ; 0000 1258 
                 ; 0000 1259         case 3:
                 ; 0000 125A 
                 ; 0000 125B                if(sprawdz_pin7(PORTKK,0x75) == 0)
                 ; 0000 125C                   {
                 ; 0000 125D                   sek4 = 0;
                 ; 0000 125E                   cykl = 4;
                 ; 0000 125F                   }
                 ; 0000 1260                if(sprawdz_pin6(PORTMM,0x77) == 1)     //alarm
                 ; 0000 1261                    {
                 ; 0000 1262                    komunikat_na_panel("                                                ",adr1,adr2);
                 ; 0000 1263                    komunikat_na_panel("Przeciazenia LEFS32_2",adr3,adr4);
                 ; 0000 1264                    }
                 ; 0000 1265 
                 ; 0000 1266 
                 ; 0000 1267         break;
                 ; 0000 1268 
                 ; 0000 1269 
                 ; 0000 126A         case 4:
                 ; 0000 126B 
                 ; 0000 126C             if(sek4 > 50)
                 ; 0000 126D                 cykl = 5;
                 ; 0000 126E         break;
                 ; 0000 126F 
                 ; 0000 1270         }
                 ; 0000 1271 }
                 ; 0000 1272 
                 ; 0000 1273 cykl = 0;
                 ; 0000 1274 }
                 ; 0000 1275 
                 ; 0000 1276 if(step == 0 & pozycjonowanie_LEFS32_300_2 == 4)
                 ; 0000 1277     {
                 ; 0000 1278     pozycjonowanie_LEFS32_300_2 = 0;
                 ; 0000 1279     cykl = 0;
                 ; 0000 127A     return 1;
                 ; 0000 127B     }
                 ; 0000 127C if(step == 1)
                 ; 0000 127D     return 2;
                 ; 0000 127E 
                 ; 0000 127F }
                 ;
                 ;
                 ;
                 ;
                 ;
                 ;
                 ;int wypozycjonuj_LEFS40_1200_2_i_300_2()
                 ; 0000 1287 {
                 ; 0000 1288 //PORTC.0   IN0  STEROWNIK2
                 ; 0000 1289 //PORTC.1   IN1  STEROWNIK2
                 ; 0000 128A //PORTC.2   IN2  STEROWNIK2
                 ; 0000 128B //PORTC.3   IN3  STEROWNIK2
                 ; 0000 128C //PORTC.4   IN4  STEROWNIK2
                 ; 0000 128D //PORTC.5   IN5  STEROWNIK2
                 ; 0000 128E //PORTC.6   IN6  STEROWNIK2
                 ; 0000 128F //PORTC.7   IN7  STEROWNIK2
                 ; 0000 1290 
                 ; 0000 1291 //PORTD.5  SETUP   STEROWNIK2
                 ; 0000 1292 //PORTD.6  DRIVE   STEROWNIK2
                 ; 0000 1293 
                 ; 0000 1294 //sprawdz_pin0(PORTLL,0x71)  BUSY   STEROWNIK2
                 ; 0000 1295 //sprawdz_pin3(PORTLL,0x71)  INP    STEROWNIK2
                 ; 0000 1296 
                 ; 0000 1297 PORTD.5 = 1;    //SETUP
                 ; 0000 1298 
                 ; 0000 1299 delay_ms(50);
                 ; 0000 129A 
                 ; 0000 129B while(sprawdz_pin0(PORTLL,0x71) == 1)  //kraze tu poki nie wywali busy
                 ; 0000 129C         {
                 ; 0000 129D 
                 ; 0000 129E                    if(sprawdz_pin5(PORTLL,0x71) == 1)     //alarm
                 ; 0000 129F                    {
                 ; 0000 12A0                    komunikat_na_panel("                                                ",adr1,adr2);
                 ; 0000 12A1                    komunikat_na_panel("Przeciazenia LEFS_XY_2",adr3,adr4);
                 ; 0000 12A2                    }
                 ; 0000 12A3 
                 ; 0000 12A4         }
                 ; 0000 12A5 
                 ; 0000 12A6 delay_ms(50);
                 ; 0000 12A7 
                 ; 0000 12A8 while(sprawdz_pin0(PORTLL,0x71) == 0)  //wywala busy
                 ; 0000 12A9         {
                 ; 0000 12AA 
                 ; 0000 12AB                    if(sprawdz_pin5(PORTLL,0x71) == 1)     //alarm
                 ; 0000 12AC                    {
                 ; 0000 12AD                    komunikat_na_panel("                                                ",adr1,adr2);
                 ; 0000 12AE                    komunikat_na_panel("Przeciazenia LEFS_XY_2",adr3,adr4);
                 ; 0000 12AF                    }
                 ; 0000 12B0         }
                 ; 0000 12B1 
                 ; 0000 12B2 delay_ms(50);
                 ; 0000 12B3 
                 ; 0000 12B4 while(sprawdz_pin3(PORTLL,0x71) == 1)  //kraze tu dopoki nie wywali INP
                 ; 0000 12B5         {
                 ; 0000 12B6         }
                 ; 0000 12B7 
                 ; 0000 12B8 delay_ms(50);
                 ; 0000 12B9 
                 ; 0000 12BA if(sprawdz_pin3(PORTLL,0x71) == 0)  //wywala INP
                 ; 0000 12BB         {
                 ; 0000 12BC         PORTD.5 = 0;
                 ; 0000 12BD         putchar(90);  //5A
                 ; 0000 12BE         putchar(165); //A5
                 ; 0000 12BF         putchar(3);//03  //znak dzwiekowy ze jestem
                 ; 0000 12C0         putchar(128);  //80
                 ; 0000 12C1         putchar(2);    //02
                 ; 0000 12C2         putchar(16);   //10
                 ; 0000 12C3         }
                 ; 0000 12C4 else
                 ; 0000 12C5     {
                 ; 0000 12C6         putchar(90);  //5A
                 ; 0000 12C7         putchar(165); //A5
                 ; 0000 12C8         putchar(3);//03  //znak dzwiekowy ze jestem
                 ; 0000 12C9         putchar(128);  //80
                 ; 0000 12CA         putchar(2);    //02
                 ; 0000 12CB         putchar(16);   //10
                 ; 0000 12CC 
                 ; 0000 12CD         delay_ms(1000);     //wywalenie bledu
                 ; 0000 12CE         delay_ms(1000);
                 ; 0000 12CF 
                 ; 0000 12D0         putchar(90);  //5A
                 ; 0000 12D1         putchar(165); //A5
                 ; 0000 12D2         putchar(3);//03  //znak dzwiekowy ze jestem
                 ; 0000 12D3         putchar(128);  //80
                 ; 0000 12D4         putchar(2);    //02
                 ; 0000 12D5         putchar(16);   //10
                 ; 0000 12D6 
                 ; 0000 12D7     }
                 ; 0000 12D8 
                 ; 0000 12D9 delay_ms(1000);
                 ; 0000 12DA 
                 ; 0000 12DB while(cykl < 5)
                 ; 0000 12DC {
                 ; 0000 12DD     switch(cykl)
                 ; 0000 12DE         {
                 ; 0000 12DF         case 0:
                 ; 0000 12E0 
                 ; 0000 12E1             PORTC = 0xFF;   //STEP 0
                 ; 0000 12E2             cykl = 1;
                 ; 0000 12E3 
                 ; 0000 12E4         break;
                 ; 0000 12E5 
                 ; 0000 12E6         case 1:
                 ; 0000 12E7 
                 ; 0000 12E8             if(sek3 > 1)
                 ; 0000 12E9                 {
                 ; 0000 12EA                 PORTD.6 = 1;  //DRIVE
                 ; 0000 12EB                 cykl = 2;
                 ; 0000 12EC                 }
                 ; 0000 12ED         break;
                 ; 0000 12EE 
                 ; 0000 12EF 
                 ; 0000 12F0         case 2:
                 ; 0000 12F1 
                 ; 0000 12F2                if(sprawdz_pin0(PORTLL,0x71) == 0)
                 ; 0000 12F3                   {
                 ; 0000 12F4                   PORTD.6 = 0;
                 ; 0000 12F5                   PORTC = 0x00;        //STEP 1 koniec
                 ; 0000 12F6                   cykl = 3;
                 ; 0000 12F7                   }
                 ; 0000 12F8 
                 ; 0000 12F9         break;
                 ; 0000 12FA 
                 ; 0000 12FB         case 3:
                 ; 0000 12FC 
                 ; 0000 12FD                if(sprawdz_pin3(PORTLL,0x71) == 0)
                 ; 0000 12FE                   {
                 ; 0000 12FF                   sek3 = 0;
                 ; 0000 1300                   cykl = 4;
                 ; 0000 1301                   }
                 ; 0000 1302 
                 ; 0000 1303                    if(sprawdz_pin5(PORTLL,0x71) == 1)     //alarm
                 ; 0000 1304                    {
                 ; 0000 1305                    komunikat_na_panel("                                                ",adr1,adr2);
                 ; 0000 1306                    komunikat_na_panel("Przeciazenia LEFS_XY_2",adr3,adr4);
                 ; 0000 1307                    }
                 ; 0000 1308 
                 ; 0000 1309 
                 ; 0000 130A         break;
                 ; 0000 130B 
                 ; 0000 130C 
                 ; 0000 130D         case 4:
                 ; 0000 130E 
                 ; 0000 130F             if(sek3 > 50)
                 ; 0000 1310                 cykl = 5;
                 ; 0000 1311         break;
                 ; 0000 1312 
                 ; 0000 1313         }
                 ; 0000 1314 }
                 ; 0000 1315 
                 ; 0000 1316 cykl = 0;
                 ; 0000 1317 return 1;
                 ; 0000 1318 }
                 ;
                 ;
                 ;
                 ;
                 ;int wypozycjonuj_LEFS40_1200_1_i_300_1()
                 ; 0000 131E {
                 ; 0000 131F //chyba nie wpiete A7
                 ; 0000 1320 
                 ; 0000 1321 //PORTA.0   IN0  STEROWNIK1
                 ; 0000 1322 //PORTA.1   IN1  STEROWNIK1
                 ; 0000 1323 //PORTA.2   IN2  STEROWNIK1
                 ; 0000 1324 //PORTA.3   IN3  STEROWNIK1
                 ; 0000 1325 //PORTA.4   IN4  STEROWNIK1
                 ; 0000 1326 //PORTA.5   IN5  STEROWNIK1
                 ; 0000 1327 //PORTA.6   IN6  STEROWNIK1
                 ; 0000 1328 //PORTA.7   IN7  STEROWNIK1
                 ; 0000 1329 
                 ; 0000 132A //PORTD.2  SETUP   STEROWNIK1
                 ; 0000 132B //PORTD.3  DRIVE   STEROWNIK1
                 ; 0000 132C 
                 ; 0000 132D //sprawdz_pin0(PORTJJ,0x79)  BUSY   STEROWNIK1
                 ; 0000 132E //sprawdz_pin3(PORTJJ,0x79)  INP    STEROWNIK1
                 ; 0000 132F 
                 ; 0000 1330 PORTD.2 = 1;    //SETUP
                 ; 0000 1331 
                 ; 0000 1332 delay_ms(50);
                 ; 0000 1333 
                 ; 0000 1334 while(sprawdz_pin0(PORTJJ,0x79) == 1)  //kraze tu poki nie wywali busy
                 ; 0000 1335         {
                 ; 0000 1336             if(sprawdz_pin5(PORTJJ,0x79) == 1)     //alarm
                 ; 0000 1337                    {
                 ; 0000 1338                    komunikat_na_panel("                                                ",adr1,adr2);
                 ; 0000 1339                    komunikat_na_panel("Przeciazenia LEFS_XY_1",adr1,adr2);
                 ; 0000 133A                    }
                 ; 0000 133B         }
                 ; 0000 133C 
                 ; 0000 133D delay_ms(50);
                 ; 0000 133E 
                 ; 0000 133F while(sprawdz_pin0(PORTJJ,0x79) == 0)  //wywala busy
                 ; 0000 1340         {
                 ; 0000 1341             if(sprawdz_pin5(PORTJJ,0x79) == 1)     //alarm
                 ; 0000 1342                    {
                 ; 0000 1343                    komunikat_na_panel("                                                ",adr1,adr2);
                 ; 0000 1344                    komunikat_na_panel("Przeciazenia LEFS_XY_1",adr1,adr2);
                 ; 0000 1345                    }
                 ; 0000 1346 
                 ; 0000 1347         }
                 ; 0000 1348 
                 ; 0000 1349 delay_ms(50);
                 ; 0000 134A 
                 ; 0000 134B while(sprawdz_pin3(PORTJJ,0x79) == 1)  //kraze tu dopoki nie wywali INP
                 ; 0000 134C         {
                 ; 0000 134D         }
                 ; 0000 134E 
                 ; 0000 134F delay_ms(50);
                 ; 0000 1350 
                 ; 0000 1351 if(sprawdz_pin3(PORTJJ,0x79) == 0)  //wywala INP
                 ; 0000 1352         {
                 ; 0000 1353         PORTD.2 = 0;
                 ; 0000 1354         putchar(90);  //5A
                 ; 0000 1355         putchar(165); //A5
                 ; 0000 1356         putchar(3);//03  //znak dzwiekowy ze jestem
                 ; 0000 1357         putchar(128);  //80
                 ; 0000 1358         putchar(2);    //02
                 ; 0000 1359         putchar(16);   //10
                 ; 0000 135A         }
                 ; 0000 135B else
                 ; 0000 135C     {
                 ; 0000 135D         putchar(90);  //5A
                 ; 0000 135E         putchar(165); //A5
                 ; 0000 135F         putchar(3);//03  //znak dzwiekowy ze jestem
                 ; 0000 1360         putchar(128);  //80
                 ; 0000 1361         putchar(2);    //02
                 ; 0000 1362         putchar(16);   //10
                 ; 0000 1363 
                 ; 0000 1364         delay_ms(1000);     //wywalenie bledu
                 ; 0000 1365         delay_ms(1000);
                 ; 0000 1366 
                 ; 0000 1367         putchar(90);  //5A
                 ; 0000 1368         putchar(165); //A5
                 ; 0000 1369         putchar(3);//03  //znak dzwiekowy ze jestem
                 ; 0000 136A         putchar(128);  //80
                 ; 0000 136B         putchar(2);    //02
                 ; 0000 136C         putchar(16);   //10
                 ; 0000 136D 
                 ; 0000 136E     }
                 ; 0000 136F 
                 ; 0000 1370 delay_ms(1000);
                 ; 0000 1371 
                 ; 0000 1372 while(cykl < 5)
                 ; 0000 1373 {
                 ; 0000 1374     switch(cykl)
                 ; 0000 1375         {
                 ; 0000 1376         case 0:
                 ; 0000 1377 
                 ; 0000 1378             PORTA = 0xFF;   //STEP 0
                 ; 0000 1379             cykl = 1;
                 ; 0000 137A 
                 ; 0000 137B         break;
                 ; 0000 137C 
                 ; 0000 137D         case 1:
                 ; 0000 137E 
                 ; 0000 137F             if(sek1 > 1)
                 ; 0000 1380                 {
                 ; 0000 1381                 PORTD.3 = 1;  //DRIVE
                 ; 0000 1382                 cykl = 2;
                 ; 0000 1383                 }
                 ; 0000 1384         break;
                 ; 0000 1385 
                 ; 0000 1386 
                 ; 0000 1387         case 2:
                 ; 0000 1388 
                 ; 0000 1389                if(sprawdz_pin0(PORTJJ,0x79) == 0)
                 ; 0000 138A                   {
                 ; 0000 138B                   PORTD.3 = 0;
                 ; 0000 138C                   PORTA = 0x00;        //STEP 1 koniec
                 ; 0000 138D                   cykl = 3;
                 ; 0000 138E                   }
                 ; 0000 138F 
                 ; 0000 1390         break;
                 ; 0000 1391 
                 ; 0000 1392         case 3:
                 ; 0000 1393 
                 ; 0000 1394                if(sprawdz_pin3(PORTJJ,0x79) == 0)
                 ; 0000 1395                   {
                 ; 0000 1396                   sek1 = 0;
                 ; 0000 1397                   cykl = 4;
                 ; 0000 1398                   }
                 ; 0000 1399 
                 ; 0000 139A                if(sprawdz_pin5(PORTJJ,0x79) == 1)     //alarm
                 ; 0000 139B                    {
                 ; 0000 139C                    komunikat_na_panel("                                                ",adr1,adr2);
                 ; 0000 139D                    komunikat_na_panel("Przeciazenia LEFS_XY_1",adr1,adr2);
                 ; 0000 139E                    }
                 ; 0000 139F 
                 ; 0000 13A0 
                 ; 0000 13A1         break;
                 ; 0000 13A2 
                 ; 0000 13A3 
                 ; 0000 13A4         case 4:
                 ; 0000 13A5 
                 ; 0000 13A6             if(sek1 > 50)
                 ; 0000 13A7                 cykl = 5;
                 ; 0000 13A8         break;
                 ; 0000 13A9 
                 ; 0000 13AA         }
                 ; 0000 13AB }
                 ; 0000 13AC 
                 ; 0000 13AD cykl = 0;
                 ; 0000 13AE return 1;
                 ; 0000 13AF }
                 ;
                 ;
                 ;
                 ;
                 ;
                 ;
                 ;
                 ;
                 ;
                 ;void wypozycjonuj_napedy()
                 ; 0000 13BA {
                 ; 0000 13BB //if(aaa == 0)
                 ; 0000 13BC //        {
                 ; 0000 13BD //        aaa = wypozycjonuj_LEFS40_1200_1_i_300_1();
                 ; 0000 13BE //        }
                 ; 0000 13BF if(bbb == 0)
                 ; 0000 13C0         {
                 ; 0000 13C1         bbb = wypozycjonuj_LEFS32_300_1(0);
                 ; 0000 13C2         }
                 ; 0000 13C3 if(bbb == 1)
                 ; 0000 13C4         {
                 ; 0000 13C5         bbb = wypozycjonuj_LEFS32_300_1(1);
                 ; 0000 13C6        }
                 ; 0000 13C7 
                 ; 0000 13C8 
                 ; 0000 13C9 //if(ccc == 0)
                 ; 0000 13CA //        {
                 ; 0000 13CB //        ccc = wypozycjonuj_LEFS40_1200_2_i_300_2();
                 ; 0000 13CC //        }
                 ; 0000 13CD //if(ddd == 0)
                 ; 0000 13CE //        {
                 ; 0000 13CF //        ddd = wypozycjonuj_LEFS32_300_2(0);
                 ; 0000 13D0 //       }
                 ; 0000 13D1 //if(ddd == 1)
                 ; 0000 13D2 //        {
                 ; 0000 13D3 //        ddd = wypozycjonuj_LEFS32_300_2(1);
                 ; 0000 13D4 //        }
                 ; 0000 13D5 
                 ; 0000 13D6 
                 ; 0000 13D7 
                 ; 0000 13D8 
                 ; 0000 13D9 
                 ; 0000 13DA 
                 ; 0000 13DB    /*
                 ; 0000 13DC 
                 ; 0000 13DD     if(ccc == 1 & bbb == 1)
                 ; 0000 13DE         ccc = wypozycjonuj_NL3_upgrade(1);
                 ; 0000 13DF 
                 ; 0000 13E0     if(bbb == 1 & ccc == 2)
                 ; 0000 13E1         bbb = wypozycjonuj_NL2_upgrade(1);
                 ; 0000 13E2 
                 ; 0000 13E3 
                 ; 0000 13E4     if(aaa == 1 & bbb == 2 & ccc == 2)
                 ; 0000 13E5         {
                 ; 0000 13E6         start = 1;
                 ; 0000 13E7         }
                 ; 0000 13E8 
                 ; 0000 13E9     */
                 ; 0000 13EA 
                 ; 0000 13EB //    if(aaa == 1 & bbb == 2 & ccc == 2 & ddd == 2)
                 ; 0000 13EC //        start = 1;
                 ; 0000 13ED 
                 ; 0000 13EE 
                 ; 0000 13EF }
                 ;
                 ;
                 ;
                 ;
                 ;void przerzucanie_dociskow()
                 ; 0000 13F5 {
                 _przerzucanie_dociskow:
                 ; 0000 13F6    if(sprawdz_pin6(PORTLL,0x71) == 0 & sprawdz_pin7(PORTLL,0x71) == 0 & czekaj_az_puszcze == 0)
001ad2 940e 2f6b 	CALL SUBOPT_0x83
001ad4 940e 0429 	CALL _sprawdz_pin6
001ad6 e0a0      	LDI  R26,LOW(0)
001ad7 940e 335c 	CALL __EQB12
001ad9 93ef      	PUSH R30
001ada 940e 2f6b 	CALL SUBOPT_0x83
001adc 940e 042e 	CALL _sprawdz_pin7
001ade e0a0      	LDI  R26,LOW(0)
001adf 940e 335c 	CALL __EQB12
001ae1 91af      	POP  R26
001ae2 940e 2f94 	CALL SUBOPT_0x89
001ae4 940e 2f9b 	CALL SUBOPT_0x8A
001ae6 21e0      	AND  R30,R0
001ae7 f031      	BREQ _0x214
                 ; 0000 13F7            {
                 ; 0000 13F8            czekaj_az_puszcze = 1;
001ae8 e0e1      	LDI  R30,LOW(1)
001ae9 e0f0      	LDI  R31,HIGH(1)
001aea 93e0 0561 	STS  _czekaj_az_puszcze,R30
001aec 93f0 0562 	STS  _czekaj_az_puszcze+1,R31
                 ; 0000 13F9            //PORTB.6 = 1;
                 ; 0000 13FA            }
                 ; 0000 13FB        if(sprawdz_pin6(PORTLL,0x71) == 1 & sprawdz_pin7(PORTLL,0x71) == 1 & czekaj_az_puszcze == 1)
                 _0x214:
001aee 940e 2f6b 	CALL SUBOPT_0x83
001af0 940e 2f85 	CALL SUBOPT_0x86
001af2 93ef      	PUSH R30
001af3 940e 2f6b 	CALL SUBOPT_0x83
001af5 940e 2f7f 	CALL SUBOPT_0x85
001af7 91af      	POP  R26
001af8 940e 2f94 	CALL SUBOPT_0x89
001afa 940e 2f23 	CALL SUBOPT_0x79
001afc 21e0      	AND  R30,R0
001afd f031      	BREQ _0x215
                 ; 0000 13FC            {
                 ; 0000 13FD            czekaj_az_puszcze = 2;
001afe e0e2      	LDI  R30,LOW(2)
001aff e0f0      	LDI  R31,HIGH(2)
001b00 93e0 0561 	STS  _czekaj_az_puszcze,R30
001b02 93f0 0562 	STS  _czekaj_az_puszcze+1,R31
                 ; 0000 13FE            //PORTB.6 = 0;
                 ; 0000 13FF            }
                 ; 0000 1400 
                 ; 0000 1401        if(czekaj_az_puszcze == 2 & PORTE.6 == 1)
                 _0x215:
001b04 940e 2fa0 	CALL SUBOPT_0x8B
001b06 e0e1      	LDI  R30,LOW(1)
001b07 940e 335c 	CALL __EQB12
001b09 21e0      	AND  R30,R0
001b0a f019      	BREQ _0x216
                 ; 0000 1402             {
                 ; 0000 1403             PORTE.6 = 0;
001b0b 981e      	CBI  0x3,6
                 ; 0000 1404             czekaj_az_puszcze = 0;
001b0c 940e 2fad 	CALL SUBOPT_0x8C
                 ; 0000 1405             delay_ms(100);
                 ; 0000 1406             }
                 ; 0000 1407 
                 ; 0000 1408        if(czekaj_az_puszcze == 2 & PORTE.6 == 0)
                 _0x216:
001b0e 940e 2fa0 	CALL SUBOPT_0x8B
001b10 e0e0      	LDI  R30,LOW(0)
001b11 940e 335c 	CALL __EQB12
001b13 21e0      	AND  R30,R0
001b14 f019      	BREQ _0x219
                 ; 0000 1409            {
                 ; 0000 140A             PORTE.6 = 1;
001b15 9a1e      	SBI  0x3,6
                 ; 0000 140B             czekaj_az_puszcze = 0;
001b16 940e 2fad 	CALL SUBOPT_0x8C
                 ; 0000 140C             delay_ms(100);
                 ; 0000 140D            }
                 ; 0000 140E 
                 ; 0000 140F }
                 _0x219:
001b18 9508      	RET
                 ;
                 ;void ostateczny_wybor_zacisku()
                 ; 0000 1412 {
                 _ostateczny_wybor_zacisku:
                 ; 0000 1413 int rzad;
                 ; 0000 1414 
                 ; 0000 1415   if(sek11 > 60) //co 1s sekunde sprawdzam   //jak co 40 to sie wywala
001b19 931a      	ST   -Y,R17
001b1a 930a      	ST   -Y,R16
                 ;	rzad -> R16,R17
001b1b 91a0 0521 	LDS  R26,_sek11
001b1d 91b0 0522 	LDS  R27,_sek11+1
001b1f 9180 0523 	LDS  R24,_sek11+2
001b21 9190 0524 	LDS  R25,_sek11+3
                +
001b23 33ad     +CPI R26 , LOW ( 0x3D )
001b24 e0e0     +LDI R30 , HIGH ( 0x3D )
001b25 07be     +CPC R27 , R30
001b26 e0e0     +LDI R30 , BYTE3 ( 0x3D )
001b27 078e     +CPC R24 , R30
001b28 e0e0     +LDI R30 , BYTE4 ( 0x3D )
001b29 079e     +CPC R25 , R30
                 	__CPD2N 0x3D
001b2a f414      	BRGE PC+3
001b2b 940c 1b75 	JMP _0x21C
                 ; 0000 1416         {
                 ; 0000 1417        sek11 = 0;
001b2d 940e 2fb8 	CALL SUBOPT_0x8D
                 ; 0000 1418        if(odczytalem_zacisk < il_prob_odczytu &
                 ; 0000 1419                                            (sprawdz_pin0(PORTHH,0x73) == 1 |
                 ; 0000 141A                                             sprawdz_pin1(PORTHH,0x73) == 1 |
                 ; 0000 141B                                             sprawdz_pin2(PORTHH,0x73) == 1 |
                 ; 0000 141C                                             sprawdz_pin3(PORTHH,0x73) == 1 |
                 ; 0000 141D                                             sprawdz_pin4(PORTHH,0x73) == 1 |
                 ; 0000 141E                                             sprawdz_pin5(PORTHH,0x73) == 1 |
                 ; 0000 141F                                             sprawdz_pin6(PORTHH,0x73) == 1 |
                 ; 0000 1420                                             sprawdz_pin7(PORTHH,0x73) == 1))
001b2f 01f5      	MOVW R30,R10
001b30 01d4      	MOVW R26,R8
001b31 940e 3373 	CALL __LTW12
001b33 93ef      	PUSH R30
001b34 940e 2d1b 	CALL SUBOPT_0x33
001b36 940e 2f59 	CALL SUBOPT_0x80
001b38 93ef      	PUSH R30
001b39 940e 2d1b 	CALL SUBOPT_0x33
001b3b 940e 2f5f 	CALL SUBOPT_0x81
001b3d 91af      	POP  R26
001b3e 2bea      	OR   R30,R26
001b3f 93ef      	PUSH R30
001b40 940e 2d1b 	CALL SUBOPT_0x33
001b42 940e 0414 	CALL _sprawdz_pin2
001b44 e0a1      	LDI  R26,LOW(1)
001b45 940e 335c 	CALL __EQB12
001b47 91af      	POP  R26
001b48 2bea      	OR   R30,R26
001b49 93ef      	PUSH R30
001b4a 940e 2d1b 	CALL SUBOPT_0x33
001b4c 940e 2f65 	CALL SUBOPT_0x82
001b4e 91af      	POP  R26
001b4f 2bea      	OR   R30,R26
001b50 93ef      	PUSH R30
001b51 940e 2d1b 	CALL SUBOPT_0x33
001b53 940e 041f 	CALL _sprawdz_pin4
001b55 e0a1      	LDI  R26,LOW(1)
001b56 940e 335c 	CALL __EQB12
001b58 91af      	POP  R26
001b59 2bea      	OR   R30,R26
001b5a 93ef      	PUSH R30
001b5b 940e 2d1b 	CALL SUBOPT_0x33
001b5d 940e 2f8b 	CALL SUBOPT_0x87
001b5f 91af      	POP  R26
001b60 2bea      	OR   R30,R26
001b61 93ef      	PUSH R30
001b62 940e 2d1b 	CALL SUBOPT_0x33
001b64 940e 2f85 	CALL SUBOPT_0x86
001b66 91af      	POP  R26
001b67 2bea      	OR   R30,R26
001b68 93ef      	PUSH R30
001b69 940e 2d1b 	CALL SUBOPT_0x33
001b6b 940e 2f7f 	CALL SUBOPT_0x85
001b6d 91af      	POP  R26
001b6e 2bea      	OR   R30,R26
001b6f 91af      	POP  R26
001b70 23ea      	AND  R30,R26
001b71 f019      	BREQ _0x21D
                 ; 0000 1421         {
                 ; 0000 1422         odczytalem_zacisk++;
001b72 01f4      	MOVW R30,R8
001b73 9631      	ADIW R30,1
001b74 014f      	MOVW R8,R30
                 ; 0000 1423         }
                 ; 0000 1424         }
                 _0x21D:
                 ; 0000 1425 
                 ; 0000 1426 if(odczytalem_zacisk == il_prob_odczytu)
                 _0x21C:
                +
001b75 14a8     +CP R10 , R8
001b76 04b9     +CPC R11 , R9
                 	__CPWRR 10,11,8,9
001b77 f4f1      	BRNE _0x21E
                 ; 0000 1427         {
                 ; 0000 1428         //PORTB = 0xFF;
                 ; 0000 1429         rzad = odczyt_wybranego_zacisku();
001b78 940e 0644 	CALL _odczyt_wybranego_zacisku
001b7a 018f      	MOVW R16,R30
                 ; 0000 142A         //sek10 = 0;
                 ; 0000 142B         sek11 = 0;    //nowe
001b7b 940e 2fb8 	CALL SUBOPT_0x8D
                 ; 0000 142C         odczytalem_zacisk++;
001b7d 01f4      	MOVW R30,R8
001b7e 9631      	ADIW R30,1
001b7f 014f      	MOVW R8,R30
                 ; 0000 142D         if(rzad == 1)
001b80 e0e1      	LDI  R30,LOW(1)
001b81 e0f0      	LDI  R31,HIGH(1)
001b82 17e0      	CP   R30,R16
001b83 07f1      	CPC  R31,R17
001b84 f431      	BRNE _0x21F
                 ; 0000 142E             wartosc_parametru_panelu(2,32,128);
001b85 e0e2      	LDI  R30,LOW(2)
001b86 e0f0      	LDI  R31,HIGH(2)
001b87 940e 2f34 	CALL SUBOPT_0x7C
001b89 940e 2fc2 	CALL SUBOPT_0x8E
                 ; 0000 142F         if(rzad == 2)
                 _0x21F:
001b8b e0e2      	LDI  R30,LOW(2)
001b8c e0f0      	LDI  R31,HIGH(2)
001b8d 17e0      	CP   R30,R16
001b8e 07f1      	CPC  R31,R17
001b8f f431      	BRNE _0x220
                 ; 0000 1430             wartosc_parametru_panelu(1,32,128);
001b90 e0e1      	LDI  R30,LOW(1)
001b91 e0f0      	LDI  R31,HIGH(1)
001b92 940e 2f34 	CALL SUBOPT_0x7C
001b94 940e 2fc2 	CALL SUBOPT_0x8E
                 ; 0000 1431 
                 ; 0000 1432         }                                     //& sek10 > 1                //3s po odczytaniu dopiero sprawdzam port
                 _0x220:
                 ; 0000 1433 if((odczytalem_zacisk == il_prob_odczytu + 1))        //183
                 _0x21E:
001b96 01f5      	MOVW R30,R10
001b97 9631      	ADIW R30,1
001b98 15e8      	CP   R30,R8
001b99 05f9      	CPC  R31,R9
001b9a f411      	BRNE _0x221
                 ; 0000 1434         {
                 ; 0000 1435         odczytalem_zacisk = 0;
001b9b 2488      	CLR  R8
001b9c 2499      	CLR  R9
                 ; 0000 1436         }
                 ; 0000 1437 }
                 _0x221:
001b9d 9109      	LD   R16,Y+
001b9e 9119      	LD   R17,Y+
001b9f 9508      	RET
                 ;
                 ;
                 ;
                 ;int sterownik_1_praca(int PORT)
                 ; 0000 143C {
                 _sterownik_1_praca:
                 ; 0000 143D //PORTA.0   IN0  STEROWNIK1
                 ; 0000 143E //PORTA.1   IN1  STEROWNIK1
                 ; 0000 143F //PORTA.2   IN2  STEROWNIK1
                 ; 0000 1440 //PORTA.3   IN3  STEROWNIK1
                 ; 0000 1441 //PORTA.4   IN4  STEROWNIK1
                 ; 0000 1442 //PORTA.5   IN5  STEROWNIK1
                 ; 0000 1443 //PORTA.6   IN6  STEROWNIK1
                 ; 0000 1444 //PORTA.7   IN7  STEROWNIK1
                 ; 0000 1445 //PORTD.4   IN8 STEROWNIK1
                 ; 0000 1446 
                 ; 0000 1447 //PORTD.2  SETUP   STEROWNIK1
                 ; 0000 1448 //PORTD.3  DRIVE   STEROWNIK1
                 ; 0000 1449 
                 ; 0000 144A //sprawdz_pin0(PORTJJ,0x79)  BUSY   STEROWNIK1
                 ; 0000 144B //sprawdz_pin3(PORTJJ,0x79)  INP    STEROWNIK1
                 ; 0000 144C 
                 ; 0000 144D if(sprawdz_pin5(PORTJJ,0x79) == 1)
                 ;	PORT -> Y+0
001ba0 940e 2cf7 	CALL SUBOPT_0x30
001ba2 940e 0423 	CALL _sprawdz_pin5
001ba4 30e1      	CPI  R30,LOW(0x1)
001ba5 f419      	BRNE _0x222
                 ; 0000 144E     {
                 ; 0000 144F     PORTD.7 = 1;
001ba6 9a97      	SBI  0x12,7
                 ; 0000 1450     PORTE.2 = 0;
001ba7 981a      	CBI  0x3,2
                 ; 0000 1451     PORTE.3 = 0;  //szlifierki stop
001ba8 981b      	CBI  0x3,3
                 ; 0000 1452     }
                 ; 0000 1453 
                 ; 0000 1454 switch(cykl_sterownik_1)
                 _0x222:
001ba9 91e0 0535 	LDS  R30,_cykl_sterownik_1
001bab 91f0 0536 	LDS  R31,_cykl_sterownik_1+1
                 ; 0000 1455         {
                 ; 0000 1456         case 0:
001bad 9730      	SBIW R30,0
001bae f011      	BREQ PC+3
001baf 940c 1bf6 	JMP _0x22C
                 ; 0000 1457 
                 ; 0000 1458             sek1 = 0;
001bb1 940e 2fc8 	CALL SUBOPT_0x8F
                 ; 0000 1459             PORT_STER1.byte = PORT;
001bb3 81e8      	LD   R30,Y
001bb4 93e0 0509 	STS  _PORT_STER1,R30
                 ; 0000 145A             PORTA.0 = PORT_STER1.bits.b0;
001bb6 70e1      	ANDI R30,LOW(0x1)
001bb7 f411      	BRNE _0x22D
001bb8 98d8      	CBI  0x1B,0
001bb9 c001      	RJMP _0x22E
                 _0x22D:
001bba 9ad8      	SBI  0x1B,0
                 _0x22E:
                 ; 0000 145B             PORTA.1 = PORT_STER1.bits.b1;
001bbb 91e0 0509 	LDS  R30,_PORT_STER1
001bbd 70e2      	ANDI R30,LOW(0x2)
001bbe f411      	BRNE _0x22F
001bbf 98d9      	CBI  0x1B,1
001bc0 c001      	RJMP _0x230
                 _0x22F:
001bc1 9ad9      	SBI  0x1B,1
                 _0x230:
                 ; 0000 145C             PORTA.2 = PORT_STER1.bits.b2;
001bc2 91e0 0509 	LDS  R30,_PORT_STER1
001bc4 70e4      	ANDI R30,LOW(0x4)
001bc5 f411      	BRNE _0x231
001bc6 98da      	CBI  0x1B,2
001bc7 c001      	RJMP _0x232
                 _0x231:
001bc8 9ada      	SBI  0x1B,2
                 _0x232:
                 ; 0000 145D             PORTA.3 = PORT_STER1.bits.b3;
001bc9 91e0 0509 	LDS  R30,_PORT_STER1
001bcb 70e8      	ANDI R30,LOW(0x8)
001bcc f411      	BRNE _0x233
001bcd 98db      	CBI  0x1B,3
001bce c001      	RJMP _0x234
                 _0x233:
001bcf 9adb      	SBI  0x1B,3
                 _0x234:
                 ; 0000 145E             PORTA.4 = PORT_STER1.bits.b4;
001bd0 91e0 0509 	LDS  R30,_PORT_STER1
001bd2 71e0      	ANDI R30,LOW(0x10)
001bd3 f411      	BRNE _0x235
001bd4 98dc      	CBI  0x1B,4
001bd5 c001      	RJMP _0x236
                 _0x235:
001bd6 9adc      	SBI  0x1B,4
                 _0x236:
                 ; 0000 145F             PORTA.5 = PORT_STER1.bits.b5;
001bd7 91e0 0509 	LDS  R30,_PORT_STER1
001bd9 72e0      	ANDI R30,LOW(0x20)
001bda f411      	BRNE _0x237
001bdb 98dd      	CBI  0x1B,5
001bdc c001      	RJMP _0x238
                 _0x237:
001bdd 9add      	SBI  0x1B,5
                 _0x238:
                 ; 0000 1460             PORTA.6 = PORT_STER1.bits.b6;
001bde 91e0 0509 	LDS  R30,_PORT_STER1
001be0 74e0      	ANDI R30,LOW(0x40)
001be1 f411      	BRNE _0x239
001be2 98de      	CBI  0x1B,6
001be3 c001      	RJMP _0x23A
                 _0x239:
001be4 9ade      	SBI  0x1B,6
                 _0x23A:
                 ; 0000 1461             PORTA.7 = PORT_STER1.bits.b7;
001be5 91e0 0509 	LDS  R30,_PORT_STER1
001be7 78e0      	ANDI R30,LOW(0x80)
001be8 f411      	BRNE _0x23B
001be9 98df      	CBI  0x1B,7
001bea c001      	RJMP _0x23C
                 _0x23B:
001beb 9adf      	SBI  0x1B,7
                 _0x23C:
                 ; 0000 1462 
                 ; 0000 1463             if(PORT > 0x0FF)
001bec 81a8      	LD   R26,Y
001bed 81b9      	LDD  R27,Y+1
001bee 30a0      	CPI  R26,LOW(0x100)
001bef e0e1      	LDI  R30,HIGH(0x100)
001bf0 07be      	CPC  R27,R30
001bf1 f00c      	BRLT _0x23D
                 ; 0000 1464                 PORTD.4 = 1;
001bf2 9a94      	SBI  0x12,4
                 ; 0000 1465 
                 ; 0000 1466 
                 ; 0000 1467 
                 ; 0000 1468             cykl_sterownik_1 = 1;
                 _0x23D:
001bf3 e0e1      	LDI  R30,LOW(1)
001bf4 e0f0      	LDI  R31,HIGH(1)
001bf5 c047      	RJMP _0x47C
                 ; 0000 1469 
                 ; 0000 146A         break;
                 ; 0000 146B 
                 ; 0000 146C         case 1:
                 _0x22C:
001bf6 30e1      	CPI  R30,LOW(0x1)
001bf7 e0a0      	LDI  R26,HIGH(0x1)
001bf8 07fa      	CPC  R31,R26
001bf9 f489      	BRNE _0x240
                 ; 0000 146D 
                 ; 0000 146E             if(sek1 > 1)
001bfa 91a0 0511 	LDS  R26,_sek1
001bfc 91b0 0512 	LDS  R27,_sek1+1
001bfe 9180 0513 	LDS  R24,_sek1+2
001c00 9190 0514 	LDS  R25,_sek1+3
001c02 940e 2fd2 	CALL SUBOPT_0x90
001c04 f02c      	BRLT _0x241
                 ; 0000 146F                 {
                 ; 0000 1470 
                 ; 0000 1471                 PORTD.3 = 1;
001c05 9a93      	SBI  0x12,3
                 ; 0000 1472                 cykl_sterownik_1 = 2;
001c06 e0e2      	LDI  R30,LOW(2)
001c07 e0f0      	LDI  R31,HIGH(2)
001c08 940e 2fda 	CALL SUBOPT_0x91
                 ; 0000 1473                 }
                 ; 0000 1474         break;
                 _0x241:
001c0a c036      	RJMP _0x22B
                 ; 0000 1475 
                 ; 0000 1476 
                 ; 0000 1477         case 2:
                 _0x240:
001c0b 30e2      	CPI  R30,LOW(0x2)
001c0c e0a0      	LDI  R26,HIGH(0x2)
001c0d 07fa      	CPC  R31,R26
001c0e f489      	BRNE _0x244
                 ; 0000 1478 
                 ; 0000 1479                if(sprawdz_pin0(PORTJJ,0x79) == 0)     //busy
001c0f 940e 2cf7 	CALL SUBOPT_0x30
001c11 940e 040d 	CALL _sprawdz_pin0
001c13 30e0      	CPI  R30,0
001c14 f451      	BRNE _0x245
                 ; 0000 147A                   {
                 ; 0000 147B 
                 ; 0000 147C                   PORTD.3 = 0;
001c15 9893      	CBI  0x12,3
                 ; 0000 147D                   PORTA = 0x00;
001c16 e0e0      	LDI  R30,LOW(0)
001c17 bbeb      	OUT  0x1B,R30
                 ; 0000 147E                   PORTD.4 = 0;
001c18 9894      	CBI  0x12,4
                 ; 0000 147F                   sek1 = 0;
001c19 940e 2fc8 	CALL SUBOPT_0x8F
                 ; 0000 1480                   cykl_sterownik_1 = 3;
001c1b e0e3      	LDI  R30,LOW(3)
001c1c e0f0      	LDI  R31,HIGH(3)
001c1d 940e 2fda 	CALL SUBOPT_0x91
                 ; 0000 1481                   }
                 ; 0000 1482 
                 ; 0000 1483         break;
                 _0x245:
001c1f c021      	RJMP _0x22B
                 ; 0000 1484 
                 ; 0000 1485         case 3:
                 _0x244:
001c20 30e3      	CPI  R30,LOW(0x3)
001c21 e0a0      	LDI  R26,HIGH(0x3)
001c22 07fa      	CPC  R31,R26
001c23 f469      	BRNE _0x24A
                 ; 0000 1486 
                 ; 0000 1487                if(sprawdz_pin3(PORTJJ,0x79) == 0)
001c24 940e 2cf7 	CALL SUBOPT_0x30
001c26 940e 0419 	CALL _sprawdz_pin3
001c28 30e0      	CPI  R30,0
001c29 f431      	BRNE _0x24B
                 ; 0000 1488                   {
                 ; 0000 1489 
                 ; 0000 148A                   sek1 = 0;
001c2a 940e 2fc8 	CALL SUBOPT_0x8F
                 ; 0000 148B                   cykl_sterownik_1 = 4;
001c2c e0e4      	LDI  R30,LOW(4)
001c2d e0f0      	LDI  R31,HIGH(4)
001c2e 940e 2fda 	CALL SUBOPT_0x91
                 ; 0000 148C                   }
                 ; 0000 148D 
                 ; 0000 148E 
                 ; 0000 148F         break;
                 _0x24B:
001c30 c010      	RJMP _0x22B
                 ; 0000 1490 
                 ; 0000 1491 
                 ; 0000 1492         case 4:
                 _0x24A:
001c31 30e4      	CPI  R30,LOW(0x4)
001c32 e0a0      	LDI  R26,HIGH(0x4)
001c33 07fa      	CPC  R31,R26
001c34 f461      	BRNE _0x22B
                 ; 0000 1493 
                 ; 0000 1494             if(sprawdz_pin0(PORTJJ,0x79) == 1)
001c35 940e 2cf7 	CALL SUBOPT_0x30
001c37 940e 040d 	CALL _sprawdz_pin0
001c39 30e1      	CPI  R30,LOW(0x1)
001c3a f431      	BRNE _0x24D
                 ; 0000 1495                 {
                 ; 0000 1496 
                 ; 0000 1497                 cykl_sterownik_1 = 5;
001c3b e0e5      	LDI  R30,LOW(5)
001c3c e0f0      	LDI  R31,HIGH(5)
                 _0x47C:
001c3d 93e0 0535 	STS  _cykl_sterownik_1,R30
001c3f 93f0 0536 	STS  _cykl_sterownik_1+1,R31
                 ; 0000 1498                 }
                 ; 0000 1499         break;
                 _0x24D:
                 ; 0000 149A 
                 ; 0000 149B         }
                 _0x22B:
                 ; 0000 149C 
                 ; 0000 149D return cykl_sterownik_1;
001c41 91e0 0535 	LDS  R30,_cykl_sterownik_1
001c43 91f0 0536 	LDS  R31,_cykl_sterownik_1+1
001c45 c208      	RJMP _0x20A0001
                 ; 0000 149E }
                 ;
                 ;
                 ;int sterownik_2_praca(int PORT)
                 ; 0000 14A2 {
                 _sterownik_2_praca:
                 ; 0000 14A3 //PORTC.0   IN0  STEROWNIK2
                 ; 0000 14A4 //PORTC.1   IN1  STEROWNIK2
                 ; 0000 14A5 //PORTC.2   IN2  STEROWNIK2
                 ; 0000 14A6 //PORTC.3   IN3  STEROWNIK2
                 ; 0000 14A7 //PORTC.4   IN4  STEROWNIK2
                 ; 0000 14A8 //PORTC.5   IN5  STEROWNIK2
                 ; 0000 14A9 //PORTC.6   IN6  STEROWNIK2
                 ; 0000 14AA //PORTC.7   IN7  STEROWNIK2
                 ; 0000 14AB //PORTD.5   IN8 STEROWNIK2
                 ; 0000 14AC 
                 ; 0000 14AD 
                 ; 0000 14AE //PORTD.5  SETUP   STEROWNIK2
                 ; 0000 14AF //PORTD.6  DRIVE   STEROWNIK2
                 ; 0000 14B0 
                 ; 0000 14B1 //sprawdz_pin0(PORTLL,0x71)  BUSY   STEROWNIK2
                 ; 0000 14B2 //sprawdz_pin3(PORTLL,0x71)  INP    STEROWNIK2
                 ; 0000 14B3 
                 ; 0000 14B4  if(sprawdz_pin5(PORTLL,0x71) == 1)
                 ;	PORT -> Y+0
001c46 940e 2f6b 	CALL SUBOPT_0x83
001c48 940e 0423 	CALL _sprawdz_pin5
001c4a 30e1      	CPI  R30,LOW(0x1)
001c4b f419      	BRNE _0x24E
                 ; 0000 14B5     {
                 ; 0000 14B6     PORTD.7 = 1;
001c4c 9a97      	SBI  0x12,7
                 ; 0000 14B7     PORTE.2 = 0;
001c4d 981a      	CBI  0x3,2
                 ; 0000 14B8     PORTE.3 = 0;  //szlifierki stop
001c4e 981b      	CBI  0x3,3
                 ; 0000 14B9     }
                 ; 0000 14BA 
                 ; 0000 14BB switch(cykl_sterownik_2)
                 _0x24E:
001c4f 91e0 0539 	LDS  R30,_cykl_sterownik_2
001c51 91f0 053a 	LDS  R31,_cykl_sterownik_2+1
                 ; 0000 14BC         {
                 ; 0000 14BD         case 0:
001c53 9730      	SBIW R30,0
001c54 f011      	BREQ PC+3
001c55 940c 1c9c 	JMP _0x258
                 ; 0000 14BE 
                 ; 0000 14BF             sek3 = 0;
001c57 940e 2fdf 	CALL SUBOPT_0x92
                 ; 0000 14C0             PORT_STER2.byte = PORT;
001c59 81e8      	LD   R30,Y
001c5a 93e0 050a 	STS  _PORT_STER2,R30
                 ; 0000 14C1             PORTC.0 = PORT_STER2.bits.b0;
001c5c 70e1      	ANDI R30,LOW(0x1)
001c5d f411      	BRNE _0x259
001c5e 98a8      	CBI  0x15,0
001c5f c001      	RJMP _0x25A
                 _0x259:
001c60 9aa8      	SBI  0x15,0
                 _0x25A:
                 ; 0000 14C2             PORTC.1 = PORT_STER2.bits.b1;
001c61 91e0 050a 	LDS  R30,_PORT_STER2
001c63 70e2      	ANDI R30,LOW(0x2)
001c64 f411      	BRNE _0x25B
001c65 98a9      	CBI  0x15,1
001c66 c001      	RJMP _0x25C
                 _0x25B:
001c67 9aa9      	SBI  0x15,1
                 _0x25C:
                 ; 0000 14C3             PORTC.2 = PORT_STER2.bits.b2;
001c68 91e0 050a 	LDS  R30,_PORT_STER2
001c6a 70e4      	ANDI R30,LOW(0x4)
001c6b f411      	BRNE _0x25D
001c6c 98aa      	CBI  0x15,2
001c6d c001      	RJMP _0x25E
                 _0x25D:
001c6e 9aaa      	SBI  0x15,2
                 _0x25E:
                 ; 0000 14C4             PORTC.3 = PORT_STER2.bits.b3;
001c6f 91e0 050a 	LDS  R30,_PORT_STER2
001c71 70e8      	ANDI R30,LOW(0x8)
001c72 f411      	BRNE _0x25F
001c73 98ab      	CBI  0x15,3
001c74 c001      	RJMP _0x260
                 _0x25F:
001c75 9aab      	SBI  0x15,3
                 _0x260:
                 ; 0000 14C5             PORTC.4 = PORT_STER2.bits.b4;
001c76 91e0 050a 	LDS  R30,_PORT_STER2
001c78 71e0      	ANDI R30,LOW(0x10)
001c79 f411      	BRNE _0x261
001c7a 98ac      	CBI  0x15,4
001c7b c001      	RJMP _0x262
                 _0x261:
001c7c 9aac      	SBI  0x15,4
                 _0x262:
                 ; 0000 14C6             PORTC.5 = PORT_STER2.bits.b5;
001c7d 91e0 050a 	LDS  R30,_PORT_STER2
001c7f 72e0      	ANDI R30,LOW(0x20)
001c80 f411      	BRNE _0x263
001c81 98ad      	CBI  0x15,5
001c82 c001      	RJMP _0x264
                 _0x263:
001c83 9aad      	SBI  0x15,5
                 _0x264:
                 ; 0000 14C7             PORTC.6 = PORT_STER2.bits.b6;
001c84 91e0 050a 	LDS  R30,_PORT_STER2
001c86 74e0      	ANDI R30,LOW(0x40)
001c87 f411      	BRNE _0x265
001c88 98ae      	CBI  0x15,6
001c89 c001      	RJMP _0x266
                 _0x265:
001c8a 9aae      	SBI  0x15,6
                 _0x266:
                 ; 0000 14C8             PORTC.7 = PORT_STER2.bits.b7;
001c8b 91e0 050a 	LDS  R30,_PORT_STER2
001c8d 78e0      	ANDI R30,LOW(0x80)
001c8e f411      	BRNE _0x267
001c8f 98af      	CBI  0x15,7
001c90 c001      	RJMP _0x268
                 _0x267:
001c91 9aaf      	SBI  0x15,7
                 _0x268:
                 ; 0000 14C9             if(PORT > 0x0FF)
001c92 81a8      	LD   R26,Y
001c93 81b9      	LDD  R27,Y+1
001c94 30a0      	CPI  R26,LOW(0x100)
001c95 e0e1      	LDI  R30,HIGH(0x100)
001c96 07be      	CPC  R27,R30
001c97 f00c      	BRLT _0x269
                 ; 0000 14CA                 PORTD.5 = 1;
001c98 9a95      	SBI  0x12,5
                 ; 0000 14CB 
                 ; 0000 14CC 
                 ; 0000 14CD             cykl_sterownik_2 = 1;
                 _0x269:
001c99 e0e1      	LDI  R30,LOW(1)
001c9a e0f0      	LDI  R31,HIGH(1)
001c9b c047      	RJMP _0x47D
                 ; 0000 14CE 
                 ; 0000 14CF 
                 ; 0000 14D0         break;
                 ; 0000 14D1 
                 ; 0000 14D2         case 1:
                 _0x258:
001c9c 30e1      	CPI  R30,LOW(0x1)
001c9d e0a0      	LDI  R26,HIGH(0x1)
001c9e 07fa      	CPC  R31,R26
001c9f f489      	BRNE _0x26C
                 ; 0000 14D3 
                 ; 0000 14D4             if(sek3 > 1)
001ca0 91a0 0519 	LDS  R26,_sek3
001ca2 91b0 051a 	LDS  R27,_sek3+1
001ca4 9180 051b 	LDS  R24,_sek3+2
001ca6 9190 051c 	LDS  R25,_sek3+3
001ca8 940e 2fd2 	CALL SUBOPT_0x90
001caa f02c      	BRLT _0x26D
                 ; 0000 14D5                 {
                 ; 0000 14D6                 PORTD.6 = 1;
001cab 9a96      	SBI  0x12,6
                 ; 0000 14D7                 cykl_sterownik_2 = 2;
001cac e0e2      	LDI  R30,LOW(2)
001cad e0f0      	LDI  R31,HIGH(2)
001cae 940e 2fe9 	CALL SUBOPT_0x93
                 ; 0000 14D8                 }
                 ; 0000 14D9         break;
                 _0x26D:
001cb0 c036      	RJMP _0x257
                 ; 0000 14DA 
                 ; 0000 14DB 
                 ; 0000 14DC         case 2:
                 _0x26C:
001cb1 30e2      	CPI  R30,LOW(0x2)
001cb2 e0a0      	LDI  R26,HIGH(0x2)
001cb3 07fa      	CPC  R31,R26
001cb4 f489      	BRNE _0x270
                 ; 0000 14DD 
                 ; 0000 14DE                if(sprawdz_pin0(PORTLL,0x71) == 0)     //busy
001cb5 940e 2f6b 	CALL SUBOPT_0x83
001cb7 940e 040d 	CALL _sprawdz_pin0
001cb9 30e0      	CPI  R30,0
001cba f451      	BRNE _0x271
                 ; 0000 14DF                   {
                 ; 0000 14E0                   PORTD.6 = 0;
001cbb 9896      	CBI  0x12,6
                 ; 0000 14E1                   PORTC = 0x00;
001cbc e0e0      	LDI  R30,LOW(0)
001cbd bbe5      	OUT  0x15,R30
                 ; 0000 14E2                   PORTD.5 = 0;
001cbe 9895      	CBI  0x12,5
                 ; 0000 14E3                   sek3 = 0;
001cbf 940e 2fdf 	CALL SUBOPT_0x92
                 ; 0000 14E4                   cykl_sterownik_2 = 3;
001cc1 e0e3      	LDI  R30,LOW(3)
001cc2 e0f0      	LDI  R31,HIGH(3)
001cc3 940e 2fe9 	CALL SUBOPT_0x93
                 ; 0000 14E5                   }
                 ; 0000 14E6 
                 ; 0000 14E7         break;
                 _0x271:
001cc5 c021      	RJMP _0x257
                 ; 0000 14E8 
                 ; 0000 14E9         case 3:
                 _0x270:
001cc6 30e3      	CPI  R30,LOW(0x3)
001cc7 e0a0      	LDI  R26,HIGH(0x3)
001cc8 07fa      	CPC  R31,R26
001cc9 f469      	BRNE _0x276
                 ; 0000 14EA 
                 ; 0000 14EB                if(sprawdz_pin3(PORTLL,0x71) == 0)
001cca 940e 2f6b 	CALL SUBOPT_0x83
001ccc 940e 0419 	CALL _sprawdz_pin3
001cce 30e0      	CPI  R30,0
001ccf f431      	BRNE _0x277
                 ; 0000 14EC                   {
                 ; 0000 14ED                   sek3 = 0;
001cd0 940e 2fdf 	CALL SUBOPT_0x92
                 ; 0000 14EE                   cykl_sterownik_2 = 4;
001cd2 e0e4      	LDI  R30,LOW(4)
001cd3 e0f0      	LDI  R31,HIGH(4)
001cd4 940e 2fe9 	CALL SUBOPT_0x93
                 ; 0000 14EF                   }
                 ; 0000 14F0 
                 ; 0000 14F1 
                 ; 0000 14F2         break;
                 _0x277:
001cd6 c010      	RJMP _0x257
                 ; 0000 14F3 
                 ; 0000 14F4 
                 ; 0000 14F5         case 4:
                 _0x276:
001cd7 30e4      	CPI  R30,LOW(0x4)
001cd8 e0a0      	LDI  R26,HIGH(0x4)
001cd9 07fa      	CPC  R31,R26
001cda f461      	BRNE _0x257
                 ; 0000 14F6 
                 ; 0000 14F7             if(sprawdz_pin0(PORTLL,0x71) == 1)
001cdb 940e 2f6b 	CALL SUBOPT_0x83
001cdd 940e 040d 	CALL _sprawdz_pin0
001cdf 30e1      	CPI  R30,LOW(0x1)
001ce0 f431      	BRNE _0x279
                 ; 0000 14F8                 {
                 ; 0000 14F9                 cykl_sterownik_2 = 5;
001ce1 e0e5      	LDI  R30,LOW(5)
001ce2 e0f0      	LDI  R31,HIGH(5)
                 _0x47D:
001ce3 93e0 0539 	STS  _cykl_sterownik_2,R30
001ce5 93f0 053a 	STS  _cykl_sterownik_2+1,R31
                 ; 0000 14FA                 }
                 ; 0000 14FB         break;
                 _0x279:
                 ; 0000 14FC 
                 ; 0000 14FD         }
                 _0x257:
                 ; 0000 14FE 
                 ; 0000 14FF return cykl_sterownik_2;
001ce7 91e0 0539 	LDS  R30,_cykl_sterownik_2
001ce9 91f0 053a 	LDS  R31,_cykl_sterownik_2+1
001ceb c162      	RJMP _0x20A0001
                 ; 0000 1500 }
                 ;
                 ;
                 ;
                 ;
                 ;
                 ;
                 ;int sterownik_3_praca(int PORT)
                 ; 0000 1508 {
                 _sterownik_3_praca:
                 ; 0000 1509 //PORTF.0   IN0  STEROWNIK3
                 ; 0000 150A //PORTF.1   IN1  STEROWNIK3
                 ; 0000 150B //PORTF.2   IN2  STEROWNIK3
                 ; 0000 150C //PORTF.3   IN3  STEROWNIK3
                 ; 0000 150D //PORTF.7   IN4 STEROWNIK 3
                 ; 0000 150E //PORTB.7   IN5 STEROWNIK 3
                 ; 0000 150F 
                 ; 0000 1510 
                 ; 0000 1511 
                 ; 0000 1512 //PORTF.5   DRIVE  STEROWNIK3
                 ; 0000 1513 
                 ; 0000 1514 //sprawdz_pin0(PORTKK,0x75)  B7 BUSY    LECCP STEROWNIK3
                 ; 0000 1515 //sprawdz_pin3(PORTKK,0x75)  B10 INP    LECP6 STEROWNIK3
                 ; 0000 1516 
                 ; 0000 1517 if(sprawdz_pin7(PORTMM,0x77) == 1)
                 ;	PORT -> Y+0
001cec 940e 2ca3 	CALL SUBOPT_0x23
001cee 940e 042e 	CALL _sprawdz_pin7
001cf0 30e1      	CPI  R30,LOW(0x1)
001cf1 f419      	BRNE _0x27A
                 ; 0000 1518      {
                 ; 0000 1519      PORTD.7 = 1;
001cf2 9a97      	SBI  0x12,7
                 ; 0000 151A      PORTE.2 = 0;
001cf3 981a      	CBI  0x3,2
                 ; 0000 151B      PORTE.3 = 0;  //szlifierki stop
001cf4 981b      	CBI  0x3,3
                 ; 0000 151C      }
                 ; 0000 151D switch(cykl_sterownik_3)
                 _0x27A:
001cf5 91e0 0537 	LDS  R30,_cykl_sterownik_3
001cf7 91f0 0538 	LDS  R31,_cykl_sterownik_3+1
                 ; 0000 151E         {
                 ; 0000 151F         case 0:
001cf9 9730      	SBIW R30,0
001cfa f011      	BREQ PC+3
001cfb 940c 1d42 	JMP _0x284
                 ; 0000 1520 
                 ; 0000 1521             PORT_STER3.byte = PORT;
001cfd 81e8      	LD   R30,Y
001cfe 93e0 0507 	STS  _PORT_STER3,R30
                 ; 0000 1522             PORT_F.bits.b0 = PORT_STER3.bits.b0;
001d00 70e1      	ANDI R30,LOW(0x1)
001d01 2e0e      	MOV  R0,R30
001d02 91e0 0500 	LDS  R30,_PORT_F
001d04 7fee      	ANDI R30,0xFE
001d05 940e 2fee 	CALL SUBOPT_0x94
                 ; 0000 1523             PORT_F.bits.b1 = PORT_STER3.bits.b1;
001d07 95e6      	LSR  R30
001d08 70e1      	ANDI R30,LOW(0x1)
001d09 0fee      	LSL  R30
001d0a 2e0e      	MOV  R0,R30
001d0b 91e0 0500 	LDS  R30,_PORT_F
001d0d 7fed      	ANDI R30,0xFD
001d0e 940e 2fee 	CALL SUBOPT_0x94
                 ; 0000 1524             PORT_F.bits.b2 = PORT_STER3.bits.b2;
001d10 95e6      	LSR  R30
001d11 95e6      	LSR  R30
001d12 70e1      	ANDI R30,LOW(0x1)
001d13 0fee      	LSL  R30
001d14 0fee      	LSL  R30
001d15 2e0e      	MOV  R0,R30
001d16 91e0 0500 	LDS  R30,_PORT_F
001d18 7feb      	ANDI R30,0xFB
001d19 940e 2fee 	CALL SUBOPT_0x94
                 ; 0000 1525             PORT_F.bits.b3 = PORT_STER3.bits.b3;
001d1b 95e6      	LSR  R30
001d1c 95e6      	LSR  R30
001d1d 95e6      	LSR  R30
001d1e 70e1      	ANDI R30,LOW(0x1)
001d1f 0fee      	LSL  R30
001d20 0fee      	LSL  R30
001d21 0fee      	LSL  R30
001d22 2e0e      	MOV  R0,R30
001d23 91e0 0500 	LDS  R30,_PORT_F
001d25 7fe7      	ANDI R30,0XF7
001d26 940e 2fee 	CALL SUBOPT_0x94
                 ; 0000 1526             PORT_F.bits.b7 = PORT_STER3.bits.b4;
001d28 95e2      	SWAP R30
001d29 70e1      	ANDI R30,LOW(0x1)
001d2a 95e7      	ROR  R30
001d2b e0e0      	LDI  R30,0
001d2c 95e7      	ROR  R30
001d2d 2e0e      	MOV  R0,R30
001d2e 91e0 0500 	LDS  R30,_PORT_F
001d30 77ef      	ANDI R30,0x7F
001d31 29e0      	OR   R30,R0
001d32 940e 2ff4 	CALL SUBOPT_0x95
                 ; 0000 1527             PORTF = PORT_F.byte;
                 ; 0000 1528             PORTB.7 = PORT_STER3.bits.b5;
001d34 91e0 0507 	LDS  R30,_PORT_STER3
001d36 72e0      	ANDI R30,LOW(0x20)
001d37 f411      	BRNE _0x285
001d38 98c7      	CBI  0x18,7
001d39 c001      	RJMP _0x286
                 _0x285:
001d3a 9ac7      	SBI  0x18,7
                 _0x286:
                 ; 0000 1529 
                 ; 0000 152A 
                 ; 0000 152B 
                 ; 0000 152C             sek2 = 0;
001d3b 940e 2ff9 	CALL SUBOPT_0x96
                 ; 0000 152D             cykl_sterownik_3 = 1;
001d3d e0e1      	LDI  R30,LOW(1)
001d3e e0f0      	LDI  R31,HIGH(1)
001d3f 940e 3003 	CALL SUBOPT_0x97
                 ; 0000 152E 
                 ; 0000 152F 
                 ; 0000 1530 
                 ; 0000 1531         break;
001d41 c076      	RJMP _0x283
                 ; 0000 1532 
                 ; 0000 1533         case 1:
                 _0x284:
001d42 30e1      	CPI  R30,LOW(0x1)
001d43 e0a0      	LDI  R26,HIGH(0x1)
001d44 07fa      	CPC  R31,R26
001d45 f4a9      	BRNE _0x287
                 ; 0000 1534 
                 ; 0000 1535 
                 ; 0000 1536             if(sek2 > 1)
001d46 91a0 0515 	LDS  R26,_sek2
001d48 91b0 0516 	LDS  R27,_sek2+1
001d4a 9180 0517 	LDS  R24,_sek2+2
001d4c 9190 0518 	LDS  R25,_sek2+3
001d4e 940e 2fd2 	CALL SUBOPT_0x90
001d50 f04c      	BRLT _0x288
                 ; 0000 1537                 {
                 ; 0000 1538 
                 ; 0000 1539                 PORT_F.bits.b5 = 1;
001d51 91e0 0500 	LDS  R30,_PORT_F
001d53 62e0      	ORI  R30,0x20
001d54 940e 2ff4 	CALL SUBOPT_0x95
                 ; 0000 153A                 PORTF = PORT_F.byte;
                 ; 0000 153B                 cykl_sterownik_3 = 2;    //drive
001d56 e0e2      	LDI  R30,LOW(2)
001d57 e0f0      	LDI  R31,HIGH(2)
001d58 940e 3003 	CALL SUBOPT_0x97
                 ; 0000 153C                 }
                 ; 0000 153D         break;
                 _0x288:
001d5a c05d      	RJMP _0x283
                 ; 0000 153E 
                 ; 0000 153F 
                 ; 0000 1540         case 2:
                 _0x287:
001d5b 30e2      	CPI  R30,LOW(0x2)
001d5c e0a0      	LDI  R26,HIGH(0x2)
001d5d 07fa      	CPC  R31,R26
001d5e f521      	BRNE _0x289
                 ; 0000 1541 
                 ; 0000 1542 
                 ; 0000 1543                if(sprawdz_pin0(PORTKK,0x75) == 0)
001d5f 940e 2f75 	CALL SUBOPT_0x84
001d61 940e 040d 	CALL _sprawdz_pin0
001d63 30e0      	CPI  R30,0
001d64 f4e9      	BRNE _0x28A
                 ; 0000 1544                   {
                 ; 0000 1545                   PORT_F.bits.b5 = 0;
001d65 91e0 0500 	LDS  R30,_PORT_F
001d67 7def      	ANDI R30,0xDF
001d68 940e 2ff4 	CALL SUBOPT_0x95
                 ; 0000 1546                   PORTF = PORT_F.byte;
                 ; 0000 1547 
                 ; 0000 1548                   PORT_F.bits.b0 = 0;
001d6a 91e0 0500 	LDS  R30,_PORT_F
001d6c 7fee      	ANDI R30,0xFE
001d6d 940e 3008 	CALL SUBOPT_0x98
                 ; 0000 1549                   PORT_F.bits.b1 = 0;
001d6f 7fed      	ANDI R30,0xFD
001d70 940e 3008 	CALL SUBOPT_0x98
                 ; 0000 154A                   PORT_F.bits.b2 = 0;
001d72 7feb      	ANDI R30,0xFB
001d73 940e 3008 	CALL SUBOPT_0x98
                 ; 0000 154B                   PORT_F.bits.b3 = 0;
001d75 7fe7      	ANDI R30,0XF7
001d76 940e 3008 	CALL SUBOPT_0x98
                 ; 0000 154C                   PORT_F.bits.b7 = 0;
001d78 77ef      	ANDI R30,0x7F
001d79 940e 2ff4 	CALL SUBOPT_0x95
                 ; 0000 154D                   PORTF = PORT_F.byte;
                 ; 0000 154E                   PORTB.7 = 0;
001d7b 98c7      	CBI  0x18,7
                 ; 0000 154F 
                 ; 0000 1550                   sek2 = 0;
001d7c 940e 2ff9 	CALL SUBOPT_0x96
                 ; 0000 1551                   cykl_sterownik_3 = 3;
001d7e e0e3      	LDI  R30,LOW(3)
001d7f e0f0      	LDI  R31,HIGH(3)
001d80 940e 3003 	CALL SUBOPT_0x97
                 ; 0000 1552                   }
                 ; 0000 1553 
                 ; 0000 1554         break;
                 _0x28A:
001d82 c035      	RJMP _0x283
                 ; 0000 1555 
                 ; 0000 1556         case 3:
                 _0x289:
001d83 30e3      	CPI  R30,LOW(0x3)
001d84 e0a0      	LDI  R26,HIGH(0x3)
001d85 07fa      	CPC  R31,R26
001d86 f469      	BRNE _0x28D
                 ; 0000 1557 
                 ; 0000 1558 
                 ; 0000 1559                if(sprawdz_pin3(PORTKK,0x75) == 0)  //czy INP
001d87 940e 2f75 	CALL SUBOPT_0x84
001d89 940e 0419 	CALL _sprawdz_pin3
001d8b 30e0      	CPI  R30,0
001d8c f431      	BRNE _0x28E
                 ; 0000 155A                   {
                 ; 0000 155B                   sek2 = 0;
001d8d 940e 2ff9 	CALL SUBOPT_0x96
                 ; 0000 155C                   cykl_sterownik_3 = 4;
001d8f e0e4      	LDI  R30,LOW(4)
001d90 e0f0      	LDI  R31,HIGH(4)
001d91 940e 3003 	CALL SUBOPT_0x97
                 ; 0000 155D                   }
                 ; 0000 155E 
                 ; 0000 155F 
                 ; 0000 1560         break;
                 _0x28E:
001d93 c024      	RJMP _0x283
                 ; 0000 1561 
                 ; 0000 1562 
                 ; 0000 1563         case 4:
                 _0x28D:
001d94 30e4      	CPI  R30,LOW(0x4)
001d95 e0a0      	LDI  R26,HIGH(0x4)
001d96 07fa      	CPC  R31,R26
001d97 f501      	BRNE _0x283
                 ; 0000 1564 
                 ; 0000 1565               if(sprawdz_pin0(PORTKK,0x75) == 1)  //czy BUSY
001d98 940e 2f75 	CALL SUBOPT_0x84
001d9a 940e 040d 	CALL _sprawdz_pin0
001d9c 30e1      	CPI  R30,LOW(0x1)
001d9d f4d1      	BRNE _0x290
                 ; 0000 1566                 {
                 ; 0000 1567                 cykl_sterownik_3 = 5;
001d9e e0e5      	LDI  R30,LOW(5)
001d9f e0f0      	LDI  R31,HIGH(5)
001da0 940e 3003 	CALL SUBOPT_0x97
                 ; 0000 1568 
                 ; 0000 1569 
                 ; 0000 156A                 switch(cykl_sterownik_3_wykonalem)
001da2 91e0 0545 	LDS  R30,_cykl_sterownik_3_wykonalem
001da4 91f0 0546 	LDS  R31,_cykl_sterownik_3_wykonalem+1
                 ; 0000 156B                     {
                 ; 0000 156C                     case 0:
001da6 9730      	SBIW R30,0
001da7 f439      	BRNE _0x294
                 ; 0000 156D                             cykl_sterownik_3_wykonalem = 1;
001da8 e0e1      	LDI  R30,LOW(1)
001da9 e0f0      	LDI  R31,HIGH(1)
001daa 93e0 0545 	STS  _cykl_sterownik_3_wykonalem,R30
001dac 93f0 0546 	STS  _cykl_sterownik_3_wykonalem+1,R31
                 ; 0000 156E                     break;
001dae c009      	RJMP _0x293
                 ; 0000 156F 
                 ; 0000 1570                     case 1:
                 _0x294:
001daf 30e1      	CPI  R30,LOW(0x1)
001db0 e0a0      	LDI  R26,HIGH(0x1)
001db1 07fa      	CPC  R31,R26
001db2 f429      	BRNE _0x293
                 ; 0000 1571                             cykl_sterownik_3_wykonalem = 0;
001db3 e0e0      	LDI  R30,LOW(0)
001db4 93e0 0545 	STS  _cykl_sterownik_3_wykonalem,R30
001db6 93e0 0546 	STS  _cykl_sterownik_3_wykonalem+1,R30
                 ; 0000 1572                     break;
                 ; 0000 1573 
                 ; 0000 1574                     }
                 _0x293:
                 ; 0000 1575 
                 ; 0000 1576 
                 ; 0000 1577                 }
                 ; 0000 1578         break;
                 _0x290:
                 ; 0000 1579 
                 ; 0000 157A         }
                 _0x283:
                 ; 0000 157B 
                 ; 0000 157C return cykl_sterownik_3;
001db8 91e0 0537 	LDS  R30,_cykl_sterownik_3
001dba 91f0 0538 	LDS  R31,_cykl_sterownik_3+1
001dbc c091      	RJMP _0x20A0001
                 ; 0000 157D }
                 ;
                 ;//
                 ;//int sterownik_4_praca(char f,char e,char d, char c, char b, char a)
                 ;int sterownik_4_praca(int PORT)
                 ; 0000 1582 {
                 _sterownik_4_praca:
                 ; 0000 1583 
                 ; 0000 1584 
                 ; 0000 1585 //PORTB.0   IN0  STEROWNIK4
                 ; 0000 1586 //PORTB.1   IN1  STEROWNIK4
                 ; 0000 1587 //PORTB.2   IN2  STEROWNIK4
                 ; 0000 1588 //PORTB.3   IN3  STEROWNIK4
                 ; 0000 1589 //PORTE.4  IN4  STEROWNIK4
                 ; 0000 158A //PORTE.5  IN5  STEROWNIK4
                 ; 0000 158B 
                 ; 0000 158C 
                 ; 0000 158D //PORTB.4   SETUP  STEROWNIK4
                 ; 0000 158E //PORTB.5   DRIVE  STEROWNIK4
                 ; 0000 158F 
                 ; 0000 1590 //sprawdz_pin4(PORTKK,0x75)  B7 BUSY    LECCP STEROWNIK4
                 ; 0000 1591 //sprawdz_pin7(PORTKK,0x75)  B10 INP    LECP6 STEROWNIK4
                 ; 0000 1592 
                 ; 0000 1593 if(sprawdz_pin6(PORTMM,0x77) == 1)
                 ;	PORT -> Y+0
001dbd 940e 2ca3 	CALL SUBOPT_0x23
001dbf 940e 0429 	CALL _sprawdz_pin6
001dc1 30e1      	CPI  R30,LOW(0x1)
001dc2 f419      	BRNE _0x296
                 ; 0000 1594     {
                 ; 0000 1595     PORTD.7 = 1;
001dc3 9a97      	SBI  0x12,7
                 ; 0000 1596     PORTE.2 = 0;
001dc4 981a      	CBI  0x3,2
                 ; 0000 1597     PORTE.3 = 0;
001dc5 981b      	CBI  0x3,3
                 ; 0000 1598     }
                 ; 0000 1599 switch(cykl_sterownik_4)
                 _0x296:
001dc6 91e0 053b 	LDS  R30,_cykl_sterownik_4
001dc8 91f0 053c 	LDS  R31,_cykl_sterownik_4+1
                 ; 0000 159A         {
                 ; 0000 159B         case 0:
001dca 9730      	SBIW R30,0
001dcb f581      	BRNE _0x2A0
                 ; 0000 159C 
                 ; 0000 159D             PORT_STER4.byte = PORT;
001dcc 81e8      	LD   R30,Y
001dcd 93e0 0508 	STS  _PORT_STER4,R30
                 ; 0000 159E             PORTB.0 = PORT_STER4.bits.b0;
001dcf 70e1      	ANDI R30,LOW(0x1)
001dd0 f411      	BRNE _0x2A1
001dd1 98c0      	CBI  0x18,0
001dd2 c001      	RJMP _0x2A2
                 _0x2A1:
001dd3 9ac0      	SBI  0x18,0
                 _0x2A2:
                 ; 0000 159F             PORTB.1 = PORT_STER4.bits.b1;
001dd4 91e0 0508 	LDS  R30,_PORT_STER4
001dd6 70e2      	ANDI R30,LOW(0x2)
001dd7 f411      	BRNE _0x2A3
001dd8 98c1      	CBI  0x18,1
001dd9 c001      	RJMP _0x2A4
                 _0x2A3:
001dda 9ac1      	SBI  0x18,1
                 _0x2A4:
                 ; 0000 15A0             PORTB.2 = PORT_STER4.bits.b2;
001ddb 91e0 0508 	LDS  R30,_PORT_STER4
001ddd 70e4      	ANDI R30,LOW(0x4)
001dde f411      	BRNE _0x2A5
001ddf 98c2      	CBI  0x18,2
001de0 c001      	RJMP _0x2A6
                 _0x2A5:
001de1 9ac2      	SBI  0x18,2
                 _0x2A6:
                 ; 0000 15A1             PORTB.3 = PORT_STER4.bits.b3;
001de2 91e0 0508 	LDS  R30,_PORT_STER4
001de4 70e8      	ANDI R30,LOW(0x8)
001de5 f411      	BRNE _0x2A7
001de6 98c3      	CBI  0x18,3
001de7 c001      	RJMP _0x2A8
                 _0x2A7:
001de8 9ac3      	SBI  0x18,3
                 _0x2A8:
                 ; 0000 15A2             PORTE.4 = PORT_STER4.bits.b4;
001de9 91e0 0508 	LDS  R30,_PORT_STER4
001deb 71e0      	ANDI R30,LOW(0x10)
001dec f411      	BRNE _0x2A9
001ded 981c      	CBI  0x3,4
001dee c001      	RJMP _0x2AA
                 _0x2A9:
001def 9a1c      	SBI  0x3,4
                 _0x2AA:
                 ; 0000 15A3             PORTE.5 = PORT_STER4.bits.b5;
001df0 91e0 0508 	LDS  R30,_PORT_STER4
001df2 72e0      	ANDI R30,LOW(0x20)
001df3 f411      	BRNE _0x2AB
001df4 981d      	CBI  0x3,5
001df5 c001      	RJMP _0x2AC
                 _0x2AB:
001df6 9a1d      	SBI  0x3,5
                 _0x2AC:
                 ; 0000 15A4 
                 ; 0000 15A5             sek4 = 0;
001df7 940e 300b 	CALL SUBOPT_0x99
                 ; 0000 15A6             cykl_sterownik_4 = 1;
001df9 e0e1      	LDI  R30,LOW(1)
001dfa e0f0      	LDI  R31,HIGH(1)
001dfb c04a      	RJMP _0x47E
                 ; 0000 15A7 
                 ; 0000 15A8         break;
                 ; 0000 15A9 
                 ; 0000 15AA         case 1:
                 _0x2A0:
001dfc 30e1      	CPI  R30,LOW(0x1)
001dfd e0a0      	LDI  R26,HIGH(0x1)
001dfe 07fa      	CPC  R31,R26
001dff f489      	BRNE _0x2AD
                 ; 0000 15AB 
                 ; 0000 15AC             if(sek4 > 1)
001e00 91a0 051d 	LDS  R26,_sek4
001e02 91b0 051e 	LDS  R27,_sek4+1
001e04 9180 051f 	LDS  R24,_sek4+2
001e06 9190 0520 	LDS  R25,_sek4+3
001e08 940e 2fd2 	CALL SUBOPT_0x90
001e0a f02c      	BRLT _0x2AE
                 ; 0000 15AD                 {
                 ; 0000 15AE                 PORTB.5 = 1;
001e0b 9ac5      	SBI  0x18,5
                 ; 0000 15AF                 cykl_sterownik_4 = 2;    //drive
001e0c e0e2      	LDI  R30,LOW(2)
001e0d e0f0      	LDI  R31,HIGH(2)
001e0e 940e 3015 	CALL SUBOPT_0x9A
                 ; 0000 15B0                 }
                 ; 0000 15B1         break;
                 _0x2AE:
001e10 c039      	RJMP _0x29F
                 ; 0000 15B2 
                 ; 0000 15B3 
                 ; 0000 15B4         case 2:
                 _0x2AD:
001e11 30e2      	CPI  R30,LOW(0x2)
001e12 e0a0      	LDI  R26,HIGH(0x2)
001e13 07fa      	CPC  R31,R26
001e14 f4a1      	BRNE _0x2B1
                 ; 0000 15B5 
                 ; 0000 15B6                if(sprawdz_pin4(PORTKK,0x75) == 0)
001e15 940e 2f75 	CALL SUBOPT_0x84
001e17 940e 041f 	CALL _sprawdz_pin4
001e19 30e0      	CPI  R30,0
001e1a f469      	BRNE _0x2B2
                 ; 0000 15B7                   {
                 ; 0000 15B8                   PORTB.5 = 0;  //drive
001e1b 98c5      	CBI  0x18,5
                 ; 0000 15B9 
                 ; 0000 15BA                   PORTB.0 = 0;
001e1c 98c0      	CBI  0x18,0
                 ; 0000 15BB                   PORTB.1 = 0;
001e1d 98c1      	CBI  0x18,1
                 ; 0000 15BC                   PORTB.2 = 0;
001e1e 98c2      	CBI  0x18,2
                 ; 0000 15BD                   PORTB.3 = 0;
001e1f 98c3      	CBI  0x18,3
                 ; 0000 15BE                   PORTE.4 = 0;
001e20 981c      	CBI  0x3,4
                 ; 0000 15BF                   PORTE.5 = 0;
001e21 981d      	CBI  0x3,5
                 ; 0000 15C0 
                 ; 0000 15C1                   sek4 = 0;
001e22 940e 300b 	CALL SUBOPT_0x99
                 ; 0000 15C2                   cykl_sterownik_4 = 3;
001e24 e0e3      	LDI  R30,LOW(3)
001e25 e0f0      	LDI  R31,HIGH(3)
001e26 940e 3015 	CALL SUBOPT_0x9A
                 ; 0000 15C3                   }
                 ; 0000 15C4 
                 ; 0000 15C5         break;
                 _0x2B2:
001e28 c021      	RJMP _0x29F
                 ; 0000 15C6 
                 ; 0000 15C7         case 3:
                 _0x2B1:
001e29 30e3      	CPI  R30,LOW(0x3)
001e2a e0a0      	LDI  R26,HIGH(0x3)
001e2b 07fa      	CPC  R31,R26
001e2c f469      	BRNE _0x2C1
                 ; 0000 15C8 
                 ; 0000 15C9                if(sprawdz_pin7(PORTKK,0x75) == 0)  //czy INP
001e2d 940e 2f75 	CALL SUBOPT_0x84
001e2f 940e 042e 	CALL _sprawdz_pin7
001e31 30e0      	CPI  R30,0
001e32 f431      	BRNE _0x2C2
                 ; 0000 15CA                   {
                 ; 0000 15CB                   sek4 = 0;
001e33 940e 300b 	CALL SUBOPT_0x99
                 ; 0000 15CC                   cykl_sterownik_4 = 4;
001e35 e0e4      	LDI  R30,LOW(4)
001e36 e0f0      	LDI  R31,HIGH(4)
001e37 940e 3015 	CALL SUBOPT_0x9A
                 ; 0000 15CD                   }
                 ; 0000 15CE 
                 ; 0000 15CF 
                 ; 0000 15D0         break;
                 _0x2C2:
001e39 c010      	RJMP _0x29F
                 ; 0000 15D1 
                 ; 0000 15D2 
                 ; 0000 15D3         case 4:
                 _0x2C1:
001e3a 30e4      	CPI  R30,LOW(0x4)
001e3b e0a0      	LDI  R26,HIGH(0x4)
001e3c 07fa      	CPC  R31,R26
001e3d f461      	BRNE _0x29F
                 ; 0000 15D4 
                 ; 0000 15D5               if(sprawdz_pin4(PORTKK,0x75) == 1)  //czy BUSY
001e3e 940e 2f75 	CALL SUBOPT_0x84
001e40 940e 041f 	CALL _sprawdz_pin4
001e42 30e1      	CPI  R30,LOW(0x1)
001e43 f431      	BRNE _0x2C4
                 ; 0000 15D6                 {
                 ; 0000 15D7                 cykl_sterownik_4 = 5;
001e44 e0e5      	LDI  R30,LOW(5)
001e45 e0f0      	LDI  R31,HIGH(5)
                 _0x47E:
001e46 93e0 053b 	STS  _cykl_sterownik_4,R30
001e48 93f0 053c 	STS  _cykl_sterownik_4+1,R31
                 ; 0000 15D8                 }
                 ; 0000 15D9         break;
                 _0x2C4:
                 ; 0000 15DA 
                 ; 0000 15DB         }
                 _0x29F:
                 ; 0000 15DC 
                 ; 0000 15DD return cykl_sterownik_4;
001e4a 91e0 053b 	LDS  R30,_cykl_sterownik_4
001e4c 91f0 053c 	LDS  R31,_cykl_sterownik_4+1
                 _0x20A0001:
001e4e 9622      	ADIW R28,2
001e4f 9508      	RET
                 ; 0000 15DE }
                 ;
                 ;
                 ;void test_geometryczny()
                 ; 0000 15E2 {
                 _test_geometryczny:
                 ; 0000 15E3 int cykl_testu,d;
                 ; 0000 15E4 d = 0;
001e50 940e 33cd 	CALL __SAVELOCR4
                 ;	cykl_testu -> R16,R17
                 ;	d -> R18,R19
                +
001e52 e020     +LDI R18 , LOW ( 0 )
001e53 e030     +LDI R19 , HIGH ( 0 )
                 	__GETWRN 18,19,0
                 ; 0000 15E5 cykl_testu = 0;
                +
001e54 e000     +LDI R16 , LOW ( 0 )
001e55 e010     +LDI R17 , HIGH ( 0 )
                 	__GETWRN 16,17,0
                 ; 0000 15E6 
                 ; 0000 15E7                                                                    //swiatlo czer       //swiatlo zolte
                 ; 0000 15E8 if(test_geometryczny_rzad_1 == 1 & test_geometryczny_rzad_2 == 0 & PORTD.7 == 0  & PORT_F.bits.b6 == 0 &
                 ; 0000 15E9     il_zaciskow_rzad_1 > 0 & macierz_zaciskow[1]!=0)
001e56 940e 301a 	CALL SUBOPT_0x9B
001e58 940e 2f23 	CALL SUBOPT_0x79
001e5a 2e0e      	MOV  R0,R30
001e5b 940e 301f 	CALL SUBOPT_0x9C
001e5d 940e 2f9b 	CALL SUBOPT_0x8A
001e5f 940e 3024 	CALL SUBOPT_0x9D
001e61 940e 3035 	CALL SUBOPT_0x9E
001e63 940e 303a 	CALL SUBOPT_0x9F
001e65 940e 3040 	CALL SUBOPT_0xA0
001e67 f411      	BRNE PC+3
001e68 940c 1f07 	JMP _0x2C5
                 ; 0000 15EA     {
                 ; 0000 15EB     while(test_geometryczny_rzad_1 == 1)
                 _0x2C6:
001e6a 940e 301a 	CALL SUBOPT_0x9B
001e6c 9711      	SBIW R26,1
001e6d f011      	BREQ PC+3
001e6e 940c 1f07 	JMP _0x2C8
                 ; 0000 15EC         {
                 ; 0000 15ED         switch(cykl_testu)
001e70 01f8      	MOVW R30,R16
                 ; 0000 15EE             {
                 ; 0000 15EF              case 0:
001e71 9730      	SBIW R30,0
001e72 f449      	BRNE _0x2CC
                 ; 0000 15F0 
                 ; 0000 15F1                cykl_sterownik_1 = 0;
001e73 940e 304a 	CALL SUBOPT_0xA1
                 ; 0000 15F2                cykl_sterownik_2 = 0;
                 ; 0000 15F3                cykl_sterownik_3 = 0;
                 ; 0000 15F4                cykl_sterownik_4 = 0;
                 ; 0000 15F5                wybor_linijek_sterownikow(1);
001e75 940e 305c 	CALL SUBOPT_0xA2
001e77 940e 10ac 	CALL _wybor_linijek_sterownikow
                 ; 0000 15F6                cykl_testu = 1;
                +
001e79 e001     +LDI R16 , LOW ( 1 )
001e7a e010     +LDI R17 , HIGH ( 1 )
                 	__GETWRN 16,17,1
                 ; 0000 15F7 
                 ; 0000 15F8 
                 ; 0000 15F9 
                 ; 0000 15FA             break;
001e7b c08a      	RJMP _0x2CB
                 ; 0000 15FB 
                 ; 0000 15FC             case 1:
                 _0x2CC:
001e7c 30e1      	CPI  R30,LOW(0x1)
001e7d e0a0      	LDI  R26,HIGH(0x1)
001e7e 07fa      	CPC  R31,R26
001e7f f4c1      	BRNE _0x2CD
                 ; 0000 15FD 
                 ; 0000 15FE             //na sam dol zjezdzamy pionami
                 ; 0000 15FF                 if(cykl_sterownik_3 < 5)
001e80 940e 3061 	CALL SUBOPT_0xA3
001e82 9715      	SBIW R26,5
001e83 f424      	BRGE _0x2CE
                 ; 0000 1600                     cykl_sterownik_3 = sterownik_3_praca(0x00);  //na sam dol, jedziemy miedzy rzedami
001e84 940e 2cad 	CALL SUBOPT_0x24
001e86 940e 3066 	CALL SUBOPT_0xA4
                 ; 0000 1601                 if(cykl_sterownik_4 < 5)
                 _0x2CE:
001e88 940e 3069 	CALL SUBOPT_0xA5
001e8a 9715      	SBIW R26,5
001e8b f424      	BRGE _0x2CF
                 ; 0000 1602                     cykl_sterownik_4 = sterownik_4_praca(0x00);  //na sam dol, jedziemy miedzy rzedami
001e8c 940e 2cad 	CALL SUBOPT_0x24
001e8e 940e 306e 	CALL SUBOPT_0xA6
                 ; 0000 1603 
                 ; 0000 1604                 if(cykl_sterownik_3 == 5 & cykl_sterownik_4 == 5)
                 _0x2CF:
001e90 940e 3071 	CALL SUBOPT_0xA7
001e92 f021      	BREQ _0x2D0
                 ; 0000 1605                                         {
                 ; 0000 1606                                         cykl_sterownik_3 = 0;
001e93 940e 307e 	CALL SUBOPT_0xA8
                 ; 0000 1607                                         cykl_sterownik_4 = 0;
                 ; 0000 1608                                         cykl_testu = 2;
                +
001e95 e002     +LDI R16 , LOW ( 2 )
001e96 e010     +LDI R17 , HIGH ( 2 )
                 	__GETWRN 16,17,2
                 ; 0000 1609                                         }
                 ; 0000 160A 
                 ; 0000 160B 
                 ; 0000 160C 
                 ; 0000 160D             break;
                 _0x2D0:
001e97 c06e      	RJMP _0x2CB
                 ; 0000 160E 
                 ; 0000 160F 
                 ; 0000 1610             case 2:
                 _0x2CD:
001e98 30e2      	CPI  R30,LOW(0x2)
001e99 e0a0      	LDI  R26,HIGH(0x2)
001e9a 07fa      	CPC  R31,R26
001e9b f4b1      	BRNE _0x2D1
                 ; 0000 1611 
                 ; 0000 1612                                 if(cykl_sterownik_1 < 5)
001e9c 940e 3088 	CALL SUBOPT_0xA9
001e9e 9715      	SBIW R26,5
001e9f f424      	BRGE _0x2D2
                 ; 0000 1613                                     cykl_sterownik_1 = sterownik_1_praca(0x000);
001ea0 940e 2cad 	CALL SUBOPT_0x24
001ea2 940e 308d 	CALL SUBOPT_0xAA
                 ; 0000 1614                                  if(cykl_sterownik_2 < 5)                                //ster 1 pod pin pozycjonujacy
                 _0x2D2:
001ea4 940e 3090 	CALL SUBOPT_0xAB
001ea6 9715      	SBIW R26,5
001ea7 f414      	BRGE _0x2D3
                 ; 0000 1615                                     cykl_sterownik_2 = sterownik_2_praca(0x008);       //ster 2 ucieczka do zera (druciak)
001ea8 940e 3095 	CALL SUBOPT_0xAC
                 ; 0000 1616 
                 ; 0000 1617                                     if(cykl_sterownik_1 == 5 & cykl_sterownik_2 == 5)
                 _0x2D3:
001eaa 940e 309c 	CALL SUBOPT_0xAD
001eac f021      	BREQ _0x2D4
                 ; 0000 1618                                         {
                 ; 0000 1619                                         cykl_sterownik_1 = 0;
001ead 940e 304a 	CALL SUBOPT_0xA1
                 ; 0000 161A                                         cykl_sterownik_2 = 0;
                 ; 0000 161B                                         cykl_sterownik_3 = 0;
                 ; 0000 161C                                         cykl_sterownik_4 = 0;
                 ; 0000 161D                                         cykl_testu = 3;
                +
001eaf e003     +LDI R16 , LOW ( 3 )
001eb0 e010     +LDI R17 , HIGH ( 3 )
                 	__GETWRN 16,17,3
                 ; 0000 161E 
                 ; 0000 161F                                         }
                 ; 0000 1620 
                 ; 0000 1621             break;
                 _0x2D4:
001eb1 c054      	RJMP _0x2CB
                 ; 0000 1622 
                 ; 0000 1623 
                 ; 0000 1624             case 3:
                 _0x2D1:
001eb2 30e3      	CPI  R30,LOW(0x3)
001eb3 e0a0      	LDI  R26,HIGH(0x3)
001eb4 07fa      	CPC  R31,R26
001eb5 f489      	BRNE _0x2D5
                 ; 0000 1625 
                 ; 0000 1626                                 if(cykl_sterownik_1 < 5)
001eb6 940e 3088 	CALL SUBOPT_0xA9
001eb8 9715      	SBIW R26,5
001eb9 f424      	BRGE _0x2D6
                 ; 0000 1627                                     cykl_sterownik_1 = sterownik_1_praca(a[0]); //ster 1 pod srodek zacisku
001eba 940e 30a9 	CALL SUBOPT_0xAE
001ebc 940e 308d 	CALL SUBOPT_0xAA
                 ; 0000 1628 
                 ; 0000 1629                                     if(cykl_sterownik_1 == 5)
                 _0x2D6:
001ebe 940e 3088 	CALL SUBOPT_0xA9
001ec0 9715      	SBIW R26,5
001ec1 f421      	BRNE _0x2D7
                 ; 0000 162A                                         {
                 ; 0000 162B                                         cykl_sterownik_1 = 0;
001ec2 940e 304a 	CALL SUBOPT_0xA1
                 ; 0000 162C                                         cykl_sterownik_2 = 0;
                 ; 0000 162D                                         cykl_sterownik_3 = 0;
                 ; 0000 162E                                         cykl_sterownik_4 = 0;
                 ; 0000 162F                                         cykl_testu = 4;
                +
001ec4 e004     +LDI R16 , LOW ( 4 )
001ec5 e010     +LDI R17 , HIGH ( 4 )
                 	__GETWRN 16,17,4
                 ; 0000 1630                                         }
                 ; 0000 1631 
                 ; 0000 1632             break;
                 _0x2D7:
001ec6 c03f      	RJMP _0x2CB
                 ; 0000 1633 
                 ; 0000 1634             case 4:
                 _0x2D5:
001ec7 30e4      	CPI  R30,LOW(0x4)
001ec8 e0a0      	LDI  R26,HIGH(0x4)
001ec9 07fa      	CPC  R31,R26
001eca f489      	BRNE _0x2D8
                 ; 0000 1635 
                 ; 0000 1636                                    if(cykl_sterownik_3 < 5)
001ecb 940e 3061 	CALL SUBOPT_0xA3
001ecd 9715      	SBIW R26,5
001ece f424      	BRGE _0x2D9
                 ; 0000 1637                                         cykl_sterownik_3 = sterownik_3_praca(a[4]);  //abs
001ecf 940e 2ef1 	CALL SUBOPT_0x72
001ed1 940e 30ad 	CALL SUBOPT_0xAF
                 ; 0000 1638 
                 ; 0000 1639                                    if(cykl_sterownik_3 == 5)
                 _0x2D9:
001ed3 940e 3061 	CALL SUBOPT_0xA3
001ed5 9715      	SBIW R26,5
001ed6 f421      	BRNE _0x2DA
                 ; 0000 163A                                         {
                 ; 0000 163B                                         cykl_sterownik_1 = 0;
001ed7 940e 304a 	CALL SUBOPT_0xA1
                 ; 0000 163C                                         cykl_sterownik_2 = 0;
                 ; 0000 163D                                         cykl_sterownik_3 = 0;
                 ; 0000 163E                                         cykl_sterownik_4 = 0;
                 ; 0000 163F                                         cykl_testu = 5;
                +
001ed9 e005     +LDI R16 , LOW ( 5 )
001eda e010     +LDI R17 , HIGH ( 5 )
                 	__GETWRN 16,17,5
                 ; 0000 1640                                         }
                 ; 0000 1641 
                 ; 0000 1642             break;
                 _0x2DA:
001edb c02a      	RJMP _0x2CB
                 ; 0000 1643 
                 ; 0000 1644             case 5:
                 _0x2D8:
001edc 30e5      	CPI  R30,LOW(0x5)
001edd e0a0      	LDI  R26,HIGH(0x5)
001ede 07fa      	CPC  R31,R26
001edf f469      	BRNE _0x2DB
                 ; 0000 1645 
                 ; 0000 1646                                      d = odczytaj_parametr(48,80);
001ee0 940e 2c2e 	CALL SUBOPT_0x11
001ee2 940e 2ced 	CALL SUBOPT_0x2E
001ee4 940e 0436 	CALL _odczytaj_parametr
001ee6 019f      	MOVW R18,R30
                 ; 0000 1647                                         if(d == 0)
001ee7 2e02      	MOV  R0,R18
001ee8 2a03      	OR   R0,R19
001ee9 f411      	BRNE _0x2DC
                 ; 0000 1648                                             cykl_testu = 6;
                +
001eea e006     +LDI R16 , LOW ( 6 )
001eeb e010     +LDI R17 , HIGH ( 6 )
                 	__GETWRN 16,17,6
                 ; 0000 1649 
                 ; 0000 164A             break;
                 _0x2DC:
001eec c019      	RJMP _0x2CB
                 ; 0000 164B 
                 ; 0000 164C             case 6:
                 _0x2DB:
001eed 30e6      	CPI  R30,LOW(0x6)
001eee e0a0      	LDI  R26,HIGH(0x6)
001eef 07fa      	CPC  R31,R26
001ef0 f4a9      	BRNE _0x2CB
                 ; 0000 164D 
                 ; 0000 164E                                         if(cykl_sterownik_3 < 5)
001ef1 940e 3061 	CALL SUBOPT_0xA3
001ef3 9715      	SBIW R26,5
001ef4 f424      	BRGE _0x2DE
                 ; 0000 164F                                             cykl_sterownik_3 = sterownik_3_praca(0x00);  //na sam dol, jedziemy miedzy rzedami
001ef5 940e 2cad 	CALL SUBOPT_0x24
001ef7 940e 3066 	CALL SUBOPT_0xA4
                 ; 0000 1650                                         if(cykl_sterownik_3 == 5)
                 _0x2DE:
001ef9 940e 3061 	CALL SUBOPT_0xA3
001efb 9715      	SBIW R26,5
001efc f449      	BRNE _0x2DF
                 ; 0000 1651                                             {
                 ; 0000 1652                                             cykl_sterownik_3 = 0;
001efd 940e 307e 	CALL SUBOPT_0xA8
                 ; 0000 1653                                             cykl_sterownik_4 = 0;
                 ; 0000 1654                                             cykl_testu = 7;
                +
001eff e007     +LDI R16 , LOW ( 7 )
001f00 e010     +LDI R17 , HIGH ( 7 )
                 	__GETWRN 16,17,7
                 ; 0000 1655                                             test_geometryczny_rzad_1 = 0;
001f01 e0e0      	LDI  R30,LOW(0)
001f02 93e0 0585 	STS  _test_geometryczny_rzad_1,R30
001f04 93e0 0586 	STS  _test_geometryczny_rzad_1+1,R30
                 ; 0000 1656                                             }
                 ; 0000 1657 
                 ; 0000 1658             break;
                 _0x2DF:
                 ; 0000 1659 
                 ; 0000 165A 
                 ; 0000 165B 
                 ; 0000 165C             }
                 _0x2CB:
                 ; 0000 165D 
                 ; 0000 165E         }
001f06 cf63      	RJMP _0x2C6
                 _0x2C8:
                 ; 0000 165F     }
                 ; 0000 1660 
                 ; 0000 1661 
                 ; 0000 1662 
                 ; 0000 1663                                                                    //swiatlo czer       //swiatlo zolte
                 ; 0000 1664 if(test_geometryczny_rzad_1 == 0 & test_geometryczny_rzad_2 == 1 & PORTD.7 == 0  & PORT_F.bits.b6 == 0 &
                 _0x2C5:
                 ; 0000 1665     il_zaciskow_rzad_2 > 0 & macierz_zaciskow[2]!=0)
001f07 940e 301a 	CALL SUBOPT_0x9B
001f09 940e 2f9b 	CALL SUBOPT_0x8A
001f0b 2e0e      	MOV  R0,R30
001f0c 940e 301f 	CALL SUBOPT_0x9C
001f0e 940e 2f23 	CALL SUBOPT_0x79
001f10 940e 3024 	CALL SUBOPT_0x9D
001f12 940e 30b0 	CALL SUBOPT_0xB0
001f14 940e 303a 	CALL SUBOPT_0x9F
001f16 940e 30b5 	CALL SUBOPT_0xB1
001f18 21e0      	AND  R30,R0
001f19 f411      	BRNE PC+3
001f1a 940c 1fb9 	JMP _0x2E0
                 ; 0000 1666     {
                 ; 0000 1667     while(test_geometryczny_rzad_2 == 1)
                 _0x2E1:
001f1c 940e 301f 	CALL SUBOPT_0x9C
001f1e 9711      	SBIW R26,1
001f1f f011      	BREQ PC+3
001f20 940c 1fb9 	JMP _0x2E3
                 ; 0000 1668         {
                 ; 0000 1669         switch(cykl_testu)
001f22 01f8      	MOVW R30,R16
                 ; 0000 166A             {
                 ; 0000 166B              case 0:
001f23 9730      	SBIW R30,0
001f24 f449      	BRNE _0x2E7
                 ; 0000 166C 
                 ; 0000 166D                cykl_sterownik_1 = 0;
001f25 940e 304a 	CALL SUBOPT_0xA1
                 ; 0000 166E                cykl_sterownik_2 = 0;
                 ; 0000 166F                cykl_sterownik_3 = 0;
                 ; 0000 1670                cykl_sterownik_4 = 0;
                 ; 0000 1671                wybor_linijek_sterownikow(2);
001f27 940e 30be 	CALL SUBOPT_0xB2
001f29 940e 10ac 	CALL _wybor_linijek_sterownikow
                 ; 0000 1672                cykl_testu = 1;
                +
001f2b e001     +LDI R16 , LOW ( 1 )
001f2c e010     +LDI R17 , HIGH ( 1 )
                 	__GETWRN 16,17,1
                 ; 0000 1673 
                 ; 0000 1674 
                 ; 0000 1675 
                 ; 0000 1676             break;
001f2d c08a      	RJMP _0x2E6
                 ; 0000 1677 
                 ; 0000 1678             case 1:
                 _0x2E7:
001f2e 30e1      	CPI  R30,LOW(0x1)
001f2f e0a0      	LDI  R26,HIGH(0x1)
001f30 07fa      	CPC  R31,R26
001f31 f4c1      	BRNE _0x2E8
                 ; 0000 1679 
                 ; 0000 167A             //na sam dol zjezdzamy pionami
                 ; 0000 167B                 if(cykl_sterownik_3 < 5)
001f32 940e 3061 	CALL SUBOPT_0xA3
001f34 9715      	SBIW R26,5
001f35 f424      	BRGE _0x2E9
                 ; 0000 167C                     cykl_sterownik_3 = sterownik_3_praca(0x00);  //na sam dol, jedziemy miedzy rzedami
001f36 940e 2cad 	CALL SUBOPT_0x24
001f38 940e 3066 	CALL SUBOPT_0xA4
                 ; 0000 167D                 if(cykl_sterownik_4 < 5)
                 _0x2E9:
001f3a 940e 3069 	CALL SUBOPT_0xA5
001f3c 9715      	SBIW R26,5
001f3d f424      	BRGE _0x2EA
                 ; 0000 167E                     cykl_sterownik_4 = sterownik_4_praca(0x00);  //na sam dol, jedziemy miedzy rzedami
001f3e 940e 2cad 	CALL SUBOPT_0x24
001f40 940e 306e 	CALL SUBOPT_0xA6
                 ; 0000 167F 
                 ; 0000 1680                 if(cykl_sterownik_3 == 5 & cykl_sterownik_4 == 5)
                 _0x2EA:
001f42 940e 3071 	CALL SUBOPT_0xA7
001f44 f021      	BREQ _0x2EB
                 ; 0000 1681                                         {
                 ; 0000 1682                                         cykl_sterownik_3 = 0;
001f45 940e 307e 	CALL SUBOPT_0xA8
                 ; 0000 1683                                         cykl_sterownik_4 = 0;
                 ; 0000 1684                                         cykl_testu = 2;
                +
001f47 e002     +LDI R16 , LOW ( 2 )
001f48 e010     +LDI R17 , HIGH ( 2 )
                 	__GETWRN 16,17,2
                 ; 0000 1685                                         }
                 ; 0000 1686 
                 ; 0000 1687 
                 ; 0000 1688 
                 ; 0000 1689             break;
                 _0x2EB:
001f49 c06e      	RJMP _0x2E6
                 ; 0000 168A 
                 ; 0000 168B 
                 ; 0000 168C             case 2:
                 _0x2E8:
001f4a 30e2      	CPI  R30,LOW(0x2)
001f4b e0a0      	LDI  R26,HIGH(0x2)
001f4c 07fa      	CPC  R31,R26
001f4d f4b1      	BRNE _0x2EC
                 ; 0000 168D 
                 ; 0000 168E                                 if(cykl_sterownik_1 < 5)
001f4e 940e 3088 	CALL SUBOPT_0xA9
001f50 9715      	SBIW R26,5
001f51 f424      	BRGE _0x2ED
                 ; 0000 168F                                     cykl_sterownik_1 = sterownik_1_praca(0x001);
001f52 940e 305c 	CALL SUBOPT_0xA2
001f54 940e 308d 	CALL SUBOPT_0xAA
                 ; 0000 1690                                  if(cykl_sterownik_2 < 5)                                //ster 1 pod pin pozycjonujacy rzad 2
                 _0x2ED:
001f56 940e 3090 	CALL SUBOPT_0xAB
001f58 9715      	SBIW R26,5
001f59 f414      	BRGE _0x2EE
                 ; 0000 1691                                     cykl_sterownik_2 = sterownik_2_praca(0x008);       //ster 2 ucieczka do zera (druciak)
001f5a 940e 3095 	CALL SUBOPT_0xAC
                 ; 0000 1692 
                 ; 0000 1693                                     if(cykl_sterownik_1 == 5 & cykl_sterownik_2 == 5)
                 _0x2EE:
001f5c 940e 309c 	CALL SUBOPT_0xAD
001f5e f021      	BREQ _0x2EF
                 ; 0000 1694                                         {
                 ; 0000 1695                                         cykl_sterownik_1 = 0;
001f5f 940e 304a 	CALL SUBOPT_0xA1
                 ; 0000 1696                                         cykl_sterownik_2 = 0;
                 ; 0000 1697                                         cykl_sterownik_3 = 0;
                 ; 0000 1698                                         cykl_sterownik_4 = 0;
                 ; 0000 1699                                         cykl_testu = 3;
                +
001f61 e003     +LDI R16 , LOW ( 3 )
001f62 e010     +LDI R17 , HIGH ( 3 )
                 	__GETWRN 16,17,3
                 ; 0000 169A 
                 ; 0000 169B                                         }
                 ; 0000 169C 
                 ; 0000 169D             break;
                 _0x2EF:
001f63 c054      	RJMP _0x2E6
                 ; 0000 169E 
                 ; 0000 169F 
                 ; 0000 16A0             case 3:
                 _0x2EC:
001f64 30e3      	CPI  R30,LOW(0x3)
001f65 e0a0      	LDI  R26,HIGH(0x3)
001f66 07fa      	CPC  R31,R26
001f67 f489      	BRNE _0x2F0
                 ; 0000 16A1 
                 ; 0000 16A2                                 if(cykl_sterownik_1 < 5)
001f68 940e 3088 	CALL SUBOPT_0xA9
001f6a 9715      	SBIW R26,5
001f6b f424      	BRGE _0x2F1
                 ; 0000 16A3                                     cykl_sterownik_1 = sterownik_1_praca(a[1]); //ster 1 pod srodek zacisku
001f6c 940e 30c3 	CALL SUBOPT_0xB3
001f6e 940e 308d 	CALL SUBOPT_0xAA
                 ; 0000 16A4 
                 ; 0000 16A5                                     if(cykl_sterownik_1 == 5)
                 _0x2F1:
001f70 940e 3088 	CALL SUBOPT_0xA9
001f72 9715      	SBIW R26,5
001f73 f421      	BRNE _0x2F2
                 ; 0000 16A6                                         {
                 ; 0000 16A7                                         cykl_sterownik_1 = 0;
001f74 940e 304a 	CALL SUBOPT_0xA1
                 ; 0000 16A8                                         cykl_sterownik_2 = 0;
                 ; 0000 16A9                                         cykl_sterownik_3 = 0;
                 ; 0000 16AA                                         cykl_sterownik_4 = 0;
                 ; 0000 16AB                                         cykl_testu = 4;
                +
001f76 e004     +LDI R16 , LOW ( 4 )
001f77 e010     +LDI R17 , HIGH ( 4 )
                 	__GETWRN 16,17,4
                 ; 0000 16AC                                         }
                 ; 0000 16AD 
                 ; 0000 16AE             break;
                 _0x2F2:
001f78 c03f      	RJMP _0x2E6
                 ; 0000 16AF 
                 ; 0000 16B0             case 4:
                 _0x2F0:
001f79 30e4      	CPI  R30,LOW(0x4)
001f7a e0a0      	LDI  R26,HIGH(0x4)
001f7b 07fa      	CPC  R31,R26
001f7c f489      	BRNE _0x2F3
                 ; 0000 16B1 
                 ; 0000 16B2                                    if(cykl_sterownik_3 < 5)
001f7d 940e 3061 	CALL SUBOPT_0xA3
001f7f 9715      	SBIW R26,5
001f80 f424      	BRGE _0x2F4
                 ; 0000 16B3                                         cykl_sterownik_3 = sterownik_3_praca(a[4]);  //abs
001f81 940e 2ef1 	CALL SUBOPT_0x72
001f83 940e 30ad 	CALL SUBOPT_0xAF
                 ; 0000 16B4 
                 ; 0000 16B5                                    if(cykl_sterownik_3 == 5)
                 _0x2F4:
001f85 940e 3061 	CALL SUBOPT_0xA3
001f87 9715      	SBIW R26,5
001f88 f421      	BRNE _0x2F5
                 ; 0000 16B6                                         {
                 ; 0000 16B7                                         cykl_sterownik_1 = 0;
001f89 940e 304a 	CALL SUBOPT_0xA1
                 ; 0000 16B8                                         cykl_sterownik_2 = 0;
                 ; 0000 16B9                                         cykl_sterownik_3 = 0;
                 ; 0000 16BA                                         cykl_sterownik_4 = 0;
                 ; 0000 16BB                                         cykl_testu = 5;
                +
001f8b e005     +LDI R16 , LOW ( 5 )
001f8c e010     +LDI R17 , HIGH ( 5 )
                 	__GETWRN 16,17,5
                 ; 0000 16BC                                         }
                 ; 0000 16BD 
                 ; 0000 16BE             break;
                 _0x2F5:
001f8d c02a      	RJMP _0x2E6
                 ; 0000 16BF 
                 ; 0000 16C0             case 5:
                 _0x2F3:
001f8e 30e5      	CPI  R30,LOW(0x5)
001f8f e0a0      	LDI  R26,HIGH(0x5)
001f90 07fa      	CPC  R31,R26
001f91 f469      	BRNE _0x2F6
                 ; 0000 16C1 
                 ; 0000 16C2                                      d = odczytaj_parametr(48,96);
001f92 940e 2c2e 	CALL SUBOPT_0x11
001f94 940e 2cf2 	CALL SUBOPT_0x2F
001f96 940e 0436 	CALL _odczytaj_parametr
001f98 019f      	MOVW R18,R30
                 ; 0000 16C3                                         if(d == 0)
001f99 2e02      	MOV  R0,R18
001f9a 2a03      	OR   R0,R19
001f9b f411      	BRNE _0x2F7
                 ; 0000 16C4                                             cykl_testu = 6;
                +
001f9c e006     +LDI R16 , LOW ( 6 )
001f9d e010     +LDI R17 , HIGH ( 6 )
                 	__GETWRN 16,17,6
                 ; 0000 16C5 
                 ; 0000 16C6             break;
                 _0x2F7:
001f9e c019      	RJMP _0x2E6
                 ; 0000 16C7 
                 ; 0000 16C8             case 6:
                 _0x2F6:
001f9f 30e6      	CPI  R30,LOW(0x6)
001fa0 e0a0      	LDI  R26,HIGH(0x6)
001fa1 07fa      	CPC  R31,R26
001fa2 f4a9      	BRNE _0x2E6
                 ; 0000 16C9 
                 ; 0000 16CA                                         if(cykl_sterownik_3 < 5)
001fa3 940e 3061 	CALL SUBOPT_0xA3
001fa5 9715      	SBIW R26,5
001fa6 f424      	BRGE _0x2F9
                 ; 0000 16CB                                             cykl_sterownik_3 = sterownik_3_praca(0x00);  //na sam dol, jedziemy miedzy rzedami
001fa7 940e 2cad 	CALL SUBOPT_0x24
001fa9 940e 3066 	CALL SUBOPT_0xA4
                 ; 0000 16CC                                         if(cykl_sterownik_3 == 5)
                 _0x2F9:
001fab 940e 3061 	CALL SUBOPT_0xA3
001fad 9715      	SBIW R26,5
001fae f449      	BRNE _0x2FA
                 ; 0000 16CD                                             {
                 ; 0000 16CE                                             cykl_sterownik_3 = 0;
001faf 940e 307e 	CALL SUBOPT_0xA8
                 ; 0000 16CF                                             cykl_sterownik_4 = 0;
                 ; 0000 16D0                                             cykl_testu = 7;
                +
001fb1 e007     +LDI R16 , LOW ( 7 )
001fb2 e010     +LDI R17 , HIGH ( 7 )
                 	__GETWRN 16,17,7
                 ; 0000 16D1                                             test_geometryczny_rzad_2 = 0;
001fb3 e0e0      	LDI  R30,LOW(0)
001fb4 93e0 0587 	STS  _test_geometryczny_rzad_2,R30
001fb6 93e0 0588 	STS  _test_geometryczny_rzad_2+1,R30
                 ; 0000 16D2                                             }
                 ; 0000 16D3 
                 ; 0000 16D4             break;
                 _0x2FA:
                 ; 0000 16D5 
                 ; 0000 16D6 
                 ; 0000 16D7 
                 ; 0000 16D8             }
                 _0x2E6:
                 ; 0000 16D9 
                 ; 0000 16DA         }
001fb8 cf63      	RJMP _0x2E1
                 _0x2E3:
                 ; 0000 16DB     }
                 ; 0000 16DC 
                 ; 0000 16DD 
                 ; 0000 16DE 
                 ; 0000 16DF 
                 ; 0000 16E0 
                 ; 0000 16E1 }
                 _0x2E0:
001fb9 940e 33d4 	CALL __LOADLOCR4
001fbb 9624      	ADIW R28,4
001fbc 9508      	RET
                 ;
                 ;
                 ;
                 ;
                 ;
                 ;void kontrola_zoltego_swiatla()
                 ; 0000 16E8 {
                 _kontrola_zoltego_swiatla:
                 ; 0000 16E9 
                 ; 0000 16EA 
                 ; 0000 16EB if(czas_pracy_szczotki_drucianej_h >= czas_pracy_szczotki_drucianej_stala)
001fbd 940e 2c00 	CALL SUBOPT_0x9
001fbf 010f      	MOVW R0,R30
001fc0 940e 2c7c 	CALL SUBOPT_0x1C
001fc2 160e      	CP   R0,R30
001fc3 061f      	CPC  R1,R31
001fc4 f09c      	BRLT _0x2FB
                 ; 0000 16EC      {
                 ; 0000 16ED      PORT_F.bits.b6 = 1;
001fc5 91e0 0500 	LDS  R30,_PORT_F
001fc7 64e0      	ORI  R30,0x40
001fc8 940e 2ff4 	CALL SUBOPT_0x95
                 ; 0000 16EE      PORTF = PORT_F.byte;
                 ; 0000 16EF      komunikat_na_panel("                                                ",80,0);
001fca 940e 30ca 	CALL SUBOPT_0xB4
001fcc 940e 30cf 	CALL SUBOPT_0xB5
001fce 940e 04a8 	CALL _komunikat_na_panel
                 ; 0000 16F0      komunikat_na_panel("Wymien szczotke pedzelkowa",80,0);
                +
001fd0 e6e9     +LDI R30 , LOW ( 2 * _0x0 + ( 1737 ) )
001fd1 e0f7     +LDI R31 , HIGH ( 2 * _0x0 + ( 1737 ) )
                 	__POINTW1FN _0x0,1737
001fd2 93fa      	ST   -Y,R31
001fd3 93ea      	ST   -Y,R30
001fd4 940e 30cf 	CALL SUBOPT_0xB5
001fd6 940e 04a8 	CALL _komunikat_na_panel
                 ; 0000 16F1      }
                 ; 0000 16F2 
                 ; 0000 16F3 if(czas_pracy_krazka_sciernego_h >= czas_pracy_krazka_sciernego_stala)
                 _0x2FB:
001fd8 940e 2c0b 	CALL SUBOPT_0xB
001fda 010f      	MOVW R0,R30
001fdb 940e 2c77 	CALL SUBOPT_0x1B
001fdd 160e      	CP   R0,R30
001fde 061f      	CPC  R1,R31
001fdf f09c      	BRLT _0x2FC
                 ; 0000 16F4      {
                 ; 0000 16F5      PORT_F.bits.b6 = 1;
001fe0 91e0 0500 	LDS  R30,_PORT_F
001fe2 64e0      	ORI  R30,0x40
001fe3 940e 2ff4 	CALL SUBOPT_0x95
                 ; 0000 16F6      PORTF = PORT_F.byte;
                 ; 0000 16F7      komunikat_na_panel("                                                ",64,0);
001fe5 940e 30ca 	CALL SUBOPT_0xB4
001fe7 940e 30d2 	CALL SUBOPT_0xB6
001fe9 940e 04a8 	CALL _komunikat_na_panel
                 ; 0000 16F8      komunikat_na_panel("Wymien krazek scierny",64,0);
                +
001feb e8e4     +LDI R30 , LOW ( 2 * _0x0 + ( 1764 ) )
001fec e0f7     +LDI R31 , HIGH ( 2 * _0x0 + ( 1764 ) )
                 	__POINTW1FN _0x0,1764
001fed 93fa      	ST   -Y,R31
001fee 93ea      	ST   -Y,R30
001fef 940e 30d2 	CALL SUBOPT_0xB6
001ff1 940e 04a8 	CALL _komunikat_na_panel
                 ; 0000 16F9      }
                 ; 0000 16FA 
                 ; 0000 16FB 
                 ; 0000 16FC }
                 _0x2FC:
001ff3 9508      	RET
                 ;
                 ;void wymiana_szczotki_i_krazka()
                 ; 0000 16FF {
                 _wymiana_szczotki_i_krazka:
                 ; 0000 1700 int g,e,f,d,cykl_wymiany;
                 ; 0000 1701 cykl_wymiany = 0;
001ff4 9724      	SBIW R28,4
001ff5 940e 33cb 	CALL __SAVELOCR6
                 ;	g -> R16,R17
                 ;	e -> R18,R19
                 ;	f -> R20,R21
                 ;	d -> Y+8
                 ;	cykl_wymiany -> Y+6
001ff7 e0e0      	LDI  R30,LOW(0)
001ff8 83ee      	STD  Y+6,R30
001ff9 83ef      	STD  Y+6+1,R30
                 ; 0000 1702                       //30 //20
                 ; 0000 1703 g = odczytaj_parametr(48,32);  //szczotka druciana
001ffa 940e 2c2e 	CALL SUBOPT_0x11
001ffc 940e 2d29 	CALL SUBOPT_0x35
001ffe 940e 0436 	CALL _odczytaj_parametr
002000 018f      	MOVW R16,R30
                 ; 0000 1704                     //30  //30
                 ; 0000 1705 f = odczytaj_parametr(48,48);  //krazek scierny
002001 940e 2c2e 	CALL SUBOPT_0x11
002003 940e 2c2e 	CALL SUBOPT_0x11
002005 940e 0436 	CALL _odczytaj_parametr
002007 01af      	MOVW R20,R30
                 ; 0000 1706 
                 ; 0000 1707 while(g == 1)
                 _0x2FD:
002008 e0e1      	LDI  R30,LOW(1)
002009 e0f0      	LDI  R31,HIGH(1)
00200a 17e0      	CP   R30,R16
00200b 07f1      	CPC  R31,R17
00200c f011      	BREQ PC+3
00200d 940c 20c8 	JMP _0x2FF
                 ; 0000 1708     {
                 ; 0000 1709     switch(cykl_wymiany)
00200f 81ee      	LDD  R30,Y+6
002010 81ff      	LDD  R31,Y+6+1
                 ; 0000 170A     {
                 ; 0000 170B     case 0:
002011 9730      	SBIW R30,0
002012 f439      	BRNE _0x303
                 ; 0000 170C 
                 ; 0000 170D                cykl_sterownik_1 = 0;
002013 940e 304a 	CALL SUBOPT_0xA1
                 ; 0000 170E                cykl_sterownik_2 = 0;
                 ; 0000 170F                cykl_sterownik_3 = 0;
                 ; 0000 1710                cykl_sterownik_4 = 0;
                 ; 0000 1711                cykl_wymiany = 1;
002015 e0e1      	LDI  R30,LOW(1)
002016 e0f0      	LDI  R31,HIGH(1)
002017 83ee      	STD  Y+6,R30
002018 83ff      	STD  Y+6+1,R31
                 ; 0000 1712 
                 ; 0000 1713 
                 ; 0000 1714 
                 ; 0000 1715     break;
002019 c0ad      	RJMP _0x302
                 ; 0000 1716 
                 ; 0000 1717     case 1:
                 _0x303:
00201a 30e1      	CPI  R30,LOW(0x1)
00201b e0a0      	LDI  R26,HIGH(0x1)
00201c 07fa      	CPC  R31,R26
00201d f4d1      	BRNE _0x304
                 ; 0000 1718 
                 ; 0000 1719             //na sam dol zjezdzamy pionami
                 ; 0000 171A                 if(cykl_sterownik_3 < 5)
00201e 940e 3061 	CALL SUBOPT_0xA3
002020 9715      	SBIW R26,5
002021 f424      	BRGE _0x305
                 ; 0000 171B                     cykl_sterownik_3 = sterownik_3_praca(0x00);  //na sam dol, jedziemy miedzy rzedami
002022 940e 2cad 	CALL SUBOPT_0x24
002024 940e 3066 	CALL SUBOPT_0xA4
                 ; 0000 171C                 if(cykl_sterownik_4 < 5)
                 _0x305:
002026 940e 3069 	CALL SUBOPT_0xA5
002028 9715      	SBIW R26,5
002029 f424      	BRGE _0x306
                 ; 0000 171D                     cykl_sterownik_4 = sterownik_4_praca(0x00);  //na sam dol, jedziemy miedzy rzedami
00202a 940e 2cad 	CALL SUBOPT_0x24
00202c 940e 306e 	CALL SUBOPT_0xA6
                 ; 0000 171E 
                 ; 0000 171F                 if(cykl_sterownik_3 == 5 & cykl_sterownik_4 == 5)
                 _0x306:
00202e 940e 3071 	CALL SUBOPT_0xA7
002030 f031      	BREQ _0x307
                 ; 0000 1720 
                 ; 0000 1721                             {
                 ; 0000 1722                                         cykl_sterownik_3 = 0;
002031 940e 307e 	CALL SUBOPT_0xA8
                 ; 0000 1723                                         cykl_sterownik_4 = 0;
                 ; 0000 1724                                         cykl_wymiany = 2;
002033 e0e2      	LDI  R30,LOW(2)
002034 e0f0      	LDI  R31,HIGH(2)
002035 83ee      	STD  Y+6,R30
002036 83ff      	STD  Y+6+1,R31
                 ; 0000 1725                                         }
                 ; 0000 1726 
                 ; 0000 1727 
                 ; 0000 1728 
                 ; 0000 1729     break;
                 _0x307:
002037 c08f      	RJMP _0x302
                 ; 0000 172A 
                 ; 0000 172B 
                 ; 0000 172C 
                 ; 0000 172D     case 2:
                 _0x304:
002038 30e2      	CPI  R30,LOW(0x2)
002039 e0a0      	LDI  R26,HIGH(0x2)
00203a 07fa      	CPC  R31,R26
00203b f4c1      	BRNE _0x308
                 ; 0000 172E 
                 ; 0000 172F                                 if(cykl_sterownik_1 < 5)
00203c 940e 3088 	CALL SUBOPT_0xA9
00203e 9715      	SBIW R26,5
00203f f424      	BRGE _0x309
                 ; 0000 1730                                     cykl_sterownik_1 = sterownik_1_praca(0x1F9);
002040 940e 30d5 	CALL SUBOPT_0xB7
002042 940e 308d 	CALL SUBOPT_0xAA
                 ; 0000 1731                                  if(cykl_sterownik_2 < 5)                                //ster 1 do 0
                 _0x309:
002044 940e 3090 	CALL SUBOPT_0xAB
002046 9715      	SBIW R26,5
002047 f424      	BRGE _0x30A
                 ; 0000 1732                                     cykl_sterownik_2 = sterownik_2_praca(0x1F9);       //ster 2 pod pin pozy rzad 1
002048 940e 30d5 	CALL SUBOPT_0xB7
00204a 940e 30da 	CALL SUBOPT_0xB8
                 ; 0000 1733 
                 ; 0000 1734                                     if(cykl_sterownik_1 == 5 & cykl_sterownik_2 == 5)
                 _0x30A:
00204c 940e 309c 	CALL SUBOPT_0xAD
00204e f021      	BREQ _0x30B
                 ; 0000 1735                                         {
                 ; 0000 1736                                         cykl_sterownik_1 = 0;
00204f 940e 304a 	CALL SUBOPT_0xA1
                 ; 0000 1737                                         cykl_sterownik_2 = 0;
                 ; 0000 1738                                         cykl_sterownik_3 = 0;
                 ; 0000 1739                                         cykl_sterownik_4 = 0;
                 ; 0000 173A                                          cykl_wymiany = 3;
002051 940e 30dd 	CALL SUBOPT_0xB9
                 ; 0000 173B 
                 ; 0000 173C                                         }
                 ; 0000 173D 
                 ; 0000 173E     break;
                 _0x30B:
002053 c073      	RJMP _0x302
                 ; 0000 173F 
                 ; 0000 1740 
                 ; 0000 1741 
                 ; 0000 1742     case 3:
                 _0x308:
002054 30e3      	CPI  R30,LOW(0x3)
002055 e0a0      	LDI  R26,HIGH(0x3)
002056 07fa      	CPC  R31,R26
002057 f011      	BREQ PC+3
002058 940c 20a0 	JMP _0x30C
                 ; 0000 1743 
                 ; 0000 1744             //na sam dol zjezdzamy pionami
                 ; 0000 1745                 if(cykl_sterownik_3 < 5)
00205a 940e 3061 	CALL SUBOPT_0xA3
00205c 9715      	SBIW R26,5
00205d f424      	BRGE _0x30D
                 ; 0000 1746                     cykl_sterownik_3 = sterownik_3_praca(0x02);  //do pozycji wymiany
00205e e0e2      	LDI  R30,LOW(2)
00205f e0f0      	LDI  R31,HIGH(2)
002060 940e 30ad 	CALL SUBOPT_0xAF
                 ; 0000 1747                 if(cykl_sterownik_4 < 5)
                 _0x30D:
002062 940e 3069 	CALL SUBOPT_0xA5
002064 9715      	SBIW R26,5
002065 f424      	BRGE _0x30E
                 ; 0000 1748                     cykl_sterownik_4 = sterownik_4_praca(0x02);  //do pozycji wymiany
002066 940e 30be 	CALL SUBOPT_0xB2
002068 940e 306e 	CALL SUBOPT_0xA6
                 ; 0000 1749 
                 ; 0000 174A                 if(cykl_sterownik_3 == 5 & cykl_sterownik_4 == 5)
                 _0x30E:
00206a 940e 3071 	CALL SUBOPT_0xA7
00206c f191      	BREQ _0x30F
                 ; 0000 174B 
                 ; 0000 174C                             {
                 ; 0000 174D                                         cykl_sterownik_3 = 0;
00206d 940e 307e 	CALL SUBOPT_0xA8
                 ; 0000 174E                                         cykl_sterownik_4 = 0;
                 ; 0000 174F                                         d = odczytaj_parametr(48,32);
00206f 940e 2c2e 	CALL SUBOPT_0x11
002071 940e 2d29 	CALL SUBOPT_0x35
002073 940e 0436 	CALL _odczytaj_parametr
002075 87e8      	STD  Y+8,R30
002076 87f9      	STD  Y+8+1,R31
                 ; 0000 1750 
                 ; 0000 1751                                         switch (d)
                 ; 0000 1752                                         {
                 ; 0000 1753                                         case 0:
002077 9730      	SBIW R30,0
002078 f111      	BREQ _0x47F
                 ; 0000 1754 
                 ; 0000 1755                                              cykl_wymiany = 4;
                 ; 0000 1756                                              //jednak nie wymianiamy
                 ; 0000 1757 
                 ; 0000 1758                                         break;
                 ; 0000 1759 
                 ; 0000 175A                                         case 1:
002079 30e1      	CPI  R30,LOW(0x1)
00207a e0a0      	LDI  R26,HIGH(0x1)
00207b 07fa      	CPC  R31,R26
00207c f419      	BRNE _0x314
                 ; 0000 175B                                              cykl_wymiany = 3;
00207d e0e3      	LDI  R30,LOW(3)
00207e e0f0      	LDI  R31,HIGH(3)
00207f c01d      	RJMP _0x480
                 ; 0000 175C                                              //czekam z decyzja - w trakcie wymiany
                 ; 0000 175D                                         break;
                 ; 0000 175E 
                 ; 0000 175F                                         case 2:
                 _0x314:
002080 30e2      	CPI  R30,LOW(0x2)
002081 e0a0      	LDI  R26,HIGH(0x2)
002082 07fa      	CPC  R31,R26
002083 f4d9      	BRNE _0x312
                 ; 0000 1760 
                 ; 0000 1761                                              wymieniono_szczotke_druciana = 1;
002084 e0e1      	LDI  R30,LOW(1)
002085 e0f0      	LDI  R31,HIGH(1)
002086 93e0 0579 	STS  _wymieniono_szczotke_druciana,R30
002088 93f0 057a 	STS  _wymieniono_szczotke_druciana+1,R31
                 ; 0000 1762                                              PORT_F.bits.b6 = 0;   //zgas lampke
00208a 91e0 0500 	LDS  R30,_PORT_F
00208c 7bef      	ANDI R30,0xBF
00208d 940e 2ff4 	CALL SUBOPT_0x95
                 ; 0000 1763                                              PORTF = PORT_F.byte;
                 ; 0000 1764                                              czas_pracy_szczotki_drucianej = 0;
00208f 940e 2bfa 	CALL SUBOPT_0x8
                 ; 0000 1765                                              czas_pracy_szczotki_drucianej_h = 0;
002091 940e 2c90 	CALL SUBOPT_0x20
                 ; 0000 1766                                              zaktualizuj_parametry_panelu();
002093 940e 04dd 	CALL _zaktualizuj_parametry_panelu
                 ; 0000 1767                                              komunikat_na_panel("                                                ",80,0);
002095 940e 30ca 	CALL SUBOPT_0xB4
002097 940e 30cf 	CALL SUBOPT_0xB5
002099 940e 04a8 	CALL _komunikat_na_panel
                 ; 0000 1768                                              cykl_wymiany = 4;
                 _0x47F:
00209b e0e4      	LDI  R30,LOW(4)
00209c e0f0      	LDI  R31,HIGH(4)
                 _0x480:
00209d 83ee      	STD  Y+6,R30
00209e 83ff      	STD  Y+6+1,R31
                 ; 0000 1769                                              //wymianymy
                 ; 0000 176A                                         break;
                 ; 0000 176B                                         }
                 _0x312:
                 ; 0000 176C                             }
                 ; 0000 176D 
                 ; 0000 176E 
                 ; 0000 176F 
                 ; 0000 1770 
                 ; 0000 1771 
                 ; 0000 1772 
                 ; 0000 1773     break;
                 _0x30F:
00209f c027      	RJMP _0x302
                 ; 0000 1774 
                 ; 0000 1775    case 4:
                 _0x30C:
0020a0 30e4      	CPI  R30,LOW(0x4)
0020a1 e0a0      	LDI  R26,HIGH(0x4)
0020a2 07fa      	CPC  R31,R26
0020a3 f519      	BRNE _0x302
                 ; 0000 1776 
                 ; 0000 1777                       //na sam dol zjezdzamy pionami
                 ; 0000 1778                 if(cykl_sterownik_3 < 5)
0020a4 940e 3061 	CALL SUBOPT_0xA3
0020a6 9715      	SBIW R26,5
0020a7 f424      	BRGE _0x317
                 ; 0000 1779                     cykl_sterownik_3 = sterownik_3_praca(0x00);  //na sam dol, jedziemy miedzy rzedami
0020a8 940e 2cad 	CALL SUBOPT_0x24
0020aa 940e 3066 	CALL SUBOPT_0xA4
                 ; 0000 177A                 if(cykl_sterownik_4 < 5)
                 _0x317:
0020ac 940e 3069 	CALL SUBOPT_0xA5
0020ae 9715      	SBIW R26,5
0020af f424      	BRGE _0x318
                 ; 0000 177B                     cykl_sterownik_4 = sterownik_4_praca(0x00);  //na sam dol, jedziemy miedzy rzedami
0020b0 940e 2cad 	CALL SUBOPT_0x24
0020b2 940e 306e 	CALL SUBOPT_0xA6
                 ; 0000 177C 
                 ; 0000 177D                 if(cykl_sterownik_3 == 5 & cykl_sterownik_4 == 5)
                 _0x318:
0020b4 940e 3071 	CALL SUBOPT_0xA7
0020b6 f081      	BREQ _0x319
                 ; 0000 177E 
                 ; 0000 177F                             {
                 ; 0000 1780                                         cykl_sterownik_1 = 0;
0020b7 940e 304a 	CALL SUBOPT_0xA1
                 ; 0000 1781                                         cykl_sterownik_2 = 0;
                 ; 0000 1782                                         cykl_sterownik_3 = 0;
                 ; 0000 1783                                         cykl_sterownik_4 = 0;
                 ; 0000 1784                                         wartosc_parametru_panelu(0,48,32);
0020b9 940e 2cad 	CALL SUBOPT_0x24
0020bb 940e 2c2e 	CALL SUBOPT_0x11
0020bd 940e 2d29 	CALL SUBOPT_0x35
0020bf 940e 04c5 	CALL _wartosc_parametru_panelu
                 ; 0000 1785                                         cykl_wymiany = 5;
0020c1 e0e5      	LDI  R30,LOW(5)
0020c2 e0f0      	LDI  R31,HIGH(5)
0020c3 83ee      	STD  Y+6,R30
0020c4 83ff      	STD  Y+6+1,R31
                 ; 0000 1786                                         g = 0;
                +
0020c5 e000     +LDI R16 , LOW ( 0 )
0020c6 e010     +LDI R17 , HIGH ( 0 )
                 	__GETWRN 16,17,0
                 ; 0000 1787                                         }
                 ; 0000 1788 
                 ; 0000 1789    break;
                 _0x319:
                 ; 0000 178A 
                 ; 0000 178B 
                 ; 0000 178C     }//switch
                 _0x302:
                 ; 0000 178D 
                 ; 0000 178E    }//while
0020c7 cf40      	RJMP _0x2FD
                 _0x2FF:
                 ; 0000 178F 
                 ; 0000 1790 f = odczytaj_parametr(48,48);  //krazek scierny
0020c8 940e 2c2e 	CALL SUBOPT_0x11
0020ca 940e 2c2e 	CALL SUBOPT_0x11
0020cc 940e 0436 	CALL _odczytaj_parametr
0020ce 01af      	MOVW R20,R30
                 ; 0000 1791 cykl_wymiany = 0;
0020cf e0e0      	LDI  R30,LOW(0)
0020d0 83ee      	STD  Y+6,R30
0020d1 83ef      	STD  Y+6+1,R30
                 ; 0000 1792 
                 ; 0000 1793 while(f == 1)
                 _0x31A:
0020d2 e0e1      	LDI  R30,LOW(1)
0020d3 e0f0      	LDI  R31,HIGH(1)
0020d4 17e4      	CP   R30,R20
0020d5 07f5      	CPC  R31,R21
0020d6 f011      	BREQ PC+3
0020d7 940c 2197 	JMP _0x31C
                 ; 0000 1794     {
                 ; 0000 1795     switch(cykl_wymiany)
0020d9 81ee      	LDD  R30,Y+6
0020da 81ff      	LDD  R31,Y+6+1
                 ; 0000 1796     {
                 ; 0000 1797     case 0:
0020db 9730      	SBIW R30,0
0020dc f439      	BRNE _0x320
                 ; 0000 1798 
                 ; 0000 1799                cykl_sterownik_1 = 0;
0020dd 940e 304a 	CALL SUBOPT_0xA1
                 ; 0000 179A                cykl_sterownik_2 = 0;
                 ; 0000 179B                cykl_sterownik_3 = 0;
                 ; 0000 179C                cykl_sterownik_4 = 0;
                 ; 0000 179D                cykl_wymiany = 1;
0020df e0e1      	LDI  R30,LOW(1)
0020e0 e0f0      	LDI  R31,HIGH(1)
0020e1 83ee      	STD  Y+6,R30
0020e2 83ff      	STD  Y+6+1,R31
                 ; 0000 179E 
                 ; 0000 179F 
                 ; 0000 17A0 
                 ; 0000 17A1     break;
0020e3 c0b2      	RJMP _0x31F
                 ; 0000 17A2 
                 ; 0000 17A3     case 1:
                 _0x320:
0020e4 30e1      	CPI  R30,LOW(0x1)
0020e5 e0a0      	LDI  R26,HIGH(0x1)
0020e6 07fa      	CPC  R31,R26
0020e7 f4d1      	BRNE _0x321
                 ; 0000 17A4 
                 ; 0000 17A5             //na sam dol zjezdzamy pionami
                 ; 0000 17A6                 if(cykl_sterownik_3 < 5)
0020e8 940e 3061 	CALL SUBOPT_0xA3
0020ea 9715      	SBIW R26,5
0020eb f424      	BRGE _0x322
                 ; 0000 17A7                     cykl_sterownik_3 = sterownik_3_praca(0x00);  //na sam dol, jedziemy miedzy rzedami
0020ec 940e 2cad 	CALL SUBOPT_0x24
0020ee 940e 3066 	CALL SUBOPT_0xA4
                 ; 0000 17A8                 if(cykl_sterownik_4 < 5)
                 _0x322:
0020f0 940e 3069 	CALL SUBOPT_0xA5
0020f2 9715      	SBIW R26,5
0020f3 f424      	BRGE _0x323
                 ; 0000 17A9                     cykl_sterownik_4 = sterownik_4_praca(0x00);  //na sam dol, jedziemy miedzy rzedami
0020f4 940e 2cad 	CALL SUBOPT_0x24
0020f6 940e 306e 	CALL SUBOPT_0xA6
                 ; 0000 17AA 
                 ; 0000 17AB                 if(cykl_sterownik_3 == 5 & cykl_sterownik_4 == 5)
                 _0x323:
0020f8 940e 3071 	CALL SUBOPT_0xA7
0020fa f031      	BREQ _0x324
                 ; 0000 17AC 
                 ; 0000 17AD                             {
                 ; 0000 17AE                                         cykl_sterownik_3 = 0;
0020fb 940e 307e 	CALL SUBOPT_0xA8
                 ; 0000 17AF                                         cykl_sterownik_4 = 0;
                 ; 0000 17B0                                         cykl_wymiany = 2;
0020fd e0e2      	LDI  R30,LOW(2)
0020fe e0f0      	LDI  R31,HIGH(2)
0020ff 83ee      	STD  Y+6,R30
002100 83ff      	STD  Y+6+1,R31
                 ; 0000 17B1                                         }
                 ; 0000 17B2 
                 ; 0000 17B3 
                 ; 0000 17B4 
                 ; 0000 17B5     break;
                 _0x324:
002101 c094      	RJMP _0x31F
                 ; 0000 17B6 
                 ; 0000 17B7 
                 ; 0000 17B8 
                 ; 0000 17B9     case 2:
                 _0x321:
002102 30e2      	CPI  R30,LOW(0x2)
002103 e0a0      	LDI  R26,HIGH(0x2)
002104 07fa      	CPC  R31,R26
002105 f4c1      	BRNE _0x325
                 ; 0000 17BA 
                 ; 0000 17BB                                 if(cykl_sterownik_1 < 5)
002106 940e 3088 	CALL SUBOPT_0xA9
002108 9715      	SBIW R26,5
002109 f424      	BRGE _0x326
                 ; 0000 17BC                                     cykl_sterownik_1 = sterownik_1_praca(0x1F9);
00210a 940e 30d5 	CALL SUBOPT_0xB7
00210c 940e 308d 	CALL SUBOPT_0xAA
                 ; 0000 17BD                                  if(cykl_sterownik_2 < 5)                                //ster 1 do 0
                 _0x326:
00210e 940e 3090 	CALL SUBOPT_0xAB
002110 9715      	SBIW R26,5
002111 f424      	BRGE _0x327
                 ; 0000 17BE                                     cykl_sterownik_2 = sterownik_2_praca(0x1F9);       //ster 2 pod pin pozy rzad 1
002112 940e 30d5 	CALL SUBOPT_0xB7
002114 940e 30da 	CALL SUBOPT_0xB8
                 ; 0000 17BF 
                 ; 0000 17C0                                     if(cykl_sterownik_1 == 5 & cykl_sterownik_2 == 5)
                 _0x327:
002116 940e 309c 	CALL SUBOPT_0xAD
002118 f021      	BREQ _0x328
                 ; 0000 17C1                                         {
                 ; 0000 17C2                                         cykl_sterownik_1 = 0;
002119 940e 304a 	CALL SUBOPT_0xA1
                 ; 0000 17C3                                         cykl_sterownik_2 = 0;
                 ; 0000 17C4                                         cykl_sterownik_3 = 0;
                 ; 0000 17C5                                         cykl_sterownik_4 = 0;
                 ; 0000 17C6                                          cykl_wymiany = 3;
00211b 940e 30dd 	CALL SUBOPT_0xB9
                 ; 0000 17C7 
                 ; 0000 17C8                                         }
                 ; 0000 17C9 
                 ; 0000 17CA     break;
                 _0x328:
00211d c078      	RJMP _0x31F
                 ; 0000 17CB 
                 ; 0000 17CC 
                 ; 0000 17CD 
                 ; 0000 17CE     case 3:
                 _0x325:
00211e 30e3      	CPI  R30,LOW(0x3)
00211f e0a0      	LDI  R26,HIGH(0x3)
002120 07fa      	CPC  R31,R26
002121 f011      	BREQ PC+3
002122 940c 216f 	JMP _0x329
                 ; 0000 17CF 
                 ; 0000 17D0             //na sam dol zjezdzamy pionami
                 ; 0000 17D1                 if(cykl_sterownik_3 < 5)
002124 940e 3061 	CALL SUBOPT_0xA3
002126 9715      	SBIW R26,5
002127 f424      	BRGE _0x32A
                 ; 0000 17D2                     cykl_sterownik_3 = sterownik_3_praca(0x02);  //do pozycji wymiany
002128 e0e2      	LDI  R30,LOW(2)
002129 e0f0      	LDI  R31,HIGH(2)
00212a 940e 30ad 	CALL SUBOPT_0xAF
                 ; 0000 17D3                 if(cykl_sterownik_4 < 5)
                 _0x32A:
00212c 940e 3069 	CALL SUBOPT_0xA5
00212e 9715      	SBIW R26,5
00212f f424      	BRGE _0x32B
                 ; 0000 17D4                     cykl_sterownik_4 = sterownik_4_praca(0x02);  //do pozycji wymiany
002130 940e 30be 	CALL SUBOPT_0xB2
002132 940e 306e 	CALL SUBOPT_0xA6
                 ; 0000 17D5 
                 ; 0000 17D6                 if(cykl_sterownik_3 == 5 & cykl_sterownik_4 == 5)
                 _0x32B:
002134 940e 3071 	CALL SUBOPT_0xA7
002136 f1b9      	BREQ _0x32C
                 ; 0000 17D7 
                 ; 0000 17D8                             {
                 ; 0000 17D9                                         cykl_sterownik_3 = 0;
002137 940e 307e 	CALL SUBOPT_0xA8
                 ; 0000 17DA                                         cykl_sterownik_4 = 0;
                 ; 0000 17DB                                         e = odczytaj_parametr(48,48);
002139 940e 2c2e 	CALL SUBOPT_0x11
00213b 940e 2c2e 	CALL SUBOPT_0x11
00213d 940e 0436 	CALL _odczytaj_parametr
00213f 019f      	MOVW R18,R30
                 ; 0000 17DC 
                 ; 0000 17DD                                         switch (e)
002140 01f9      	MOVW R30,R18
                 ; 0000 17DE                                         {
                 ; 0000 17DF                                         case 0:
002141 9730      	SBIW R30,0
002142 f429      	BRNE _0x330
                 ; 0000 17E0 
                 ; 0000 17E1                                              cykl_wymiany = 4;
002143 e0e4      	LDI  R30,LOW(4)
002144 e0f0      	LDI  R31,HIGH(4)
002145 83ee      	STD  Y+6,R30
002146 83ff      	STD  Y+6+1,R31
                 ; 0000 17E2                                              //jednak nie wymianiamy
                 ; 0000 17E3 
                 ; 0000 17E4                                         break;
002147 c026      	RJMP _0x32F
                 ; 0000 17E5 
                 ; 0000 17E6                                         case 1:
                 _0x330:
002148 30e1      	CPI  R30,LOW(0x1)
002149 e0a0      	LDI  R26,HIGH(0x1)
00214a 07fa      	CPC  R31,R26
00214b f419      	BRNE _0x331
                 ; 0000 17E7                                              cykl_wymiany = 3;
00214c 940e 30dd 	CALL SUBOPT_0xB9
                 ; 0000 17E8                                              //czekam z decyzja - w trakcie wymiany
                 ; 0000 17E9                                         break;
00214e c01f      	RJMP _0x32F
                 ; 0000 17EA 
                 ; 0000 17EB                                         case 2:
                 _0x331:
00214f 30e2      	CPI  R30,LOW(0x2)
002150 e0a0      	LDI  R26,HIGH(0x2)
002151 07fa      	CPC  R31,R26
002152 f4d9      	BRNE _0x32F
                 ; 0000 17EC                                              cykl_wymiany = 4;
002153 e0e4      	LDI  R30,LOW(4)
002154 e0f0      	LDI  R31,HIGH(4)
002155 83ee      	STD  Y+6,R30
002156 83ff      	STD  Y+6+1,R31
                 ; 0000 17ED                                              wymieniono_krazek_scierny = 1;
002157 e0e1      	LDI  R30,LOW(1)
002158 e0f0      	LDI  R31,HIGH(1)
002159 93e0 057b 	STS  _wymieniono_krazek_scierny,R30
00215b 93f0 057c 	STS  _wymieniono_krazek_scierny+1,R31
                 ; 0000 17EE                                              PORT_F.bits.b6 = 0;   //zgas lampke
00215d 91e0 0500 	LDS  R30,_PORT_F
00215f 7bef      	ANDI R30,0xBF
002160 940e 2ff4 	CALL SUBOPT_0x95
                 ; 0000 17EF                                              PORTF = PORT_F.byte;
                 ; 0000 17F0                                              czas_pracy_krazka_sciernego = 0;
002162 940e 2c05 	CALL SUBOPT_0xA
                 ; 0000 17F1                                              czas_pracy_krazka_sciernego_h = 0;
002164 940e 2c97 	CALL SUBOPT_0x21
                 ; 0000 17F2                                              zaktualizuj_parametry_panelu();
002166 940e 04dd 	CALL _zaktualizuj_parametry_panelu
                 ; 0000 17F3                                              komunikat_na_panel("                                                ",64,0);
002168 940e 30ca 	CALL SUBOPT_0xB4
00216a 940e 30d2 	CALL SUBOPT_0xB6
00216c 940e 04a8 	CALL _komunikat_na_panel
                 ; 0000 17F4                                              //wymianymy
                 ; 0000 17F5                                         break;
                 ; 0000 17F6                                         }
                 _0x32F:
                 ; 0000 17F7                             }
                 ; 0000 17F8 
                 ; 0000 17F9 
                 ; 0000 17FA 
                 ; 0000 17FB 
                 ; 0000 17FC 
                 ; 0000 17FD 
                 ; 0000 17FE     break;
                 _0x32C:
00216e c027      	RJMP _0x31F
                 ; 0000 17FF 
                 ; 0000 1800    case 4:
                 _0x329:
00216f 30e4      	CPI  R30,LOW(0x4)
002170 e0a0      	LDI  R26,HIGH(0x4)
002171 07fa      	CPC  R31,R26
002172 f519      	BRNE _0x31F
                 ; 0000 1801 
                 ; 0000 1802                       //na sam dol zjezdzamy pionami
                 ; 0000 1803                 if(cykl_sterownik_3 < 5)
002173 940e 3061 	CALL SUBOPT_0xA3
002175 9715      	SBIW R26,5
002176 f424      	BRGE _0x334
                 ; 0000 1804                     cykl_sterownik_3 = sterownik_3_praca(0x00);  //na sam dol, jedziemy miedzy rzedami
002177 940e 2cad 	CALL SUBOPT_0x24
002179 940e 3066 	CALL SUBOPT_0xA4
                 ; 0000 1805                 if(cykl_sterownik_4 < 5)
                 _0x334:
00217b 940e 3069 	CALL SUBOPT_0xA5
00217d 9715      	SBIW R26,5
00217e f424      	BRGE _0x335
                 ; 0000 1806                     cykl_sterownik_4 = sterownik_4_praca(0x00);  //na sam dol, jedziemy miedzy rzedami
00217f 940e 2cad 	CALL SUBOPT_0x24
002181 940e 306e 	CALL SUBOPT_0xA6
                 ; 0000 1807 
                 ; 0000 1808                 if(cykl_sterownik_3 == 5 & cykl_sterownik_4 == 5)
                 _0x335:
002183 940e 3071 	CALL SUBOPT_0xA7
002185 f081      	BREQ _0x336
                 ; 0000 1809 
                 ; 0000 180A                             {
                 ; 0000 180B                                         cykl_sterownik_1 = 0;
002186 940e 304a 	CALL SUBOPT_0xA1
                 ; 0000 180C                                         cykl_sterownik_2 = 0;
                 ; 0000 180D                                         cykl_sterownik_3 = 0;
                 ; 0000 180E                                         cykl_sterownik_4 = 0;
                 ; 0000 180F                                         cykl_wymiany = 5;
002188 e0e5      	LDI  R30,LOW(5)
002189 e0f0      	LDI  R31,HIGH(5)
00218a 83ee      	STD  Y+6,R30
00218b 83ff      	STD  Y+6+1,R31
                 ; 0000 1810                                         wartosc_parametru_panelu(0,48,48);
00218c 940e 2cad 	CALL SUBOPT_0x24
00218e 940e 2c2e 	CALL SUBOPT_0x11
002190 940e 2c2e 	CALL SUBOPT_0x11
002192 940e 04c5 	CALL _wartosc_parametru_panelu
                 ; 0000 1811                                         f = 0;
                +
002194 e040     +LDI R20 , LOW ( 0 )
002195 e050     +LDI R21 , HIGH ( 0 )
                 	__GETWRN 20,21,0
                 ; 0000 1812                                         }
                 ; 0000 1813 
                 ; 0000 1814    break;
                 _0x336:
                 ; 0000 1815 
                 ; 0000 1816 
                 ; 0000 1817     }//switch
                 _0x31F:
                 ; 0000 1818 
                 ; 0000 1819    }//while
002196 cf3b      	RJMP _0x31A
                 _0x31C:
                 ; 0000 181A 
                 ; 0000 181B 
                 ; 0000 181C 
                 ; 0000 181D 
                 ; 0000 181E 
                 ; 0000 181F 
                 ; 0000 1820 
                 ; 0000 1821 }
002197 940e 33d2 	CALL __LOADLOCR6
002199 962a      	ADIW R28,10
00219a 9508      	RET
                 ;
                 ;
                 ;
                 ;
                 ;
                 ;void main(void)
                 ; 0000 1828 {
                 _main:
                 ; 0000 1829 
                 ; 0000 182A // Input/Output Ports initialization
                 ; 0000 182B // Port A initialization
                 ; 0000 182C // Func7=Out Func6=Out Func5=Out Func4=Out Func3=Out Func2=Out Func1=Out Func0=Out
                 ; 0000 182D // State7=0 State6=0 State5=0 State4=0 State3=0 State2=0 State1=0 State0=0
                 ; 0000 182E PORTA=0x00;
00219b e0e0      	LDI  R30,LOW(0)
00219c bbeb      	OUT  0x1B,R30
                 ; 0000 182F DDRA=0xFF;
00219d efef      	LDI  R30,LOW(255)
00219e bbea      	OUT  0x1A,R30
                 ; 0000 1830 
                 ; 0000 1831 // Port B initialization
                 ; 0000 1832 // Func7=Out Func6=Out Func5=Out Func4=Out Func3=Out Func2=Out Func1=Out Func0=Out
                 ; 0000 1833 // State7=0 State6=0 State5=0 State4=0 State3=0 State2=0 State1=0 State0=0
                 ; 0000 1834 PORTB=0x00;
00219f e0e0      	LDI  R30,LOW(0)
0021a0 bbe8      	OUT  0x18,R30
                 ; 0000 1835 DDRB=0xFF;
0021a1 efef      	LDI  R30,LOW(255)
0021a2 bbe7      	OUT  0x17,R30
                 ; 0000 1836 
                 ; 0000 1837 // Port C initialization
                 ; 0000 1838 // Func7=Out Func6=Out Func5=Out Func4=Out Func3=Out Func2=Out Func1=Out Func0=Out
                 ; 0000 1839 // State7=0 State6=0 State5=0 State4=0 State3=0 State2=0 State1=0 State0=0
                 ; 0000 183A PORTC=0x00;
0021a3 e0e0      	LDI  R30,LOW(0)
0021a4 bbe5      	OUT  0x15,R30
                 ; 0000 183B DDRC=0xFF;
0021a5 efef      	LDI  R30,LOW(255)
0021a6 bbe4      	OUT  0x14,R30
                 ; 0000 183C 
                 ; 0000 183D // Port D initialization
                 ; 0000 183E // Func7=Out Func6=Out Func5=Out Func4=Out Func3=Out Func2=Out Func1=Out Func0=Out
                 ; 0000 183F // State7=0 State6=0 State5=0 State4=0 State3=0 State2=0 State1=0 State0=0
                 ; 0000 1840 PORTD=0x00;
0021a7 e0e0      	LDI  R30,LOW(0)
0021a8 bbe2      	OUT  0x12,R30
                 ; 0000 1841 DDRD=0xFF;
0021a9 efef      	LDI  R30,LOW(255)
0021aa bbe1      	OUT  0x11,R30
                 ; 0000 1842 
                 ; 0000 1843 // Port E initialization
                 ; 0000 1844 // Func7=Out Func6=Out Func5=Out Func4=Out Func3=Out Func2=Out Func1=Out Func0=Out
                 ; 0000 1845 // State7=0 State6=0 State5=0 State4=0 State3=0 State2=0 State1=0 State0=0
                 ; 0000 1846 PORTE=0x00;
0021ab e0e0      	LDI  R30,LOW(0)
0021ac b9e3      	OUT  0x3,R30
                 ; 0000 1847 DDRE=0xFF;
0021ad efef      	LDI  R30,LOW(255)
0021ae b9e2      	OUT  0x2,R30
                 ; 0000 1848 
                 ; 0000 1849 // Port F initialization
                 ; 0000 184A // Func7=Out Func6=Out Func5=Out Func4=Out Func3=Out Func2=Out Func1=Out Func0=Out
                 ; 0000 184B // State7=0 State6=0 State5=0 State4=0 State3=0 State2=0 State1=0 State0=0
                 ; 0000 184C PORTF=0x00;
0021af e0e0      	LDI  R30,LOW(0)
0021b0 93e0 0062 	STS  98,R30
                 ; 0000 184D DDRF=0xFF;
0021b2 efef      	LDI  R30,LOW(255)
0021b3 93e0 0061 	STS  97,R30
                 ; 0000 184E 
                 ; 0000 184F // Port G initialization
                 ; 0000 1850 // Func4=Out Func3=Out Func2=Out Func1=Out Func0=Out
                 ; 0000 1851 // State4=0 State3=0 State2=0 State1=0 State0=0
                 ; 0000 1852 PORTG=0x00;
0021b5 e0e0      	LDI  R30,LOW(0)
0021b6 93e0 0065 	STS  101,R30
                 ; 0000 1853 DDRG=0x1F;
0021b8 e1ef      	LDI  R30,LOW(31)
0021b9 93e0 0064 	STS  100,R30
                 ; 0000 1854 
                 ; 0000 1855 
                 ; 0000 1856 
                 ; 0000 1857 
                 ; 0000 1858 
                 ; 0000 1859 // Timer/Counter 0 initialization
                 ; 0000 185A // Clock source: System Clock
                 ; 0000 185B // Clock value: 15,625 kHz
                 ; 0000 185C // Mode: Normal top=0xFF
                 ; 0000 185D // OC0 output: Disconnected
                 ; 0000 185E ASSR=0x00;
0021bb e0e0      	LDI  R30,LOW(0)
0021bc bfe0      	OUT  0x30,R30
                 ; 0000 185F TCCR0=0x07;
0021bd e0e7      	LDI  R30,LOW(7)
0021be bfe3      	OUT  0x33,R30
                 ; 0000 1860 TCNT0=0x00;
0021bf e0e0      	LDI  R30,LOW(0)
0021c0 bfe2      	OUT  0x32,R30
                 ; 0000 1861 OCR0=0x00;
0021c1 bfe1      	OUT  0x31,R30
                 ; 0000 1862 
                 ; 0000 1863 // Timer/Counter 1 initialization
                 ; 0000 1864 // Clock source: System Clock
                 ; 0000 1865 // Clock value: Timer1 Stopped
                 ; 0000 1866 // Mode: Normal top=0xFFFF
                 ; 0000 1867 // OC1A output: Discon.
                 ; 0000 1868 // OC1B output: Discon.
                 ; 0000 1869 // OC1C output: Discon.
                 ; 0000 186A // Noise Canceler: Off
                 ; 0000 186B // Input Capture on Falling Edge
                 ; 0000 186C // Timer1 Overflow Interrupt: Off
                 ; 0000 186D // Input Capture Interrupt: Off
                 ; 0000 186E // Compare A Match Interrupt: Off
                 ; 0000 186F // Compare B Match Interrupt: Off
                 ; 0000 1870 // Compare C Match Interrupt: Off
                 ; 0000 1871 TCCR1A=0x00;
0021c2 bdef      	OUT  0x2F,R30
                 ; 0000 1872 TCCR1B=0x00;
0021c3 bdee      	OUT  0x2E,R30
                 ; 0000 1873 TCNT1H=0x00;
0021c4 bded      	OUT  0x2D,R30
                 ; 0000 1874 TCNT1L=0x00;
0021c5 bdec      	OUT  0x2C,R30
                 ; 0000 1875 ICR1H=0x00;
0021c6 bde7      	OUT  0x27,R30
                 ; 0000 1876 ICR1L=0x00;
0021c7 bde6      	OUT  0x26,R30
                 ; 0000 1877 OCR1AH=0x00;
0021c8 bdeb      	OUT  0x2B,R30
                 ; 0000 1878 OCR1AL=0x00;
0021c9 bdea      	OUT  0x2A,R30
                 ; 0000 1879 OCR1BH=0x00;
0021ca bde9      	OUT  0x29,R30
                 ; 0000 187A OCR1BL=0x00;
0021cb bde8      	OUT  0x28,R30
                 ; 0000 187B OCR1CH=0x00;
0021cc 93e0 0079 	STS  121,R30
                 ; 0000 187C OCR1CL=0x00;
0021ce 93e0 0078 	STS  120,R30
                 ; 0000 187D 
                 ; 0000 187E // Timer/Counter 2 initialization
                 ; 0000 187F // Clock source: System Clock
                 ; 0000 1880 // Clock value: Timer2 Stopped
                 ; 0000 1881 // Mode: Normal top=0xFF
                 ; 0000 1882 // OC2 output: Disconnected
                 ; 0000 1883 TCCR2=0x00;
0021d0 bde5      	OUT  0x25,R30
                 ; 0000 1884 TCNT2=0x00;
0021d1 bde4      	OUT  0x24,R30
                 ; 0000 1885 OCR2=0x00;
0021d2 bde3      	OUT  0x23,R30
                 ; 0000 1886 
                 ; 0000 1887 // Timer/Counter 3 initialization
                 ; 0000 1888 // Clock source: System Clock
                 ; 0000 1889 // Clock value: Timer3 Stopped
                 ; 0000 188A // Mode: Normal top=0xFFFF
                 ; 0000 188B // OC3A output: Discon.
                 ; 0000 188C // OC3B output: Discon.
                 ; 0000 188D // OC3C output: Discon.
                 ; 0000 188E // Noise Canceler: Off
                 ; 0000 188F // Input Capture on Falling Edge
                 ; 0000 1890 // Timer3 Overflow Interrupt: Off
                 ; 0000 1891 // Input Capture Interrupt: Off
                 ; 0000 1892 // Compare A Match Interrupt: Off
                 ; 0000 1893 // Compare B Match Interrupt: Off
                 ; 0000 1894 // Compare C Match Interrupt: Off
                 ; 0000 1895 TCCR3A=0x00;
0021d3 93e0 008b 	STS  139,R30
                 ; 0000 1896 TCCR3B=0x00;
0021d5 93e0 008a 	STS  138,R30
                 ; 0000 1897 TCNT3H=0x00;
0021d7 93e0 0089 	STS  137,R30
                 ; 0000 1898 TCNT3L=0x00;
0021d9 93e0 0088 	STS  136,R30
                 ; 0000 1899 ICR3H=0x00;
0021db 93e0 0081 	STS  129,R30
                 ; 0000 189A ICR3L=0x00;
0021dd 93e0 0080 	STS  128,R30
                 ; 0000 189B OCR3AH=0x00;
0021df 93e0 0087 	STS  135,R30
                 ; 0000 189C OCR3AL=0x00;
0021e1 93e0 0086 	STS  134,R30
                 ; 0000 189D OCR3BH=0x00;
0021e3 93e0 0085 	STS  133,R30
                 ; 0000 189E OCR3BL=0x00;
0021e5 93e0 0084 	STS  132,R30
                 ; 0000 189F OCR3CH=0x00;
0021e7 93e0 0083 	STS  131,R30
                 ; 0000 18A0 OCR3CL=0x00;
0021e9 93e0 0082 	STS  130,R30
                 ; 0000 18A1 
                 ; 0000 18A2 // External Interrupt(s) initialization
                 ; 0000 18A3 // INT0: Off
                 ; 0000 18A4 // INT1: Off
                 ; 0000 18A5 // INT2: Off
                 ; 0000 18A6 // INT3: Off
                 ; 0000 18A7 // INT4: Off
                 ; 0000 18A8 // INT5: Off
                 ; 0000 18A9 // INT6: Off
                 ; 0000 18AA // INT7: Off
                 ; 0000 18AB EICRA=0x00;
0021eb 93e0 006a 	STS  106,R30
                 ; 0000 18AC EICRB=0x00;
0021ed bfea      	OUT  0x3A,R30
                 ; 0000 18AD EIMSK=0x00;
0021ee bfe9      	OUT  0x39,R30
                 ; 0000 18AE 
                 ; 0000 18AF // Timer(s)/Counter(s) Interrupt(s) initialization
                 ; 0000 18B0 TIMSK=0x01;
0021ef e0e1      	LDI  R30,LOW(1)
0021f0 bfe7      	OUT  0x37,R30
                 ; 0000 18B1 
                 ; 0000 18B2 ETIMSK=0x00;
0021f1 e0e0      	LDI  R30,LOW(0)
0021f2 93e0 007d 	STS  125,R30
                 ; 0000 18B3 
                 ; 0000 18B4 
                 ; 0000 18B5 // USART0 initialization
                 ; 0000 18B6 // Communication Parameters: 8 Data, 1 Stop, No Parity
                 ; 0000 18B7 // USART0 Receiver: On
                 ; 0000 18B8 // USART0 Transmitter: On
                 ; 0000 18B9 // USART0 Mode: Asynchronous
                 ; 0000 18BA // USART0 Baud Rate: 115200
                 ; 0000 18BB UCSR0A=(0<<RXC0) | (0<<TXC0) | (0<<UDRE0) | (0<<FE0) | (0<<DOR0) | (0<<UPE0) | (0<<U2X0) | (0<<MPCM0);
0021f4 b9eb      	OUT  0xB,R30
                 ; 0000 18BC UCSR0B=(0<<RXCIE0) | (0<<TXCIE0) | (0<<UDRIE0) | (1<<RXEN0) | (1<<TXEN0) | (0<<UCSZ02) | (0<<RXB80) | (0<<TXB80);
0021f5 e1e8      	LDI  R30,LOW(24)
0021f6 b9ea      	OUT  0xA,R30
                 ; 0000 18BD UCSR0C=(0<<UMSEL0) | (0<<UPM01) | (0<<UPM00) | (0<<USBS0) | (1<<UCSZ01) | (1<<UCSZ00) | (0<<UCPOL0);
0021f7 e0e6      	LDI  R30,LOW(6)
0021f8 93e0 0095 	STS  149,R30
                 ; 0000 18BE UBRR0H=0x00;
0021fa e0e0      	LDI  R30,LOW(0)
0021fb 93e0 0090 	STS  144,R30
                 ; 0000 18BF UBRR0L=0x08;
0021fd e0e8      	LDI  R30,LOW(8)
0021fe b9e9      	OUT  0x9,R30
                 ; 0000 18C0 
                 ; 0000 18C1 // USART1 initialization
                 ; 0000 18C2 // USART1 disabled
                 ; 0000 18C3 UCSR1B=(0<<RXCIE1) | (0<<TXCIE1) | (0<<UDRIE1) | (0<<RXEN1) | (0<<TXEN1) | (0<<UCSZ12) | (0<<RXB81) | (0<<TXB81);
0021ff e0e0      	LDI  R30,LOW(0)
002200 93e0 009a 	STS  154,R30
                 ; 0000 18C4 
                 ; 0000 18C5 // Analog Comparator initialization
                 ; 0000 18C6 // Analog Comparator: Off
                 ; 0000 18C7 // Analog Comparator Input Capture by Timer/Counter 1: Off
                 ; 0000 18C8 ACSR=0x80;
002202 e8e0      	LDI  R30,LOW(128)
002203 b9e8      	OUT  0x8,R30
                 ; 0000 18C9 SFIOR=0x00;
002204 e0e0      	LDI  R30,LOW(0)
002205 bde0      	OUT  0x20,R30
                 ; 0000 18CA 
                 ; 0000 18CB // ADC initialization
                 ; 0000 18CC // ADC disabled
                 ; 0000 18CD ADCSRA=0x00;
002206 b9e6      	OUT  0x6,R30
                 ; 0000 18CE 
                 ; 0000 18CF // SPI initialization
                 ; 0000 18D0 // SPI disabled
                 ; 0000 18D1 SPCR=0x00;
002207 b9ed      	OUT  0xD,R30
                 ; 0000 18D2 
                 ; 0000 18D3 // TWI initialization
                 ; 0000 18D4 // TWI disabled
                 ; 0000 18D5 TWCR=0x00;
002208 93e0 0074 	STS  116,R30
                 ; 0000 18D6 
                 ; 0000 18D7 //ciekawe, tej linijki brakowalo w medalach ,wyczailem w borgu
                 ; 0000 18D8 // I2C Bus initialization
                 ; 0000 18D9 i2c_init();
00220a 940e 32ec 	CALL _i2c_init
                 ; 0000 18DA 
                 ; 0000 18DB // Global enable interrupts
                 ; 0000 18DC #asm("sei")
00220c 9478      	sei
                 ; 0000 18DD 
                 ; 0000 18DE delay_ms(2000); //bo panel sie inicjalizuje
00220d 940e 30e2 	CALL SUBOPT_0xBA
                 ; 0000 18DF delay_ms(2000); //bo panel sie inicjalizuje
00220f 940e 30e2 	CALL SUBOPT_0xBA
                 ; 0000 18E0 delay_ms(2000); //bo panel sie inicjalizuje
002211 940e 30e2 	CALL SUBOPT_0xBA
                 ; 0000 18E1 delay_ms(2000); //bo panel sie inicjalizuje
002213 940e 30e2 	CALL SUBOPT_0xBA
                 ; 0000 18E2 
                 ; 0000 18E3 //jak patrze na maszyne to ten po lewej to 1
                 ; 0000 18E4 
                 ; 0000 18E5 putchar(90);  //5A
002215 940e 2bc7 	CALL SUBOPT_0x2
                 ; 0000 18E6 putchar(165); //A5
                 ; 0000 18E7 putchar(3);//03  //znak dzwiekowy ze jestem
002217 e0e3      	LDI  R30,LOW(3)
002218 93ea      	ST   -Y,R30
002219 940e 2a4c 	CALL _putchar
                 ; 0000 18E8 putchar(128);  //80
00221b e8e0      	LDI  R30,LOW(128)
00221c 93ea      	ST   -Y,R30
00221d 940e 2a4c 	CALL _putchar
                 ; 0000 18E9 putchar(2);    //02
00221f e0e2      	LDI  R30,LOW(2)
002220 93ea      	ST   -Y,R30
002221 940e 2a4c 	CALL _putchar
                 ; 0000 18EA putchar(16);   //10
002223 e1e0      	LDI  R30,LOW(16)
002224 93ea      	ST   -Y,R30
002225 940e 2a4c 	CALL _putchar
                 ; 0000 18EB 
                 ; 0000 18EC il_prob_odczytu = 1;    //100
002227 e0e1      	LDI  R30,LOW(1)
002228 e0f0      	LDI  R31,HIGH(1)
002229 015f      	MOVW R10,R30
                 ; 0000 18ED start = 0;
00222a 24cc      	CLR  R12
00222b 24dd      	CLR  R13
                 ; 0000 18EE //szczotka_druciana_ilosc_cykli = 4; bo eeprom
                 ; 0000 18EF //krazek_scierny_cykl_po_okregu_ilosc = 4;
                 ; 0000 18F0 //krazek_scierny_ilosc_cykli = 4;
                 ; 0000 18F1 rzad_obrabiany = 1;
00222c 940e 30e8 	CALL SUBOPT_0xBB
                 ; 0000 18F2 jestem_w_trakcie_czyszczenia_calosci = 0;
00222e e0e0      	LDI  R30,LOW(0)
00222f 93e0 055d 	STS  _jestem_w_trakcie_czyszczenia_calosci,R30
002231 93e0 055e 	STS  _jestem_w_trakcie_czyszczenia_calosci+1,R30
                 ; 0000 18F3 wykonalem_rzedow = 0;
002233 940e 30ef 	CALL SUBOPT_0xBC
                 ; 0000 18F4 cykl_ilosc_zaciskow = 0;
002235 940e 30f5 	CALL SUBOPT_0xBD
                 ; 0000 18F5 guzik1_przelaczania_zaciskow = 1;
002237 9468      	SET
002238 f820      	BLD  R2,0
                 ; 0000 18F6 guzik2_przelaczania_zaciskow = 1;
002239 f821      	BLD  R2,1
                 ; 0000 18F7 PORTE.6 = 1;  //aby byl dostep do zaciskow rzad 1
00223a 9a1e      	SBI  0x3,6
                 ; 0000 18F8 zmienna_przelaczanie_zaciskow = 1;
00223b f822      	BLD  R2,2
                 ; 0000 18F9 czas_przedmuchu = 183;
00223c ebe7      	LDI  R30,LOW(183)
00223d e0f0      	LDI  R31,HIGH(183)
00223e 93e0 0563 	STS  _czas_przedmuchu,R30
002240 93f0 0564 	STS  _czas_przedmuchu+1,R31
                 ; 0000 18FA predkosc_pion_szczotka = 100;
002242 e6e4      	LDI  R30,LOW(100)
002243 e0f0      	LDI  R31,HIGH(100)
002244 93e0 057d 	STS  _predkosc_pion_szczotka,R30
002246 93f0 057e 	STS  _predkosc_pion_szczotka+1,R31
                 ; 0000 18FB predkosc_pion_krazek = 100;
002248 93e0 057f 	STS  _predkosc_pion_krazek,R30
00224a 93f0 0580 	STS  _predkosc_pion_krazek+1,R31
                 ; 0000 18FC wejscie_krazka_sciernego_w_pow_boczna_cylindra = 1;
00224c e0e1      	LDI  R30,LOW(1)
00224d e0f0      	LDI  R31,HIGH(1)
00224e 93e0 0581 	STS  _wejscie_krazka_sciernego_w_pow_boczna_cylindra,R30
002250 93f0 0582 	STS  _wejscie_krazka_sciernego_w_pow_boczna_cylindra+1,R31
                 ; 0000 18FD predkosc_ruchow_po_okregu_krazek_scierny = 50;
002252 e3e2      	LDI  R30,LOW(50)
002253 e0f0      	LDI  R31,HIGH(50)
002254 93e0 0583 	STS  _predkosc_ruchow_po_okregu_krazek_scierny,R30
002256 93f0 0584 	STS  _predkosc_ruchow_po_okregu_krazek_scierny+1,R31
                 ; 0000 18FE 
                 ; 0000 18FF adr1 = 80;  //rzad 1
002258 e5e0      	LDI  R30,LOW(80)
002259 e0f0      	LDI  R31,HIGH(80)
00225a 93e0 053d 	STS  _adr1,R30
00225c 93f0 053e 	STS  _adr1+1,R31
                 ; 0000 1900 adr2 = 0;   //
00225e e0e0      	LDI  R30,LOW(0)
00225f 93e0 053f 	STS  _adr2,R30
002261 93e0 0540 	STS  _adr2+1,R30
                 ; 0000 1901 adr3 = 64;  //rzad 2
002263 e4e0      	LDI  R30,LOW(64)
002264 e0f0      	LDI  R31,HIGH(64)
002265 93e0 0541 	STS  _adr3,R30
002267 93f0 0542 	STS  _adr3+1,R31
                 ; 0000 1902 adr4 = 0;
002269 e0e0      	LDI  R30,LOW(0)
00226a 93e0 0543 	STS  _adr4,R30
00226c 93e0 0544 	STS  _adr4+1,R30
                 ; 0000 1903 
                 ; 0000 1904 
                 ; 0000 1905 wartosci_wstepne_panelu();
00226e 940e 1964 	CALL _wartosci_wstepne_panelu
                 ; 0000 1906 wypozycjonuj_napedy_minimalistyczna();
002270 940e 19cb 	CALL _wypozycjonuj_napedy_minimalistyczna
                 ; 0000 1907 sprawdz_cisnienie();
002272 940e 0625 	CALL _sprawdz_cisnienie
                 ; 0000 1908 
                 ; 0000 1909 //mniejsze ziarno na krazku - dobry pomysl
                 ; 0000 190A 
                 ; 0000 190B 
                 ; 0000 190C while (1)
                 _0x339:
                 ; 0000 190D       {
                 ; 0000 190E       ostateczny_wybor_zacisku();
002274 d8a4      	RCALL _ostateczny_wybor_zacisku
                 ; 0000 190F       przerzucanie_dociskow();
002275 940e 1ad2 	CALL _przerzucanie_dociskow
                 ; 0000 1910       kontrola_zoltego_swiatla();
002277 dd45      	RCALL _kontrola_zoltego_swiatla
                 ; 0000 1911       wymiana_szczotki_i_krazka();
002278 dd7b      	RCALL _wymiana_szczotki_i_krazka
                 ; 0000 1912       zaktualizuj_parametry_panelu();
002279 940e 04dd 	CALL _zaktualizuj_parametry_panelu
                 ; 0000 1913       odpytaj_parametry_panelu();
00227b 940e 05c6 	CALL _odpytaj_parametry_panelu
                 ; 0000 1914       test_geometryczny();
00227d dbd2      	RCALL _test_geometryczny
                 ; 0000 1915       sprawdz_cisnienie();
00227e 940e 0625 	CALL _sprawdz_cisnienie
                 ; 0000 1916 
                 ; 0000 1917       while((start == 1 & il_zaciskow_rzad_1 > 1 & il_zaciskow_rzad_2 != 1 & macierz_zaciskow[1]!=0  & (macierz_zaciskow[2]!=0 |  il_zaciskow_rzad_2 == 0)) | jestem_w_trakcie_czyszczenia_calosci == 1)
                 _0x33C:
002280 01d6      	MOVW R26,R12
002281 940e 2f23 	CALL SUBOPT_0x79
002283 2e0e      	MOV  R0,R30
002284 940e 3035 	CALL SUBOPT_0x9E
002286 e0e1      	LDI  R30,LOW(1)
002287 e0f0      	LDI  R31,HIGH(1)
002288 940e 3379 	CALL __GTW12
00228a 220e      	AND  R0,R30
00228b 940e 30b0 	CALL SUBOPT_0xB0
00228d e0e1      	LDI  R30,LOW(1)
00228e e0f0      	LDI  R31,HIGH(1)
00228f 940e 3367 	CALL __NEW12
002291 220e      	AND  R0,R30
002292 940e 3040 	CALL SUBOPT_0xA0
002294 2e1e      	MOV  R1,R30
002295 940e 30b5 	CALL SUBOPT_0xB1
002297 2e0e      	MOV  R0,R30
002298 940e 30b0 	CALL SUBOPT_0xB0
00229a 940e 2f9b 	CALL SUBOPT_0x8A
00229c 29e0      	OR   R30,R0
00229d 21e1      	AND  R30,R1
00229e 2e0e      	MOV  R0,R30
00229f 91a0 055d 	LDS  R26,_jestem_w_trakcie_czyszczenia_calosci
0022a1 91b0 055e 	LDS  R27,_jestem_w_trakcie_czyszczenia_calosci+1
0022a3 940e 2f23 	CALL SUBOPT_0x79
0022a5 29e0      	OR   R30,R0
0022a6 f411      	BRNE PC+3
0022a7 940c 2a31 	JMP _0x33E
                 ; 0000 1918             {
                 ; 0000 1919             switch (cykl_glowny)
0022a9 91e0 0549 	LDS  R30,_cykl_glowny
0022ab 91f0 054a 	LDS  R31,_cykl_glowny+1
                 ; 0000 191A             {
                 ; 0000 191B             case 0:
0022ad 9730      	SBIW R30,0
0022ae f011      	BREQ PC+3
0022af 940c 237c 	JMP _0x342
                 ; 0000 191C 
                 ; 0000 191D 
                 ; 0000 191E                     PORTB.6 = 1;   ////zielona lampka
0022b1 9ac6      	SBI  0x18,6
                 ; 0000 191F                     if(jestem_w_trakcie_czyszczenia_calosci == 0)
0022b2 91e0 055d 	LDS  R30,_jestem_w_trakcie_czyszczenia_calosci
0022b4 91f0 055e 	LDS  R31,_jestem_w_trakcie_czyszczenia_calosci+1
0022b6 9730      	SBIW R30,0
0022b7 f011      	BREQ PC+3
0022b8 940c 2318 	JMP _0x345
                 ; 0000 1920                         {
                 ; 0000 1921                         wartosc_parametru_panelu(0,0,16);  //wykonano zaciskow rzad1
0022ba 940e 2f91 	CALL SUBOPT_0x88
0022bc 940e 2ce3 	CALL SUBOPT_0x2C
0022be 940e 04c5 	CALL _wartosc_parametru_panelu
                 ; 0000 1922                         wartosc_parametru_panelu(0,0,96);  //wykonano zaciskow rzad2
0022c0 940e 2f91 	CALL SUBOPT_0x88
0022c2 940e 2cf2 	CALL SUBOPT_0x2F
0022c4 940e 04c5 	CALL _wartosc_parametru_panelu
                 ; 0000 1923 
                 ; 0000 1924                         il_zaciskow_rzad_1 = odczytaj_parametr(0,128);
0022c6 940e 2cad 	CALL SUBOPT_0x24
0022c8 940e 2cb8 	CALL SUBOPT_0x26
0022ca 940e 2cbe 	CALL SUBOPT_0x27
                 ; 0000 1925                         il_zaciskow_rzad_2 = odczytaj_parametr(0,48);
0022cc 940e 2c2e 	CALL SUBOPT_0x11
0022ce 940e 2cc3 	CALL SUBOPT_0x28
                 ; 0000 1926 
                 ; 0000 1927                         szczotka_druciana_ilosc_cykli = odczytaj_parametr(48,64);  //wykonano zaciskow rzad1
0022d0 940e 2cb2 	CALL SUBOPT_0x25
0022d2 940e 2cca 	CALL SUBOPT_0x29
                 ; 0000 1928                                                 //2090
                 ; 0000 1929                         krazek_scierny_ilosc_cykli = odczytaj_parametr(32,144);  //wykonano zaciskow rzad1
0022d4 940e 2cd3 	CALL SUBOPT_0x2A
                 ; 0000 192A                                                     //3000
                 ; 0000 192B                         krazek_scierny_cykl_po_okregu_ilosc = odczytaj_parametr(48,0);  //wykonano zaciskow rzad1
0022d6 940e 2cdc 	CALL SUBOPT_0x2B
                 ; 0000 192C 
                 ; 0000 192D                         predkosc_pion_szczotka = odczytaj_parametr(32,80);
0022d8 940e 2d29 	CALL SUBOPT_0x35
0022da 940e 2ced 	CALL SUBOPT_0x2E
0022dc 940e 0436 	CALL _odczytaj_parametr
0022de 93e0 057d 	STS  _predkosc_pion_szczotka,R30
0022e0 93f0 057e 	STS  _predkosc_pion_szczotka+1,R31
                 ; 0000 192E                                                 //2060
                 ; 0000 192F                         predkosc_pion_krazek = odczytaj_parametr(32,96);
0022e2 940e 2d29 	CALL SUBOPT_0x35
0022e4 940e 2cf2 	CALL SUBOPT_0x2F
0022e6 940e 0436 	CALL _odczytaj_parametr
0022e8 93e0 057f 	STS  _predkosc_pion_krazek,R30
0022ea 93f0 0580 	STS  _predkosc_pion_krazek+1,R31
                 ; 0000 1930 
                 ; 0000 1931                         wejscie_krazka_sciernego_w_pow_boczna_cylindra = odczytaj_parametr(48,16);
0022ec e3e0      	LDI  R30,LOW(48)
0022ed e0f0      	LDI  R31,HIGH(48)
0022ee 940e 2c27 	CALL SUBOPT_0x10
0022f0 940e 0436 	CALL _odczytaj_parametr
0022f2 93e0 0581 	STS  _wejscie_krazka_sciernego_w_pow_boczna_cylindra,R30
0022f4 93f0 0582 	STS  _wejscie_krazka_sciernego_w_pow_boczna_cylindra+1,R31
                 ; 0000 1932 
                 ; 0000 1933                         predkosc_ruchow_po_okregu_krazek_scierny = odczytaj_parametr(32,112);
0022f6 940e 2d29 	CALL SUBOPT_0x35
0022f8 940e 2ce8 	CALL SUBOPT_0x2D
0022fa 940e 0436 	CALL _odczytaj_parametr
0022fc 93e0 0583 	STS  _predkosc_ruchow_po_okregu_krazek_scierny,R30
0022fe 93f0 0584 	STS  _predkosc_ruchow_po_okregu_krazek_scierny+1,R31
                 ; 0000 1934 
                 ; 0000 1935                         if(il_zaciskow_rzad_2 > 0 & macierz_zaciskow[2]!=0)
002300 940e 30b0 	CALL SUBOPT_0xB0
002302 940e 30fb 	CALL SUBOPT_0xBE
002304 940e 30b5 	CALL SUBOPT_0xB1
002306 21e0      	AND  R30,R0
002307 f039      	BREQ _0x346
                 ; 0000 1936                               il_zaciskow_rzad_2 = il_zaciskow_rzad_2;
002308 940e 3101 	CALL SUBOPT_0xBF
00230a 93e0 0533 	STS  _il_zaciskow_rzad_2,R30
00230c 93f0 0534 	STS  _il_zaciskow_rzad_2+1,R31
                 ; 0000 1937                         else
00230e c005      	RJMP _0x347
                 _0x346:
                 ; 0000 1938                               il_zaciskow_rzad_2 = 0;
00230f e0e0      	LDI  R30,LOW(0)
002310 93e0 0533 	STS  _il_zaciskow_rzad_2,R30
002312 93e0 0534 	STS  _il_zaciskow_rzad_2+1,R30
                 ; 0000 1939 
                 ; 0000 193A                         wybor_linijek_sterownikow(1);  //rzad 1
                 _0x347:
002314 940e 305c 	CALL SUBOPT_0xA2
002316 940e 10ac 	CALL _wybor_linijek_sterownikow
                 ; 0000 193B                         }
                 ; 0000 193C 
                 ; 0000 193D                     jestem_w_trakcie_czyszczenia_calosci = 1;
                 _0x345:
002318 e0e1      	LDI  R30,LOW(1)
002319 e0f0      	LDI  R31,HIGH(1)
00231a 93e0 055d 	STS  _jestem_w_trakcie_czyszczenia_calosci,R30
00231c 93f0 055e 	STS  _jestem_w_trakcie_czyszczenia_calosci+1,R31
                 ; 0000 193E 
                 ; 0000 193F                     if(rzad_obrabiany == 1)
00231e 940e 3106 	CALL SUBOPT_0xC0
002320 9711      	SBIW R26,1
002321 f489      	BRNE _0x348
                 ; 0000 1940                     {
                 ; 0000 1941                     PORTE.6 = 0;    //przelacz rzad zaciskow - rzad 1
002322 981e      	CBI  0x3,6
                 ; 0000 1942                     if(cykl_sterownik_1 < 5)
002323 940e 3088 	CALL SUBOPT_0xA9
002325 9715      	SBIW R26,5
002326 f424      	BRGE _0x34B
                 ; 0000 1943                         cykl_sterownik_1 = sterownik_1_praca(0x009);
002327 940e 310b 	CALL SUBOPT_0xC1
002329 940e 308d 	CALL SUBOPT_0xAA
                 ; 0000 1944                     if(cykl_sterownik_2 < 5)                                //ster 1 do 0
                 _0x34B:
00232b 940e 3090 	CALL SUBOPT_0xAB
00232d 9715      	SBIW R26,5
00232e f424      	BRGE _0x34C
                 ; 0000 1945                         cykl_sterownik_2 = sterownik_2_praca(0x000);       //ster 2 pod pin pozy rzad 1
00232f 940e 2cad 	CALL SUBOPT_0x24
002331 940e 30da 	CALL SUBOPT_0xB8
                 ; 0000 1946                     }
                 _0x34C:
                 ; 0000 1947 
                 ; 0000 1948                     if(rzad_obrabiany == 2)
                 _0x348:
002333 940e 3106 	CALL SUBOPT_0xC0
002335 9712      	SBIW R26,2
002336 f491      	BRNE _0x34D
                 ; 0000 1949                     {
                 ; 0000 194A                     ostateczny_wybor_zacisku();
002337 940e 1b19 	CALL _ostateczny_wybor_zacisku
                 ; 0000 194B                     //PORTE.6 = 1;    //przelacz rzad zaciskow - rzad 2 - na razie nie bo nie ma jeszcze oslon
                 ; 0000 194C 
                 ; 0000 194D                     if(cykl_sterownik_1 < 5)
002339 940e 3088 	CALL SUBOPT_0xA9
00233b 9715      	SBIW R26,5
00233c f424      	BRGE _0x34E
                 ; 0000 194E                         cykl_sterownik_1 = sterownik_1_praca(0x008);
00233d e0e8      	LDI  R30,LOW(8)
00233e e0f0      	LDI  R31,HIGH(8)
00233f 940e 3110 	CALL SUBOPT_0xC2
                 ; 0000 194F                     if(cykl_sterownik_2 < 5)                                //ster 1 do 0
                 _0x34E:
002341 940e 3090 	CALL SUBOPT_0xAB
002343 9715      	SBIW R26,5
002344 f424      	BRGE _0x34F
                 ; 0000 1950                         cykl_sterownik_2 = sterownik_2_praca(0x001);       //ster 2 pod pin pozy rzad 2
002345 940e 305c 	CALL SUBOPT_0xA2
002347 940e 30da 	CALL SUBOPT_0xB8
                 ; 0000 1951                     }
                 _0x34F:
                 ; 0000 1952 
                 ; 0000 1953 
                 ; 0000 1954                     if(cykl_sterownik_1 == 5 & cykl_sterownik_2 == 5)
                 _0x34D:
002349 940e 309c 	CALL SUBOPT_0xAD
00234b f179      	BREQ _0x350
                 ; 0000 1955                         {
                 ; 0000 1956 
                 ; 0000 1957                           if(rzad_obrabiany == 2)
00234c 940e 3106 	CALL SUBOPT_0xC0
00234e 9712      	SBIW R26,2
00234f f459      	BRNE _0x351
                 ; 0000 1958                             {
                 ; 0000 1959                             while(PORTE.6 == 0)
                 _0x352:
002350 991e      	SBIC 0x3,6
002351 c003      	RJMP _0x354
                 ; 0000 195A                                 przerzucanie_dociskow();
002352 940e 1ad2 	CALL _przerzucanie_dociskow
002354 cffb      	RJMP _0x352
                 _0x354:
                 ; 0000 195B delay_ms(3000);
002355 ebe8      	LDI  R30,LOW(3000)
002356 e0fb      	LDI  R31,HIGH(3000)
002357 93fa      	ST   -Y,R31
002358 93ea      	ST   -Y,R30
002359 940e 333e 	CALL _delay_ms
                 ; 0000 195C                             }
                 ; 0000 195D 
                 ; 0000 195E                         delay_ms(2000);  //aby zdazyl przelozyc
                 _0x351:
00235b 940e 30e2 	CALL SUBOPT_0xBA
                 ; 0000 195F                         cykl_sterownik_1 = 0;
00235d 940e 304a 	CALL SUBOPT_0xA1
                 ; 0000 1960                         cykl_sterownik_2 = 0;
                 ; 0000 1961                         cykl_sterownik_3 = 0;
                 ; 0000 1962                         cykl_sterownik_4 = 0;
                 ; 0000 1963                         cykl_ilosc_zaciskow = 0;
00235f 940e 30f5 	CALL SUBOPT_0xBD
                 ; 0000 1964                         koniec_rzedu_10 = 0;
002361 940e 3113 	CALL SUBOPT_0xC3
                 ; 0000 1965                         if(rzad_obrabiany == 1)
002363 940e 3106 	CALL SUBOPT_0xC0
002365 9711      	SBIW R26,1
002366 f441      	BRNE _0x355
                 ; 0000 1966                              {
                 ; 0000 1967                              while(sprawdz_pin0(PORTMM,0x77) == 1)
                 _0x356:
002367 940e 2ca3 	CALL SUBOPT_0x23
002369 940e 040d 	CALL _sprawdz_pin0
00236b 30e1      	CPI  R30,LOW(0x1)
00236c f3d1      	BREQ _0x356
                 ; 0000 1968                                 {
                 ; 0000 1969                                 }
                 ; 0000 196A 
                 ; 0000 196B                             cykl_glowny = 1;
00236d 940e 3119 	CALL SUBOPT_0xC4
                 ; 0000 196C                              }
                 ; 0000 196D 
                 ; 0000 196E                         if(rzad_obrabiany == 2)
                 _0x355:
00236f 940e 3106 	CALL SUBOPT_0xC0
002371 9712      	SBIW R26,2
002372 f441      	BRNE _0x359
                 ; 0000 196F                              {
                 ; 0000 1970                              while(sprawdz_pin1(PORTMM,0x77) == 1)
                 _0x35A:
002373 940e 2ca3 	CALL SUBOPT_0x23
002375 940e 0410 	CALL _sprawdz_pin1
002377 30e1      	CPI  R30,LOW(0x1)
002378 f3d1      	BREQ _0x35A
                 ; 0000 1971                                 {
                 ; 0000 1972                                 }
                 ; 0000 1973 
                 ; 0000 1974                             cykl_glowny = 1;
002379 940e 3119 	CALL SUBOPT_0xC4
                 ; 0000 1975                              }
                 ; 0000 1976                         }
                 _0x359:
                 ; 0000 1977 
                 ; 0000 1978             break;
                 _0x350:
00237b c6b4      	RJMP _0x341
                 ; 0000 1979 
                 ; 0000 197A 
                 ; 0000 197B 
                 ; 0000 197C             case 1:
                 _0x342:
00237c 30e1      	CPI  R30,LOW(0x1)
00237d e0a0      	LDI  R26,HIGH(0x1)
00237e 07fa      	CPC  R31,R26
00237f f011      	BREQ PC+3
002380 940c 23cf 	JMP _0x35D
                 ; 0000 197D 
                 ; 0000 197E 
                 ; 0000 197F                      if(cykl_sterownik_2 < 5 & rzad_obrabiany == 1)
002382 940e 3120 	CALL SUBOPT_0xC5
002384 940e 2f23 	CALL SUBOPT_0x79
002386 21e0      	AND  R30,R0
002387 f029      	BREQ _0x35E
                 ; 0000 1980                           {          //ster 1 nic
                 ; 0000 1981                           PORTE.7 = 1;   //zacisnij zaciski
002388 9a1f      	SBI  0x3,7
                 ; 0000 1982                           cykl_sterownik_2 = sterownik_2_praca(a[0]);        //ster 2 pod zacisk
002389 940e 30a9 	CALL SUBOPT_0xAE
00238b 940e 30da 	CALL SUBOPT_0xB8
                 ; 0000 1983                           }                                                    //ster 4 na pozycje miedzy rzedzami
                 ; 0000 1984 
                 ; 0000 1985                      if(cykl_sterownik_2 < 5 & rzad_obrabiany == 2)
                 _0x35E:
00238d 940e 3120 	CALL SUBOPT_0xC5
00238f 940e 3127 	CALL SUBOPT_0xC6
002391 f039      	BREQ _0x361
                 ; 0000 1986                         {
                 ; 0000 1987                         //cykl_sterownik_2 = sterownik_2_praca(0x5B,0);
                 ; 0000 1988                           PORTE.7 = 1;   //zacisnij zaciski
002392 9a1f      	SBI  0x3,7
                 ; 0000 1989                           ostateczny_wybor_zacisku();
002393 940e 1b19 	CALL _ostateczny_wybor_zacisku
                 ; 0000 198A                           cykl_sterownik_2 = sterownik_2_praca(a[1]);
002395 940e 30c3 	CALL SUBOPT_0xB3
002397 940e 30da 	CALL SUBOPT_0xB8
                 ; 0000 198B                          }
                 ; 0000 198C                      if(cykl_sterownik_4 < 5 & cykl_sterownik_2 == 5)
                 _0x361:
002399 940e 312d 	CALL SUBOPT_0xC7
00239b 940e 3373 	CALL __LTW12
00239d 940e 3131 	CALL SUBOPT_0xC8
00239f 21e0      	AND  R30,R0
0023a0 f021      	BREQ _0x364
                 ; 0000 198D                        // cykl_sterownik_4 = sterownik_4_praca(0,0,0,0,0,1);
                 ; 0000 198E                         cykl_sterownik_4 = sterownik_4_praca(0x01);
0023a1 940e 305c 	CALL SUBOPT_0xA2
0023a3 940e 306e 	CALL SUBOPT_0xA6
                 ; 0000 198F 
                 ; 0000 1990                       if(cykl_sterownik_2 == 5 & cykl_sterownik_4 == 5)
                 _0x364:
0023a5 940e 3138 	CALL SUBOPT_0xC9
0023a7 940e 3361 	CALL __EQW12
0023a9 2e0e      	MOV  R0,R30
0023aa 940e 312d 	CALL SUBOPT_0xC7
0023ac 940e 3361 	CALL __EQW12
0023ae 21e0      	AND  R30,R0
0023af f0f1      	BREQ _0x365
                 ; 0000 1991                         {
                 ; 0000 1992                         cykl_sterownik_1 = 0;
0023b0 940e 313c 	CALL SUBOPT_0xCA
                 ; 0000 1993                         cykl_sterownik_2 = 0;
0023b2 940e 3142 	CALL SUBOPT_0xCB
                 ; 0000 1994                         cykl_sterownik_4 = 0;
                 ; 0000 1995                         szczotka_druc_cykl = 0;
0023b4 940e 314c 	CALL SUBOPT_0xCC
                 ; 0000 1996 
                 ; 0000 1997 
                 ; 0000 1998                         if(rzad_obrabiany == 1)
0023b6 940e 3106 	CALL SUBOPT_0xC0
0023b8 9711      	SBIW R26,1
0023b9 f441      	BRNE _0x366
                 ; 0000 1999                              {
                 ; 0000 199A                              while(sprawdz_pin0(PORTMM,0x77) == 1)
                 _0x367:
0023ba 940e 2ca3 	CALL SUBOPT_0x23
0023bc 940e 040d 	CALL _sprawdz_pin0
0023be 30e1      	CPI  R30,LOW(0x1)
0023bf f3d1      	BREQ _0x367
                 ; 0000 199B                                 {
                 ; 0000 199C                                 }
                 ; 0000 199D 
                 ; 0000 199E                             cykl_glowny = 2;
0023c0 940e 3151 	CALL SUBOPT_0xCD
                 ; 0000 199F                              }
                 ; 0000 19A0 
                 ; 0000 19A1                         if(rzad_obrabiany == 2)
                 _0x366:
0023c2 940e 3106 	CALL SUBOPT_0xC0
0023c4 9712      	SBIW R26,2
0023c5 f441      	BRNE _0x36A
                 ; 0000 19A2                              {
                 ; 0000 19A3                              while(sprawdz_pin1(PORTMM,0x77) == 1)
                 _0x36B:
0023c6 940e 2ca3 	CALL SUBOPT_0x23
0023c8 940e 0410 	CALL _sprawdz_pin1
0023ca 30e1      	CPI  R30,LOW(0x1)
0023cb f3d1      	BREQ _0x36B
                 ; 0000 19A4                                 {
                 ; 0000 19A5                                 }
                 ; 0000 19A6 
                 ; 0000 19A7                             cykl_glowny = 2;
0023cc 940e 3151 	CALL SUBOPT_0xCD
                 ; 0000 19A8                              }
                 ; 0000 19A9                         }
                 _0x36A:
                 ; 0000 19AA 
                 ; 0000 19AB 
                 ; 0000 19AC             break;
                 _0x365:
0023ce c661      	RJMP _0x341
                 ; 0000 19AD 
                 ; 0000 19AE 
                 ; 0000 19AF             case 2:
                 _0x35D:
0023cf 30e2      	CPI  R30,LOW(0x2)
0023d0 e0a0      	LDI  R26,HIGH(0x2)
0023d1 07fa      	CPC  R31,R26
0023d2 f561      	BRNE _0x36E
                 ; 0000 19B0                     if(rzad_obrabiany == 2)
0023d3 940e 3106 	CALL SUBOPT_0xC0
0023d5 9712      	SBIW R26,2
0023d6 f411      	BRNE _0x36F
                 ; 0000 19B1                         ostateczny_wybor_zacisku();
0023d7 940e 1b19 	CALL _ostateczny_wybor_zacisku
                 ; 0000 19B2 
                 ; 0000 19B3                     if(cykl_sterownik_4 < 5)
                 _0x36F:
0023d9 940e 3069 	CALL SUBOPT_0xA5
0023db 9715      	SBIW R26,5
0023dc f414      	BRGE _0x370
                 ; 0000 19B4                         //cykl_sterownik_4 = sterownik_4_praca(1,0,0,0,1,0);
                 ; 0000 19B5                           cykl_sterownik_4 = sterownik_4_praca(a[2]);
0023dd 940e 3158 	CALL SUBOPT_0xCE
                 ; 0000 19B6                     if(cykl_sterownik_4 == 5)
                 _0x370:
0023df 940e 3069 	CALL SUBOPT_0xA5
0023e1 9715      	SBIW R26,5
0023e2 f4d9      	BRNE _0x371
                 ; 0000 19B7                         {
                 ; 0000 19B8                         PORTE.2 = 1;  //wlacz szlifierke
0023e3 9a1a      	SBI  0x3,2
                 ; 0000 19B9                         cykl_sterownik_4 = 0;
0023e4 940e 315f 	CALL SUBOPT_0xCF
                 ; 0000 19BA                         if(rzad_obrabiany == 1)
0023e6 940e 3106 	CALL SUBOPT_0xC0
0023e8 9711      	SBIW R26,1
0023e9 f441      	BRNE _0x374
                 ; 0000 19BB                              {
                 ; 0000 19BC                              while(sprawdz_pin0(PORTMM,0x77) == 1)
                 _0x375:
0023ea 940e 2ca3 	CALL SUBOPT_0x23
0023ec 940e 040d 	CALL _sprawdz_pin0
0023ee 30e1      	CPI  R30,LOW(0x1)
0023ef f3d1      	BREQ _0x375
                 ; 0000 19BD                                 {
                 ; 0000 19BE                                 }
                 ; 0000 19BF 
                 ; 0000 19C0                             cykl_glowny = 3;
0023f0 940e 3165 	CALL SUBOPT_0xD0
                 ; 0000 19C1                              }
                 ; 0000 19C2 
                 ; 0000 19C3                         if(rzad_obrabiany == 2)
                 _0x374:
0023f2 940e 3106 	CALL SUBOPT_0xC0
0023f4 9712      	SBIW R26,2
0023f5 f441      	BRNE _0x378
                 ; 0000 19C4                              {
                 ; 0000 19C5                              while(sprawdz_pin1(PORTMM,0x77) == 1)
                 _0x379:
0023f6 940e 2ca3 	CALL SUBOPT_0x23
0023f8 940e 0410 	CALL _sprawdz_pin1
0023fa 30e1      	CPI  R30,LOW(0x1)
0023fb f3d1      	BREQ _0x379
                 ; 0000 19C6                                 {
                 ; 0000 19C7                                 }
                 ; 0000 19C8 
                 ; 0000 19C9                             cykl_glowny = 3;
0023fc 940e 3165 	CALL SUBOPT_0xD0
                 ; 0000 19CA                              }
                 ; 0000 19CB                         }
                 _0x378:
                 ; 0000 19CC 
                 ; 0000 19CD             break;
                 _0x371:
0023fe c631      	RJMP _0x341
                 ; 0000 19CE 
                 ; 0000 19CF 
                 ; 0000 19D0             case 3:
                 _0x36E:
0023ff 30e3      	CPI  R30,LOW(0x3)
002400 e0a0      	LDI  R26,HIGH(0x3)
002401 07fa      	CPC  R31,R26
002402 f011      	BREQ PC+3
002403 940c 245c 	JMP _0x37C
                 ; 0000 19D1 
                 ; 0000 19D2                      if(rzad_obrabiany == 2)
002405 940e 3106 	CALL SUBOPT_0xC0
002407 9712      	SBIW R26,2
002408 f411      	BRNE _0x37D
                 ; 0000 19D3                         ostateczny_wybor_zacisku();
002409 940e 1b19 	CALL _ostateczny_wybor_zacisku
                 ; 0000 19D4 
                 ; 0000 19D5                     if(cykl_sterownik_4 < 5)
                 _0x37D:
00240b 940e 3069 	CALL SUBOPT_0xA5
00240d 9715      	SBIW R26,5
00240e f434      	BRGE _0x37E
                 ; 0000 19D6                        //cykl_sterownik_4 = sterownik_4_praca(0,1,0,0,0,1); //INV
                 ; 0000 19D7                          cykl_sterownik_4 = sterownik_4_praca(a[3]); //INV
00240f 940e 2f0a 	CALL SUBOPT_0x75
002411 93fa      	ST   -Y,R31
002412 93ea      	ST   -Y,R30
002413 940e 306e 	CALL SUBOPT_0xA6
                 ; 0000 19D8 
                 ; 0000 19D9                     if(cykl_sterownik_4 == 5 & szczotka_druc_cykl < szczotka_druciana_ilosc_cykli)
                 _0x37E:
002415 940e 312d 	CALL SUBOPT_0xC7
002417 940e 316c 	CALL SUBOPT_0xD1
002419 940e 3170 	CALL SUBOPT_0xD2
00241b 940e 3373 	CALL __LTW12
00241d 21e0      	AND  R30,R0
00241e f1e1      	BREQ _0x37F
                 ; 0000 19DA                         {
                 ; 0000 19DB                         szczotka_druc_cykl++;
00241f 940e 3175 	CALL SUBOPT_0xD3
                 ; 0000 19DC                         cykl_sterownik_4 = 0;
002421 940e 315f 	CALL SUBOPT_0xCF
                 ; 0000 19DD 
                 ; 0000 19DE                         if(szczotka_druc_cykl == szczotka_druciana_ilosc_cykli)
002423 940e 2c81 	CALL SUBOPT_0x1D
002425 940e 3170 	CALL SUBOPT_0xD2
002427 17ea      	CP   R30,R26
002428 07fb      	CPC  R31,R27
002429 f4c9      	BRNE _0x380
                 ; 0000 19DF                             {
                 ; 0000 19E0                             if(rzad_obrabiany == 1)
00242a 940e 3106 	CALL SUBOPT_0xC0
00242c 9711      	SBIW R26,1
00242d f441      	BRNE _0x381
                 ; 0000 19E1                              {
                 ; 0000 19E2                              while(sprawdz_pin0(PORTMM,0x77) == 1)
                 _0x382:
00242e 940e 2ca3 	CALL SUBOPT_0x23
002430 940e 040d 	CALL _sprawdz_pin0
002432 30e1      	CPI  R30,LOW(0x1)
002433 f3d1      	BREQ _0x382
                 ; 0000 19E3                                 {
                 ; 0000 19E4                                 }
                 ; 0000 19E5 
                 ; 0000 19E6                             cykl_glowny = 4;
002434 940e 317d 	CALL SUBOPT_0xD4
                 ; 0000 19E7                              }
                 ; 0000 19E8 
                 ; 0000 19E9                         if(rzad_obrabiany == 2)
                 _0x381:
002436 940e 3106 	CALL SUBOPT_0xC0
002438 9712      	SBIW R26,2
002439 f441      	BRNE _0x385
                 ; 0000 19EA                              {
                 ; 0000 19EB                              while(sprawdz_pin1(PORTMM,0x77) == 1)
                 _0x386:
00243a 940e 2ca3 	CALL SUBOPT_0x23
00243c 940e 0410 	CALL _sprawdz_pin1
00243e 30e1      	CPI  R30,LOW(0x1)
00243f f3d1      	BREQ _0x386
                 ; 0000 19EC                                 {
                 ; 0000 19ED                                 }
                 ; 0000 19EE 
                 ; 0000 19EF                             cykl_glowny = 4;
002440 940e 317d 	CALL SUBOPT_0xD4
                 ; 0000 19F0                              }
                 ; 0000 19F1                             }
                 _0x385:
                 ; 0000 19F2                         else
002442 c018      	RJMP _0x389
                 _0x380:
                 ; 0000 19F3                             {
                 ; 0000 19F4                             if(rzad_obrabiany == 1)
002443 940e 3106 	CALL SUBOPT_0xC0
002445 9711      	SBIW R26,1
002446 f441      	BRNE _0x38A
                 ; 0000 19F5                              {
                 ; 0000 19F6                              while(sprawdz_pin0(PORTMM,0x77) == 1)
                 _0x38B:
002447 940e 2ca3 	CALL SUBOPT_0x23
002449 940e 040d 	CALL _sprawdz_pin0
00244b 30e1      	CPI  R30,LOW(0x1)
00244c f3d1      	BREQ _0x38B
                 ; 0000 19F7                                 {
                 ; 0000 19F8                                 }
                 ; 0000 19F9 
                 ; 0000 19FA                             cykl_glowny = 2;
00244d 940e 3151 	CALL SUBOPT_0xCD
                 ; 0000 19FB                              }
                 ; 0000 19FC 
                 ; 0000 19FD                         if(rzad_obrabiany == 2)
                 _0x38A:
00244f 940e 3106 	CALL SUBOPT_0xC0
002451 9712      	SBIW R26,2
002452 f441      	BRNE _0x38E
                 ; 0000 19FE                              {
                 ; 0000 19FF                              while(sprawdz_pin1(PORTMM,0x77) == 1)
                 _0x38F:
002453 940e 2ca3 	CALL SUBOPT_0x23
002455 940e 0410 	CALL _sprawdz_pin1
002457 30e1      	CPI  R30,LOW(0x1)
002458 f3d1      	BREQ _0x38F
                 ; 0000 1A00                                 {
                 ; 0000 1A01                                 }
                 ; 0000 1A02 
                 ; 0000 1A03                             cykl_glowny = 2;
002459 940e 3151 	CALL SUBOPT_0xCD
                 ; 0000 1A04                              }
                 ; 0000 1A05 
                 ; 0000 1A06                             }
                 _0x38E:
                 _0x389:
                 ; 0000 1A07                         }
                 ; 0000 1A08 
                 ; 0000 1A09 
                 ; 0000 1A0A 
                 ; 0000 1A0B             break;
                 _0x37F:
00245b c5d4      	RJMP _0x341
                 ; 0000 1A0C 
                 ; 0000 1A0D             case 4:
                 _0x37C:
00245c 30e4      	CPI  R30,LOW(0x4)
00245d e0a0      	LDI  R26,HIGH(0x4)
00245e 07fa      	CPC  R31,R26
00245f f571      	BRNE _0x392
                 ; 0000 1A0E 
                 ; 0000 1A0F 
                 ; 0000 1A10                       if(rzad_obrabiany == 2)
002460 940e 3106 	CALL SUBOPT_0xC0
002462 9712      	SBIW R26,2
002463 f411      	BRNE _0x393
                 ; 0000 1A11                             ostateczny_wybor_zacisku();
002464 940e 1b19 	CALL _ostateczny_wybor_zacisku
                 ; 0000 1A12 
                 ; 0000 1A13                      if(cykl_sterownik_4 < 5)
                 _0x393:
002466 940e 3069 	CALL SUBOPT_0xA5
002468 9715      	SBIW R26,5
002469 f424      	BRGE _0x394
                 ; 0000 1A14                         //cykl_sterownik_4 = sterownik_4_praca(0,0,0,0,0,1);  //do pozycji bazowej
                 ; 0000 1A15                         cykl_sterownik_4 = sterownik_4_praca(0x01);
00246a 940e 305c 	CALL SUBOPT_0xA2
00246c 940e 306e 	CALL SUBOPT_0xA6
                 ; 0000 1A16 
                 ; 0000 1A17                      if(cykl_sterownik_4 == 5)
                 _0x394:
00246e 940e 3069 	CALL SUBOPT_0xA5
002470 9715      	SBIW R26,5
002471 f4d9      	BRNE _0x395
                 ; 0000 1A18                         {
                 ; 0000 1A19                         PORTE.2 = 0;  //wylacz szlifierke
002472 981a      	CBI  0x3,2
                 ; 0000 1A1A                         cykl_sterownik_4 = 0;
002473 940e 315f 	CALL SUBOPT_0xCF
                 ; 0000 1A1B 
                 ; 0000 1A1C 
                 ; 0000 1A1D                         if(rzad_obrabiany == 1)
002475 940e 3106 	CALL SUBOPT_0xC0
002477 9711      	SBIW R26,1
002478 f441      	BRNE _0x398
                 ; 0000 1A1E                              {
                 ; 0000 1A1F                              while(sprawdz_pin0(PORTMM,0x77) == 1)
                 _0x399:
002479 940e 2ca3 	CALL SUBOPT_0x23
00247b 940e 040d 	CALL _sprawdz_pin0
00247d 30e1      	CPI  R30,LOW(0x1)
00247e f3d1      	BREQ _0x399
                 ; 0000 1A20                                 {
                 ; 0000 1A21                                 }
                 ; 0000 1A22                                ruch_zlozony = 0;
00247f 940e 3184 	CALL SUBOPT_0xD5
                 ; 0000 1A23                             cykl_glowny = 5;
                 ; 0000 1A24                              }
                 ; 0000 1A25 
                 ; 0000 1A26                         if(rzad_obrabiany == 2)
                 _0x398:
002481 940e 3106 	CALL SUBOPT_0xC0
002483 9712      	SBIW R26,2
002484 f441      	BRNE _0x39C
                 ; 0000 1A27                              {
                 ; 0000 1A28                              while(sprawdz_pin1(PORTMM,0x77) == 1)
                 _0x39D:
002485 940e 2ca3 	CALL SUBOPT_0x23
002487 940e 0410 	CALL _sprawdz_pin1
002489 30e1      	CPI  R30,LOW(0x1)
00248a f3d1      	BREQ _0x39D
                 ; 0000 1A29                                 {
                 ; 0000 1A2A                                 }
                 ; 0000 1A2B                                ruch_zlozony = 0;
00248b 940e 3184 	CALL SUBOPT_0xD5
                 ; 0000 1A2C                             cykl_glowny = 5;
                 ; 0000 1A2D                              }
                 ; 0000 1A2E 
                 ; 0000 1A2F                         }
                 _0x39C:
                 ; 0000 1A30 
                 ; 0000 1A31             break;
                 _0x395:
00248d c5a2      	RJMP _0x341
                 ; 0000 1A32 
                 ; 0000 1A33             case 5:
                 _0x392:
00248e 30e5      	CPI  R30,LOW(0x5)
00248f e0a0      	LDI  R26,HIGH(0x5)
002490 07fa      	CPC  R31,R26
002491 f011      	BREQ PC+3
002492 940c 2547 	JMP _0x3A0
                 ; 0000 1A34 
                 ; 0000 1A35 
                 ; 0000 1A36                     if(cykl_sterownik_1 < 5 & ruch_zlozony == 0 & rzad_obrabiany == 1)
002494 940e 3190 	CALL SUBOPT_0xD6
002496 940e 319b 	CALL SUBOPT_0xD7
002498 21e0      	AND  R30,R0
002499 f021      	BREQ _0x3A1
                 ; 0000 1A37                         cykl_sterownik_1 = sterownik_1_praca(0x000);
00249a 940e 2cad 	CALL SUBOPT_0x24
00249c 940e 308d 	CALL SUBOPT_0xAA
                 ; 0000 1A38                     if(cykl_sterownik_1 < 5 & ruch_zlozony == 0 & rzad_obrabiany == 2)
                 _0x3A1:
00249e 940e 3190 	CALL SUBOPT_0xD6
0024a0 940e 319e 	CALL SUBOPT_0xD8
0024a2 f021      	BREQ _0x3A2
                 ; 0000 1A39                         cykl_sterownik_1 = sterownik_1_praca(0x001);
0024a3 940e 305c 	CALL SUBOPT_0xA2
0024a5 940e 308d 	CALL SUBOPT_0xAA
                 ; 0000 1A3A 
                 ; 0000 1A3B                      if(rzad_obrabiany == 2)
                 _0x3A2:
0024a7 940e 3106 	CALL SUBOPT_0xC0
0024a9 9712      	SBIW R26,2
0024aa f411      	BRNE _0x3A3
                 ; 0000 1A3C                         ostateczny_wybor_zacisku();
0024ab 940e 1b19 	CALL _ostateczny_wybor_zacisku
                 ; 0000 1A3D 
                 ; 0000 1A3E                     if(cykl_sterownik_1 == 5 & ruch_zlozony == 0)
                 _0x3A3:
0024ad 940e 31a1 	CALL SUBOPT_0xD9
0024af 940e 3361 	CALL __EQW12
0024b1 940e 31a5 	CALL SUBOPT_0xDA
0024b3 940e 2f9b 	CALL SUBOPT_0x8A
0024b5 21e0      	AND  R30,R0
0024b6 f041      	BREQ _0x3A4
                 ; 0000 1A3F                         {
                 ; 0000 1A40                         cykl_sterownik_1 = 0;
0024b7 940e 313c 	CALL SUBOPT_0xCA
                 ; 0000 1A41                         ruch_zlozony = 1;
0024b9 e0e1      	LDI  R30,LOW(1)
0024ba e0f0      	LDI  R31,HIGH(1)
0024bb 93e0 054b 	STS  _ruch_zlozony,R30
0024bd 93f0 054c 	STS  _ruch_zlozony+1,R31
                 ; 0000 1A42                         }
                 ; 0000 1A43 
                 ; 0000 1A44                     if(cykl_sterownik_1 < 5 & ruch_zlozony == 1 & rzad_obrabiany == 1)
                 _0x3A4:
0024bf 940e 31a1 	CALL SUBOPT_0xD9
0024c1 940e 31ab 	CALL SUBOPT_0xDB
0024c3 940e 2f23 	CALL SUBOPT_0x79
0024c5 940e 319b 	CALL SUBOPT_0xD7
0024c7 21e0      	AND  R30,R0
0024c8 f021      	BREQ _0x3A5
                 ; 0000 1A45                         //cykl_sterownik_1 = sterownik_1_praca(0x5A,0);
                 ; 0000 1A46                         cykl_sterownik_1 = sterownik_1_praca(a[0]);
0024c9 940e 30a9 	CALL SUBOPT_0xAE
0024cb 940e 308d 	CALL SUBOPT_0xAA
                 ; 0000 1A47                     if(cykl_sterownik_1 < 5 & ruch_zlozony == 1 & rzad_obrabiany == 2)
                 _0x3A5:
0024cd 940e 31a1 	CALL SUBOPT_0xD9
0024cf 940e 31ab 	CALL SUBOPT_0xDB
0024d1 940e 2f23 	CALL SUBOPT_0x79
0024d3 940e 319e 	CALL SUBOPT_0xD8
0024d5 f021      	BREQ _0x3A6
                 ; 0000 1A48                         //cykl_sterownik_1 = sterownik_1_praca(0x5B,0);
                 ; 0000 1A49                           cykl_sterownik_1 = sterownik_1_praca(a[1]);
0024d6 940e 30c3 	CALL SUBOPT_0xB3
0024d8 940e 308d 	CALL SUBOPT_0xAA
                 ; 0000 1A4A 
                 ; 0000 1A4B 
                 ; 0000 1A4C                     if(cykl_sterownik_1 < 5 & ruch_zlozony == 2)
                 _0x3A6:
0024da 940e 31a1 	CALL SUBOPT_0xD9
0024dc 940e 31ab 	CALL SUBOPT_0xDB
0024de 940e 3127 	CALL SUBOPT_0xC6
0024e0 f021      	BREQ _0x3A7
                 ; 0000 1A4D                         cykl_sterownik_1 = sterownik_1_praca(0x003);     ////////////////////////////////////////////////////////////
0024e1 e0e3      	LDI  R30,LOW(3)
0024e2 e0f0      	LDI  R31,HIGH(3)
0024e3 940e 3110 	CALL SUBOPT_0xC2
                 ; 0000 1A4E 
                 ; 0000 1A4F                     if(cykl_sterownik_2 < 5 & koniec_rzedu_10 == 0)                                //ster 1 do pierwszego dolka
                 _0x3A7:
0024e5 940e 3138 	CALL SUBOPT_0xC9
0024e7 940e 31ae 	CALL SUBOPT_0xDC
0024e9 940e 2f9b 	CALL SUBOPT_0x8A
0024eb 21e0      	AND  R30,R0
0024ec f021      	BREQ _0x3A8
                 ; 0000 1A50                         cykl_sterownik_2 = sterownik_2_praca(0x003);       //ster 2 pod nastpeny dolek
0024ed e0e3      	LDI  R30,LOW(3)
0024ee e0f0      	LDI  R31,HIGH(3)
0024ef 940e 31b6 	CALL SUBOPT_0xDD
                 ; 0000 1A51 
                 ; 0000 1A52 
                 ; 0000 1A53                     if(cykl_sterownik_2 < 5 & koniec_rzedu_10 == 1 & rzad_obrabiany == 1)
                 _0x3A8:
0024f1 940e 3138 	CALL SUBOPT_0xC9
0024f3 940e 31ae 	CALL SUBOPT_0xDC
0024f5 940e 2f23 	CALL SUBOPT_0x79
0024f7 940e 319b 	CALL SUBOPT_0xD7
0024f9 21e0      	AND  R30,R0
0024fa f011      	BREQ _0x3A9
                 ; 0000 1A54                         cykl_sterownik_2 = sterownik_2_praca(0x008);      //ster 2 do samego tylu
0024fb 940e 3095 	CALL SUBOPT_0xAC
                 ; 0000 1A55                      if(cykl_sterownik_2 < 5 & koniec_rzedu_10 == 1 & rzad_obrabiany == 2)
                 _0x3A9:
0024fd 940e 3138 	CALL SUBOPT_0xC9
0024ff 940e 31ae 	CALL SUBOPT_0xDC
002501 940e 2f23 	CALL SUBOPT_0x79
002503 940e 319e 	CALL SUBOPT_0xD8
002505 f021      	BREQ _0x3AA
                 ; 0000 1A56                         cykl_sterownik_2 = sterownik_2_praca(0x009);      //ster 2 do samego tylu
002506 940e 310b 	CALL SUBOPT_0xC1
002508 940e 30da 	CALL SUBOPT_0xB8
                 ; 0000 1A57 
                 ; 0000 1A58                     if((cykl_sterownik_1 == 5 & cykl_sterownik_2 == 5 & ruch_zlozony == 1) | (cykl_sterownik_1 == 5 & cykl_sterownik_2 == 5) & ruch_zlozony == 2)
                 _0x3AA:
00250a 940e 31a1 	CALL SUBOPT_0xD9
00250c 940e 3361 	CALL __EQW12
00250e 940e 3131 	CALL SUBOPT_0xC8
002510 220e      	AND  R0,R30
002511 91a0 054b 	LDS  R26,_ruch_zlozony
002513 91b0 054c 	LDS  R27,_ruch_zlozony+1
002515 940e 2f23 	CALL SUBOPT_0x79
002517 21e0      	AND  R30,R0
002518 2e1e      	MOV  R1,R30
002519 940e 31a1 	CALL SUBOPT_0xD9
00251b 940e 3361 	CALL __EQW12
00251d 940e 3131 	CALL SUBOPT_0xC8
00251f 220e      	AND  R0,R30
002520 91a0 054b 	LDS  R26,_ruch_zlozony
002522 91b0 054c 	LDS  R27,_ruch_zlozony+1
002524 940e 3127 	CALL SUBOPT_0xC6
002526 29e1      	OR   R30,R1
002527 f0f1      	BREQ _0x3AB
                 ; 0000 1A59                         {
                 ; 0000 1A5A                         cykl_sterownik_1 = 0;
002528 940e 313c 	CALL SUBOPT_0xCA
                 ; 0000 1A5B                         cykl_sterownik_2 = 0;
00252a 940e 3142 	CALL SUBOPT_0xCB
                 ; 0000 1A5C                         cykl_sterownik_4 = 0;
                 ; 0000 1A5D                         cykl_sterownik_3 = 0;
00252c 940e 31b9 	CALL SUBOPT_0xDE
                 ; 0000 1A5E                         if(rzad_obrabiany == 1)
00252e 940e 3106 	CALL SUBOPT_0xC0
002530 9711      	SBIW R26,1
002531 f441      	BRNE _0x3AC
                 ; 0000 1A5F                              {
                 ; 0000 1A60                              while(sprawdz_pin0(PORTMM,0x77) == 1)
                 _0x3AD:
002532 940e 2ca3 	CALL SUBOPT_0x23
002534 940e 040d 	CALL _sprawdz_pin0
002536 30e1      	CPI  R30,LOW(0x1)
002537 f3d1      	BREQ _0x3AD
                 ; 0000 1A61                                 {
                 ; 0000 1A62                                 }
                 ; 0000 1A63                              cykl_glowny = 6;
002538 940e 31be 	CALL SUBOPT_0xDF
                 ; 0000 1A64                              }
                 ; 0000 1A65 
                 ; 0000 1A66                         if(rzad_obrabiany == 2)
                 _0x3AC:
00253a 940e 3106 	CALL SUBOPT_0xC0
00253c 9712      	SBIW R26,2
00253d f441      	BRNE _0x3B0
                 ; 0000 1A67                              {
                 ; 0000 1A68                              while(sprawdz_pin1(PORTMM,0x77) == 1)
                 _0x3B1:
00253e 940e 2ca3 	CALL SUBOPT_0x23
002540 940e 0410 	CALL _sprawdz_pin1
002542 30e1      	CPI  R30,LOW(0x1)
002543 f3d1      	BREQ _0x3B1
                 ; 0000 1A69                                 {
                 ; 0000 1A6A                                 }
                 ; 0000 1A6B                              cykl_glowny = 6;
002544 940e 31be 	CALL SUBOPT_0xDF
                 ; 0000 1A6C                              }
                 ; 0000 1A6D                         }
                 _0x3B0:
                 ; 0000 1A6E 
                 ; 0000 1A6F             break;
                 _0x3AB:
002546 c4e9      	RJMP _0x341
                 ; 0000 1A70 
                 ; 0000 1A71 
                 ; 0000 1A72             case 6:
                 _0x3A0:
002547 30e6      	CPI  R30,LOW(0x6)
002548 e0a0      	LDI  R26,HIGH(0x6)
002549 07fa      	CPC  R31,R26
00254a f011      	BREQ PC+3
00254b 940c 25af 	JMP _0x3B4
                 ; 0000 1A73 
                 ; 0000 1A74 
                 ; 0000 1A75 
                 ; 0000 1A76 
                 ; 0000 1A77                     if(cykl_sterownik_3 < 5)
00254d 940e 3061 	CALL SUBOPT_0xA3
00254f 9715      	SBIW R26,5
002550 f424      	BRGE _0x3B5
                 ; 0000 1A78                         cykl_sterownik_3 = sterownik_3_praca(a[4]);  //abs //krazek scierny do gory
002551 940e 2ef1 	CALL SUBOPT_0x72
002553 940e 30ad 	CALL SUBOPT_0xAF
                 ; 0000 1A79 
                 ; 0000 1A7A                     if(koniec_rzedu_10 == 1)
                 _0x3B5:
002555 91a0 0559 	LDS  R26,_koniec_rzedu_10
002557 91b0 055a 	LDS  R27,_koniec_rzedu_10+1
002559 9711      	SBIW R26,1
00255a f421      	BRNE _0x3B6
                 ; 0000 1A7B                         cykl_sterownik_4 = 5;
00255b e0e5      	LDI  R30,LOW(5)
00255c e0f0      	LDI  R31,HIGH(5)
00255d 940e 3015 	CALL SUBOPT_0x9A
                 ; 0000 1A7C 
                 ; 0000 1A7D                     if(cykl_sterownik_4 < 5)
                 _0x3B6:
00255f 940e 3069 	CALL SUBOPT_0xA5
002561 9715      	SBIW R26,5
002562 f414      	BRGE _0x3B7
                 ; 0000 1A7E                         cykl_sterownik_4 = sterownik_4_praca(a[2]);    //ABS          //druciak do gory
002563 940e 3158 	CALL SUBOPT_0xCE
                 ; 0000 1A7F 
                 ; 0000 1A80                      if(rzad_obrabiany == 2)
                 _0x3B7:
002565 940e 3106 	CALL SUBOPT_0xC0
002567 9712      	SBIW R26,2
002568 f411      	BRNE _0x3B8
                 ; 0000 1A81                         ostateczny_wybor_zacisku();
002569 940e 1b19 	CALL _ostateczny_wybor_zacisku
                 ; 0000 1A82 
                 ; 0000 1A83 
                 ; 0000 1A84                     if(cykl_sterownik_4 == 5 & cykl_sterownik_3 == 5)
                 _0x3B8:
00256b 940e 312d 	CALL SUBOPT_0xC7
00256d 940e 3361 	CALL __EQW12
00256f 2e0e      	MOV  R0,R30
002570 940e 31c5 	CALL SUBOPT_0xE0
002572 940e 3361 	CALL __EQW12
002574 21e0      	AND  R30,R0
002575 f1c1      	BREQ _0x3B9
                 ; 0000 1A85                         {
                 ; 0000 1A86                         if((cykl_ilosc_zaciskow != il_zaciskow_rzad_1 - 1 & rzad_obrabiany == 1) | (cykl_ilosc_zaciskow != il_zaciskow_rzad_2 - 1 & rzad_obrabiany == 2))
002576 940e 31c9 	CALL SUBOPT_0xE1
002578 2e0e      	MOV  R0,R30
002579 940e 3106 	CALL SUBOPT_0xC0
00257b 940e 2f23 	CALL SUBOPT_0x79
00257d 21e0      	AND  R30,R0
00257e 2e1e      	MOV  R1,R30
00257f 940e 31d5 	CALL SUBOPT_0xE2
002581 2e0e      	MOV  R0,R30
002582 940e 3106 	CALL SUBOPT_0xC0
002584 940e 3127 	CALL SUBOPT_0xC6
002586 29e1      	OR   R30,R1
002587 f009      	BREQ _0x3BA
                 ; 0000 1A87                             PORTE.2 = 1;  //wlacz szlifierke
002588 9a1a      	SBI  0x3,2
                 ; 0000 1A88                         PORTB.4 = 1;  //przedmuch osi
                 _0x3BA:
002589 9ac4      	SBI  0x18,4
                 ; 0000 1A89                         PORTE.3 = 1;  //szlifierka 2 (krazek scierny)
00258a 9a1b      	SBI  0x3,3
                 ; 0000 1A8A                         cykl_sterownik_3 = 0;
00258b 940e 307e 	CALL SUBOPT_0xA8
                 ; 0000 1A8B                         cykl_sterownik_4 = 0;
                 ; 0000 1A8C                         if(cykl_ilosc_zaciskow > 0)
00258d 940e 31de 	CALL SUBOPT_0xE3
00258f 940e 33c2 	CALL __CPW02
002591 f424      	BRGE _0x3C1
                 ; 0000 1A8D                                 {
                 ; 0000 1A8E                                 sek12 = 0;    //do przedmuchu
002592 940e 31e3 	CALL SUBOPT_0xE4
                 ; 0000 1A8F                                 PORT_F.bits.b4 = 1;  //przedmuch zaciskow
002594 940e 31ed 	CALL SUBOPT_0xE5
                 ; 0000 1A90                                 PORTF = PORT_F.byte;
                 ; 0000 1A91                                 }
                 ; 0000 1A92                         if(rzad_obrabiany == 1)
                 _0x3C1:
002596 940e 3106 	CALL SUBOPT_0xC0
002598 9711      	SBIW R26,1
002599 f441      	BRNE _0x3C2
                 ; 0000 1A93                              {
                 ; 0000 1A94                              while(sprawdz_pin0(PORTMM,0x77) == 1)
                 _0x3C3:
00259a 940e 2ca3 	CALL SUBOPT_0x23
00259c 940e 040d 	CALL _sprawdz_pin0
00259e 30e1      	CPI  R30,LOW(0x1)
00259f f3d1      	BREQ _0x3C3
                 ; 0000 1A95                                 {
                 ; 0000 1A96                                 }
                 ; 0000 1A97                              cykl_glowny = 7;
0025a0 940e 31f1 	CALL SUBOPT_0xE6
                 ; 0000 1A98                              }
                 ; 0000 1A99 
                 ; 0000 1A9A                         if(rzad_obrabiany == 2)
                 _0x3C2:
0025a2 940e 3106 	CALL SUBOPT_0xC0
0025a4 9712      	SBIW R26,2
0025a5 f441      	BRNE _0x3C6
                 ; 0000 1A9B                              {
                 ; 0000 1A9C                              while(sprawdz_pin1(PORTMM,0x77) == 1)
                 _0x3C7:
0025a6 940e 2ca3 	CALL SUBOPT_0x23
0025a8 940e 0410 	CALL _sprawdz_pin1
0025aa 30e1      	CPI  R30,LOW(0x1)
0025ab f3d1      	BREQ _0x3C7
                 ; 0000 1A9D                                 {
                 ; 0000 1A9E                                 }
                 ; 0000 1A9F                              cykl_glowny = 7;
0025ac 940e 31f1 	CALL SUBOPT_0xE6
                 ; 0000 1AA0                              }
                 ; 0000 1AA1                         }
                 _0x3C6:
                 ; 0000 1AA2 
                 ; 0000 1AA3            break;
                 _0x3B9:
0025ae c481      	RJMP _0x341
                 ; 0000 1AA4 
                 ; 0000 1AA5 
                 ; 0000 1AA6            case 7:
                 _0x3B4:
0025af 30e7      	CPI  R30,LOW(0x7)
0025b0 e0a0      	LDI  R26,HIGH(0x7)
0025b1 07fa      	CPC  R31,R26
0025b2 f011      	BREQ PC+3
0025b3 940c 25f6 	JMP _0x3CA
                 ; 0000 1AA7                                                                                               //mini ruch do przygotowania do okregu
                 ; 0000 1AA8                     if(cykl_sterownik_1 < 5)
0025b5 940e 3088 	CALL SUBOPT_0xA9
0025b7 9715      	SBIW R26,5
0025b8 f424      	BRGE _0x3CB
                 ; 0000 1AA9                           cykl_sterownik_1 = sterownik_1_praca(a[5]);
0025b9 940e 2ef6 	CALL SUBOPT_0x73
0025bb 940e 3110 	CALL SUBOPT_0xC2
                 ; 0000 1AAA 
                 ; 0000 1AAB                      if(rzad_obrabiany == 2)
                 _0x3CB:
0025bd 940e 3106 	CALL SUBOPT_0xC0
0025bf 9712      	SBIW R26,2
0025c0 f411      	BRNE _0x3CC
                 ; 0000 1AAC                         ostateczny_wybor_zacisku();
0025c1 940e 1b19 	CALL _ostateczny_wybor_zacisku
                 ; 0000 1AAD 
                 ; 0000 1AAE                     if(cykl_sterownik_1 == 5)
                 _0x3CC:
0025c3 940e 3088 	CALL SUBOPT_0xA9
0025c5 9715      	SBIW R26,5
0025c6 f571      	BRNE _0x3CD
                 ; 0000 1AAF                         {
                 ; 0000 1AB0                         cykl_sterownik_1 = 0;
0025c7 940e 313c 	CALL SUBOPT_0xCA
                 ; 0000 1AB1 
                 ; 0000 1AB2                         szczotka_druc_cykl = 0;
0025c9 e0e0      	LDI  R30,LOW(0)
0025ca 940e 314c 	CALL SUBOPT_0xCC
                 ; 0000 1AB3                         krazek_scierny_cykl_po_okregu = 0;
0025cc e0e0      	LDI  R30,LOW(0)
0025cd 93e0 054d 	STS  _krazek_scierny_cykl_po_okregu,R30
0025cf 93e0 054e 	STS  _krazek_scierny_cykl_po_okregu+1,R30
                 ; 0000 1AB4                         wykonalem_komplet_okregow = 0;
0025d1 93e0 0553 	STS  _wykonalem_komplet_okregow,R30
0025d3 93e0 0554 	STS  _wykonalem_komplet_okregow+1,R30
                 ; 0000 1AB5                         abs_ster3 = 0;
0025d5 93e0 0555 	STS  _abs_ster3,R30
0025d7 93e0 0556 	STS  _abs_ster3+1,R30
                 ; 0000 1AB6                         abs_ster4 = 0;
0025d9 93e0 0557 	STS  _abs_ster4,R30
0025db 93e0 0558 	STS  _abs_ster4+1,R30
                 ; 0000 1AB7                         if(rzad_obrabiany == 1)
0025dd 940e 3106 	CALL SUBOPT_0xC0
0025df 9711      	SBIW R26,1
0025e0 f441      	BRNE _0x3CE
                 ; 0000 1AB8                              {
                 ; 0000 1AB9                              while(sprawdz_pin0(PORTMM,0x77) == 1)
                 _0x3CF:
0025e1 940e 2ca3 	CALL SUBOPT_0x23
0025e3 940e 040d 	CALL _sprawdz_pin0
0025e5 30e1      	CPI  R30,LOW(0x1)
0025e6 f3d1      	BREQ _0x3CF
                 ; 0000 1ABA                                 {
                 ; 0000 1ABB                                 }
                 ; 0000 1ABC                              cykl_glowny = 8;
0025e7 940e 31f8 	CALL SUBOPT_0xE7
                 ; 0000 1ABD                              }
                 ; 0000 1ABE 
                 ; 0000 1ABF                         if(rzad_obrabiany == 2)
                 _0x3CE:
0025e9 940e 3106 	CALL SUBOPT_0xC0
0025eb 9712      	SBIW R26,2
0025ec f441      	BRNE _0x3D2
                 ; 0000 1AC0                              {
                 ; 0000 1AC1                              while(sprawdz_pin1(PORTMM,0x77) == 1)
                 _0x3D3:
0025ed 940e 2ca3 	CALL SUBOPT_0x23
0025ef 940e 0410 	CALL _sprawdz_pin1
0025f1 30e1      	CPI  R30,LOW(0x1)
0025f2 f3d1      	BREQ _0x3D3
                 ; 0000 1AC2                                 {
                 ; 0000 1AC3                                 }
                 ; 0000 1AC4                              cykl_glowny = 8;
0025f3 940e 31f8 	CALL SUBOPT_0xE7
                 ; 0000 1AC5                              }
                 ; 0000 1AC6                         }
                 _0x3D2:
                 ; 0000 1AC7 
                 ; 0000 1AC8 
                 ; 0000 1AC9 
                 ; 0000 1ACA            break;
                 _0x3CD:
0025f5 c43a      	RJMP _0x341
                 ; 0000 1ACB 
                 ; 0000 1ACC 
                 ; 0000 1ACD             case 8:
                 _0x3CA:
0025f6 30e8      	CPI  R30,LOW(0x8)
0025f7 e0a0      	LDI  R26,HIGH(0x8)
0025f8 07fa      	CPC  R31,R26
0025f9 f011      	BREQ PC+3
0025fa 940c 276d 	JMP _0x3D6
                 ; 0000 1ACE 
                 ; 0000 1ACF                     if(sek12 > czas_przedmuchu)
0025fc 940e 31ff 	CALL SUBOPT_0xE8
0025fe f414      	BRGE _0x3D7
                 ; 0000 1AD0                         {
                 ; 0000 1AD1                         PORT_F.bits.b4 = 0;  //przedmuch zaciskow
0025ff 940e 3210 	CALL SUBOPT_0xE9
                 ; 0000 1AD2                         PORTF = PORT_F.byte;
                 ; 0000 1AD3                         }
                 ; 0000 1AD4 
                 ; 0000 1AD5 
                 ; 0000 1AD6                      if(rzad_obrabiany == 2)
                 _0x3D7:
002601 940e 3106 	CALL SUBOPT_0xC0
002603 9712      	SBIW R26,2
002604 f411      	BRNE _0x3D8
                 ; 0000 1AD7                         ostateczny_wybor_zacisku();
002605 940e 1b19 	CALL _ostateczny_wybor_zacisku
                 ; 0000 1AD8 
                 ; 0000 1AD9                     if(cykl_sterownik_1 < 5 & krazek_scierny_cykl_po_okregu < krazek_scierny_cykl_po_okregu_ilosc &  wykonalem_komplet_okregow == 0)
                 _0x3D8:
002607 940e 31a1 	CALL SUBOPT_0xD9
002609 940e 3373 	CALL __LTW12
00260b 2e0e      	MOV  R0,R30
00260c 940e 2c8b 	CALL SUBOPT_0x1F
00260e 940e 3214 	CALL SUBOPT_0xEA
002610 21e0      	AND  R30,R0
002611 f031      	BREQ _0x3D9
                 ; 0000 1ADA                           cykl_sterownik_1 = sterownik_1_praca(a[6]);
                +
002612 91e0 0571+LDS R30 , _a + ( 12 )
002614 91f0 0572+LDS R31 , _a + ( 12 ) + 1
                 	__GETW1MN _a,12
002616 940e 3110 	CALL SUBOPT_0xC2
                 ; 0000 1ADB 
                 ; 0000 1ADC                     if(cykl_sterownik_1 == 5 & krazek_scierny_cykl_po_okregu < krazek_scierny_cykl_po_okregu_ilosc &  wykonalem_komplet_okregow == 0)
                 _0x3D9:
002618 940e 31a1 	CALL SUBOPT_0xD9
00261a 940e 3361 	CALL __EQW12
00261c 2e0e      	MOV  R0,R30
00261d 940e 2c8b 	CALL SUBOPT_0x1F
00261f 940e 3214 	CALL SUBOPT_0xEA
002621 21e0      	AND  R30,R0
002622 f031      	BREQ _0x3DA
                 ; 0000 1ADD                         {
                 ; 0000 1ADE                         cykl_sterownik_1 = 0;
002623 940e 313c 	CALL SUBOPT_0xCA
                 ; 0000 1ADF                         krazek_scierny_cykl_po_okregu++;
002625 e4ad      	LDI  R26,LOW(_krazek_scierny_cykl_po_okregu)
002626 e0b5      	LDI  R27,HIGH(_krazek_scierny_cykl_po_okregu)
002627 940e 3220 	CALL SUBOPT_0xEB
                 ; 0000 1AE0                         }
                 ; 0000 1AE1 
                 ; 0000 1AE2                     if(krazek_scierny_cykl_po_okregu == krazek_scierny_cykl_po_okregu_ilosc &  wykonalem_komplet_okregow == 0)
                 _0x3DA:
002629 940e 2c8b 	CALL SUBOPT_0x1F
00262b 91a0 054d 	LDS  R26,_krazek_scierny_cykl_po_okregu
00262d 91b0 054e 	LDS  R27,_krazek_scierny_cykl_po_okregu+1
00262f 940e 3226 	CALL SUBOPT_0xEC
002631 940e 2f9b 	CALL SUBOPT_0x8A
002633 21e0      	AND  R30,R0
002634 f041      	BREQ _0x3DB
                 ; 0000 1AE3                         {
                 ; 0000 1AE4                         cykl_sterownik_1 = 0;
002635 940e 313c 	CALL SUBOPT_0xCA
                 ; 0000 1AE5                         wykonalem_komplet_okregow = 1;
002637 e0e1      	LDI  R30,LOW(1)
002638 e0f0      	LDI  R31,HIGH(1)
002639 93e0 0553 	STS  _wykonalem_komplet_okregow,R30
00263b 93f0 0554 	STS  _wykonalem_komplet_okregow+1,R31
                 ; 0000 1AE6                         }
                 ; 0000 1AE7 
                 ; 0000 1AE8                     if(koniec_rzedu_10 == 1)
                 _0x3DB:
00263d 91a0 0559 	LDS  R26,_koniec_rzedu_10
00263f 91b0 055a 	LDS  R27,_koniec_rzedu_10+1
002641 9711      	SBIW R26,1
002642 f421      	BRNE _0x3DC
                 ; 0000 1AE9                         cykl_sterownik_4 = 5;
002643 e0e5      	LDI  R30,LOW(5)
002644 e0f0      	LDI  R31,HIGH(5)
002645 940e 3015 	CALL SUBOPT_0x9A
                 ; 0000 1AEA                                                               //to nowy war, ostatni dzien w borg
                 ; 0000 1AEB                     if(cykl_sterownik_4 < 5 & abs_ster4 == 0 & powrot_przedwczesny_druciak == 0)
                 _0x3DC:
002647 940e 312d 	CALL SUBOPT_0xC7
002649 940e 322e 	CALL SUBOPT_0xED
00264b 940e 2f9b 	CALL SUBOPT_0x8A
00264d 940e 3236 	CALL SUBOPT_0xEE
00264f 21e0      	AND  R30,R0
002650 f031      	BREQ _0x3DD
                 ; 0000 1AEC                          cykl_sterownik_4 = sterownik_4_praca(a[3]); //INV               //szczotka druc
002651 940e 2f0a 	CALL SUBOPT_0x75
002653 93fa      	ST   -Y,R31
002654 93ea      	ST   -Y,R30
002655 940e 306e 	CALL SUBOPT_0xA6
                 ; 0000 1AED 
                 ; 0000 1AEE                     if(cykl_sterownik_4 == 5 & szczotka_druc_cykl < szczotka_druciana_ilosc_cykli & powrot_przedwczesny_druciak == 0)
                 _0x3DD:
002657 940e 312d 	CALL SUBOPT_0xC7
002659 940e 316c 	CALL SUBOPT_0xD1
00265b 940e 3170 	CALL SUBOPT_0xD2
00265d 940e 3373 	CALL __LTW12
00265f 940e 3236 	CALL SUBOPT_0xEE
002661 21e0      	AND  R30,R0
002662 f0e1      	BREQ _0x3DE
                 ; 0000 1AEF                         {
                 ; 0000 1AF0                         if(koniec_rzedu_10 == 0)
002663 91e0 0559 	LDS  R30,_koniec_rzedu_10
002665 91f0 055a 	LDS  R31,_koniec_rzedu_10+1
002667 9730      	SBIW R30,0
002668 f411      	BRNE _0x3DF
                 ; 0000 1AF1                             cykl_sterownik_4 = 0;
002669 940e 315f 	CALL SUBOPT_0xCF
                 ; 0000 1AF2                         if(abs_ster4 == 0)
                 _0x3DF:
00266b 91e0 0557 	LDS  R30,_abs_ster4
00266d 91f0 0558 	LDS  R31,_abs_ster4+1
00266f 9730      	SBIW R30,0
002670 f449      	BRNE _0x3E0
                 ; 0000 1AF3                             {
                 ; 0000 1AF4                             szczotka_druc_cykl++;
002671 940e 3175 	CALL SUBOPT_0xD3
                 ; 0000 1AF5                             abs_ster4 = 1;
002673 e0e1      	LDI  R30,LOW(1)
002674 e0f0      	LDI  R31,HIGH(1)
002675 93e0 0557 	STS  _abs_ster4,R30
002677 93f0 0558 	STS  _abs_ster4+1,R31
                 ; 0000 1AF6                             }
                 ; 0000 1AF7                         else
002679 c005      	RJMP _0x3E1
                 _0x3E0:
                 ; 0000 1AF8                             abs_ster4 = 0;
00267a e0e0      	LDI  R30,LOW(0)
00267b 93e0 0557 	STS  _abs_ster4,R30
00267d 93e0 0558 	STS  _abs_ster4+1,R30
                 ; 0000 1AF9                         }
                 _0x3E1:
                 ; 0000 1AFA 
                 ; 0000 1AFB                     if(cykl_sterownik_3 < 5 & abs_ster3 == 0)
                 _0x3DE:
00267f 940e 31c5 	CALL SUBOPT_0xE0
002681 940e 323c 	CALL SUBOPT_0xEF
002683 940e 2f9b 	CALL SUBOPT_0x8A
002685 21e0      	AND  R30,R0
002686 f031      	BREQ _0x3E2
                 ; 0000 1AFC                          cykl_sterownik_3 = sterownik_3_praca(a[7]); //INV
                +
002687 91e0 0573+LDS R30 , _a + ( 14 )
002689 91f0 0574+LDS R31 , _a + ( 14 ) + 1
                 	__GETW1MN _a,14
00268b 940e 30ad 	CALL SUBOPT_0xAF
                 ; 0000 1AFD 
                 ; 0000 1AFE 
                 ; 0000 1AFF                     if(cykl_sterownik_3 == 5 & krazek_scierny_cykl < krazek_scierny_ilosc_cykli)
                 _0x3E2:
00268d 940e 31c5 	CALL SUBOPT_0xE0
00268f 940e 3361 	CALL __EQW12
002691 2e0e      	MOV  R0,R30
002692 940e 2c86 	CALL SUBOPT_0x1E
002694 940e 3244 	CALL SUBOPT_0xF0
002696 940e 3373 	CALL __LTW12
002698 21e0      	AND  R30,R0
002699 f0c9      	BREQ _0x3E3
                 ; 0000 1B00                         {
                 ; 0000 1B01 
                 ; 0000 1B02                          cykl_sterownik_3 = 0;
00269a e0e0      	LDI  R30,LOW(0)
00269b 940e 31b9 	CALL SUBOPT_0xDE
                 ; 0000 1B03                         if(abs_ster3 == 0)
00269d 91e0 0555 	LDS  R30,_abs_ster3
00269f 91f0 0556 	LDS  R31,_abs_ster3+1
0026a1 9730      	SBIW R30,0
0026a2 f459      	BRNE _0x3E4
                 ; 0000 1B04                             {
                 ; 0000 1B05                             krazek_scierny_cykl++;
0026a3 e4af      	LDI  R26,LOW(_krazek_scierny_cykl)
0026a4 e0b5      	LDI  R27,HIGH(_krazek_scierny_cykl)
0026a5 940e 3220 	CALL SUBOPT_0xEB
                 ; 0000 1B06                             abs_ster3 = 1;
0026a7 e0e1      	LDI  R30,LOW(1)
0026a8 e0f0      	LDI  R31,HIGH(1)
0026a9 93e0 0555 	STS  _abs_ster3,R30
0026ab 93f0 0556 	STS  _abs_ster3+1,R31
                 ; 0000 1B07                             }
                 ; 0000 1B08                         else
0026ad c005      	RJMP _0x3E5
                 _0x3E4:
                 ; 0000 1B09                             abs_ster3 = 0;
0026ae e0e0      	LDI  R30,LOW(0)
0026af 93e0 0555 	STS  _abs_ster3,R30
0026b1 93e0 0556 	STS  _abs_ster3+1,R30
                 ; 0000 1B0A                         }
                 _0x3E5:
                 ; 0000 1B0B 
                 ; 0000 1B0C                     if(cykl_sterownik_3 < 5 & abs_ster3 == 1)
                 _0x3E3:
0026b3 940e 31c5 	CALL SUBOPT_0xE0
0026b5 940e 323c 	CALL SUBOPT_0xEF
0026b7 940e 2f23 	CALL SUBOPT_0x79
0026b9 21e0      	AND  R30,R0
0026ba f021      	BREQ _0x3E6
                 ; 0000 1B0D                         cykl_sterownik_3 = sterownik_3_praca(a[4]);  //ABS          //krazek scierny do gory
0026bb 940e 2ef1 	CALL SUBOPT_0x72
0026bd 940e 30ad 	CALL SUBOPT_0xAF
                 ; 0000 1B0E 
                 ; 0000 1B0F                     if(cykl_sterownik_4 < 5 & abs_ster4 == 1 & powrot_przedwczesny_druciak == 0)
                 _0x3E6:
0026bf 940e 312d 	CALL SUBOPT_0xC7
0026c1 940e 322e 	CALL SUBOPT_0xED
0026c3 940e 2f23 	CALL SUBOPT_0x79
0026c5 940e 3236 	CALL SUBOPT_0xEE
0026c7 21e0      	AND  R30,R0
0026c8 f011      	BREQ _0x3E7
                 ; 0000 1B10                         cykl_sterownik_4 = sterownik_4_praca(a[2]);  //ABS          //druciak do gory
0026c9 940e 3158 	CALL SUBOPT_0xCE
                 ; 0000 1B11 
                 ; 0000 1B12                                                                                            //mini ruch powrotny do okregu, zeby nie szorowal
                 ; 0000 1B13                     if(cykl_sterownik_1 < 5 & wykonalem_komplet_okregow == 1)
                 _0x3E7:
0026cb 940e 31a1 	CALL SUBOPT_0xD9
0026cd 940e 3373 	CALL __LTW12
0026cf 2e0e      	MOV  R0,R30
0026d0 91a0 0553 	LDS  R26,_wykonalem_komplet_okregow
0026d2 91b0 0554 	LDS  R27,_wykonalem_komplet_okregow+1
0026d4 940e 2f23 	CALL SUBOPT_0x79
0026d6 21e0      	AND  R30,R0
0026d7 f031      	BREQ _0x3E8
                 ; 0000 1B14                          cykl_sterownik_1 = sterownik_1_praca(a[8]);
                +
0026d8 91e0 0575+LDS R30 , _a + ( 16 )
0026da 91f0 0576+LDS R31 , _a + ( 16 ) + 1
                 	__GETW1MN _a,16
0026dc 940e 3110 	CALL SUBOPT_0xC2
                 ; 0000 1B15 
                 ; 0000 1B16                    ///////////////////////////////////////////////
                 ; 0000 1B17 
                 ; 0000 1B18                   if(cykl_sterownik_4 == 5 & szczotka_druc_cykl == szczotka_druciana_ilosc_cykli & (wykonalem_komplet_okregow !=1 | krazek_scierny_cykl != krazek_scierny_ilosc_cykli))
                 _0x3E8:
0026de 940e 312d 	CALL SUBOPT_0xC7
0026e0 940e 316c 	CALL SUBOPT_0xD1
0026e2 940e 3170 	CALL SUBOPT_0xD2
0026e4 940e 3361 	CALL __EQW12
0026e6 21e0      	AND  R30,R0
0026e7 2e1e      	MOV  R1,R30
0026e8 91a0 0553 	LDS  R26,_wykonalem_komplet_okregow
0026ea 91b0 0554 	LDS  R27,_wykonalem_komplet_okregow+1
0026ec e0e1      	LDI  R30,LOW(1)
0026ed e0f0      	LDI  R31,HIGH(1)
0026ee 940e 3367 	CALL __NEW12
0026f0 2e0e      	MOV  R0,R30
0026f1 940e 2c86 	CALL SUBOPT_0x1E
0026f3 940e 3244 	CALL SUBOPT_0xF0
0026f5 940e 3367 	CALL __NEW12
0026f7 29e0      	OR   R30,R0
0026f8 21e1      	AND  R30,R1
0026f9 f041      	BREQ _0x3E9
                 ; 0000 1B19                        {
                 ; 0000 1B1A                        cykl_sterownik_4 = 0;
0026fa 940e 315f 	CALL SUBOPT_0xCF
                 ; 0000 1B1B                        powrot_przedwczesny_druciak = 1;
0026fc e0e1      	LDI  R30,LOW(1)
0026fd e0f0      	LDI  R31,HIGH(1)
0026fe 93e0 058d 	STS  _powrot_przedwczesny_druciak,R30
002700 93f0 058e 	STS  _powrot_przedwczesny_druciak+1,R31
                 ; 0000 1B1C                        }
                 ; 0000 1B1D                   if(powrot_przedwczesny_druciak == 1 & cykl_sterownik_4 < 5)
                 _0x3E9:
002702 940e 3249 	CALL SUBOPT_0xF1
002704 2e0e      	MOV  R0,R30
002705 940e 312d 	CALL SUBOPT_0xC7
002707 940e 3373 	CALL __LTW12
002709 21e0      	AND  R30,R0
00270a f021      	BREQ _0x3EA
                 ; 0000 1B1E                        cykl_sterownik_4 = sterownik_4_praca(0x01);  //do pozycji bazowej
00270b 940e 305c 	CALL SUBOPT_0xA2
00270d 940e 306e 	CALL SUBOPT_0xA6
                 ; 0000 1B1F 
                 ; 0000 1B20                   if(cykl_sterownik_4 == 5 & powrot_przedwczesny_druciak == 1)
                 _0x3EA:
00270f 940e 312d 	CALL SUBOPT_0xC7
002711 940e 3361 	CALL __EQW12
002713 2e0e      	MOV  R0,R30
002714 940e 3249 	CALL SUBOPT_0xF1
002716 21e0      	AND  R30,R0
002717 f029      	BREQ _0x3EB
                 ; 0000 1B21                        powrot_przedwczesny_druciak = 0;
002718 e0e0      	LDI  R30,LOW(0)
002719 93e0 058d 	STS  _powrot_przedwczesny_druciak,R30
00271b 93e0 058e 	STS  _powrot_przedwczesny_druciak+1,R30
                 ; 0000 1B22                    //////////////////////////////////////////////
                 ; 0000 1B23 
                 ; 0000 1B24                     if(cykl_sterownik_1 == 5 & wykonalem_komplet_okregow == 1 &
                 _0x3EB:
                 ; 0000 1B25                        szczotka_druc_cykl == szczotka_druciana_ilosc_cykli &
                 ; 0000 1B26                        krazek_scierny_cykl == krazek_scierny_ilosc_cykli &
                 ; 0000 1B27                        cykl_sterownik_3 == 5 & cykl_sterownik_4 == 5 & powrot_przedwczesny_druciak == 0)
00271d 940e 31a1 	CALL SUBOPT_0xD9
00271f 940e 3226 	CALL SUBOPT_0xEC
002721 940e 2f23 	CALL SUBOPT_0x79
002723 220e      	AND  R0,R30
002724 940e 2c81 	CALL SUBOPT_0x1D
002726 940e 3170 	CALL SUBOPT_0xD2
002728 940e 3361 	CALL __EQW12
00272a 220e      	AND  R0,R30
00272b 940e 2c86 	CALL SUBOPT_0x1E
00272d 940e 3244 	CALL SUBOPT_0xF0
00272f 940e 3361 	CALL __EQW12
002731 220e      	AND  R0,R30
002732 940e 31c5 	CALL SUBOPT_0xE0
002734 940e 3361 	CALL __EQW12
002736 220e      	AND  R0,R30
002737 940e 312d 	CALL SUBOPT_0xC7
002739 940e 3361 	CALL __EQW12
00273b 940e 3236 	CALL SUBOPT_0xEE
00273d 21e0      	AND  R30,R0
00273e f169      	BREQ _0x3EC
                 ; 0000 1B28                         {
                 ; 0000 1B29                         powrot_przedwczesny_druciak = 0;
00273f e0e0      	LDI  R30,LOW(0)
002740 93e0 058d 	STS  _powrot_przedwczesny_druciak,R30
002742 93e0 058e 	STS  _powrot_przedwczesny_druciak+1,R30
                 ; 0000 1B2A                         cykl_sterownik_1 = 0;
002744 940e 304a 	CALL SUBOPT_0xA1
                 ; 0000 1B2B                         cykl_sterownik_2 = 0;
                 ; 0000 1B2C                         cykl_sterownik_3 = 0;
                 ; 0000 1B2D                         cykl_sterownik_4 = 0;
                 ; 0000 1B2E                         szczotka_druc_cykl = 0;
002746 e0e0      	LDI  R30,LOW(0)
002747 940e 314c 	CALL SUBOPT_0xCC
                 ; 0000 1B2F                         krazek_scierny_cykl = 0;
002749 e0e0      	LDI  R30,LOW(0)
00274a 93e0 054f 	STS  _krazek_scierny_cykl,R30
00274c 93e0 0550 	STS  _krazek_scierny_cykl+1,R30
                 ; 0000 1B30                         krazek_scierny_cykl_po_okregu = 0;
00274e 93e0 054d 	STS  _krazek_scierny_cykl_po_okregu,R30
002750 93e0 054e 	STS  _krazek_scierny_cykl_po_okregu+1,R30
                 ; 0000 1B31                         PORT_F.bits.b4 = 0;  //przedmuch zaciskow wylacz
002752 940e 3210 	CALL SUBOPT_0xE9
                 ; 0000 1B32                         PORTF = PORT_F.byte;
                 ; 0000 1B33 
                 ; 0000 1B34 
                 ; 0000 1B35                         if(rzad_obrabiany == 1)
002754 940e 3106 	CALL SUBOPT_0xC0
002756 9711      	SBIW R26,1
002757 f441      	BRNE _0x3ED
                 ; 0000 1B36                              {
                 ; 0000 1B37                              while(sprawdz_pin0(PORTMM,0x77) == 1)
                 _0x3EE:
002758 940e 2ca3 	CALL SUBOPT_0x23
00275a 940e 040d 	CALL _sprawdz_pin0
00275c 30e1      	CPI  R30,LOW(0x1)
00275d f3d1      	BREQ _0x3EE
                 ; 0000 1B38                                 {
                 ; 0000 1B39                                 }
                 ; 0000 1B3A                              cykl_glowny = 9;
00275e 940e 324e 	CALL SUBOPT_0xF2
                 ; 0000 1B3B                              }
                 ; 0000 1B3C 
                 ; 0000 1B3D                         if(rzad_obrabiany == 2)
                 _0x3ED:
002760 940e 3106 	CALL SUBOPT_0xC0
002762 9712      	SBIW R26,2
002763 f441      	BRNE _0x3F1
                 ; 0000 1B3E                              {
                 ; 0000 1B3F                              while(sprawdz_pin1(PORTMM,0x77) == 1)
                 _0x3F2:
002764 940e 2ca3 	CALL SUBOPT_0x23
002766 940e 0410 	CALL _sprawdz_pin1
002768 30e1      	CPI  R30,LOW(0x1)
002769 f3d1      	BREQ _0x3F2
                 ; 0000 1B40                                 {
                 ; 0000 1B41                                 }
                 ; 0000 1B42                              cykl_glowny = 9;
00276a 940e 324e 	CALL SUBOPT_0xF2
                 ; 0000 1B43                              }
                 ; 0000 1B44 
                 ; 0000 1B45 
                 ; 0000 1B46                         }
                 _0x3F1:
                 ; 0000 1B47 
                 ; 0000 1B48                                                                                                 //ster 1 - ruch po okregu
                 ; 0000 1B49                                                                                                 //ster 2 - nic
                 ; 0000 1B4A                                                                                                 //ster 3 - krazek - gora dol
                 ; 0000 1B4B                                                                                                 //ster 4 - druciak - gora dol
                 ; 0000 1B4C 
                 ; 0000 1B4D             break;
                 _0x3EC:
00276c c2c3      	RJMP _0x341
                 ; 0000 1B4E 
                 ; 0000 1B4F 
                 ; 0000 1B50             case 9:                                          //cykl 3 == 5
                 _0x3D6:
00276d 30e9      	CPI  R30,LOW(0x9)
00276e e0a0      	LDI  R26,HIGH(0x9)
00276f 07fa      	CPC  R31,R26
002770 f011      	BREQ PC+3
002771 940c 280b 	JMP _0x3F5
                 ; 0000 1B51 
                 ; 0000 1B52 
                 ; 0000 1B53                          if(rzad_obrabiany == 1)
002773 940e 3106 	CALL SUBOPT_0xC0
002775 9711      	SBIW R26,1
002776 f571      	BRNE _0x3F6
                 ; 0000 1B54                          {
                 ; 0000 1B55                          if(cykl_sterownik_3 < 5 & cykl_ilosc_zaciskow != il_zaciskow_rzad_1 - 1)
002777 940e 31c5 	CALL SUBOPT_0xE0
002779 940e 3373 	CALL __LTW12
00277b 2e0e      	MOV  R0,R30
00277c 940e 31c9 	CALL SUBOPT_0xE1
00277e 21e0      	AND  R30,R0
00277f f021      	BREQ _0x3F7
                 ; 0000 1B56                               cykl_sterownik_3 = sterownik_3_praca(0x01);  //do pozycji bazowej
002780 940e 305c 	CALL SUBOPT_0xA2
002782 940e 3066 	CALL SUBOPT_0xA4
                 ; 0000 1B57 
                 ; 0000 1B58 
                 ; 0000 1B59                           if(cykl_sterownik_4 < 5 & cykl_ilosc_zaciskow < il_zaciskow_rzad_1 - 2)
                 _0x3F7:
002784 940e 312d 	CALL SUBOPT_0xC7
002786 940e 3255 	CALL SUBOPT_0xF3
002788 940e 325d 	CALL SUBOPT_0xF4
00278a f021      	BREQ _0x3F8
                 ; 0000 1B5A                             cykl_sterownik_4 = sterownik_4_praca(0x01);  //do pozycji bazowej
00278b 940e 305c 	CALL SUBOPT_0xA2
00278d 940e 306e 	CALL SUBOPT_0xA6
                 ; 0000 1B5B 
                 ; 0000 1B5C 
                 ; 0000 1B5D                          if(cykl_sterownik_3 < 5 & cykl_ilosc_zaciskow == il_zaciskow_rzad_1 - 1)       //2 marca 2019 wykomentowuje
                 _0x3F8:
00278f 940e 31c5 	CALL SUBOPT_0xE0
002791 940e 3255 	CALL SUBOPT_0xF3
002793 940e 3263 	CALL SUBOPT_0xF5
002795 f021      	BREQ _0x3F9
                 ; 0000 1B5E                             cykl_sterownik_3 = sterownik_3_praca(0x00);  //na sam dol, jedziemy miedzy rzedami
002796 940e 2cad 	CALL SUBOPT_0x24
002798 940e 3066 	CALL SUBOPT_0xA4
                 ; 0000 1B5F 
                 ; 0000 1B60 
                 ; 0000 1B61                          if(cykl_sterownik_4 < 5 & cykl_ilosc_zaciskow >= il_zaciskow_rzad_1 - 2)
                 _0x3F9:
00279a 940e 312d 	CALL SUBOPT_0xC7
00279c 940e 3255 	CALL SUBOPT_0xF3
00279e 940e 3269 	CALL SUBOPT_0xF6
0027a0 f021      	BREQ _0x3FA
                 ; 0000 1B62                             cykl_sterownik_4 = sterownik_4_praca(0x00);  //na sam dol, jedziemy miedzy rzedami
0027a1 940e 2cad 	CALL SUBOPT_0x24
0027a3 940e 306e 	CALL SUBOPT_0xA6
                 ; 0000 1B63 
                 ; 0000 1B64                           }
                 _0x3FA:
                 ; 0000 1B65 
                 ; 0000 1B66 
                 ; 0000 1B67                          if(rzad_obrabiany == 2)
                 _0x3F6:
0027a5 940e 3106 	CALL SUBOPT_0xC0
0027a7 9712      	SBIW R26,2
0027a8 f5a1      	BRNE _0x3FB
                 ; 0000 1B68                          {
                 ; 0000 1B69                          if(cykl_sterownik_3 < 5 & cykl_ilosc_zaciskow != il_zaciskow_rzad_2 - 1)
0027a9 940e 31c5 	CALL SUBOPT_0xE0
0027ab 940e 3373 	CALL __LTW12
0027ad 2e0e      	MOV  R0,R30
0027ae 940e 31d5 	CALL SUBOPT_0xE2
0027b0 21e0      	AND  R30,R0
0027b1 f021      	BREQ _0x3FC
                 ; 0000 1B6A                             cykl_sterownik_3 = sterownik_3_praca(0x01);  //do pozycji bazowej
0027b2 940e 305c 	CALL SUBOPT_0xA2
0027b4 940e 3066 	CALL SUBOPT_0xA4
                 ; 0000 1B6B 
                 ; 0000 1B6C                           if(cykl_sterownik_4 < 5 & cykl_ilosc_zaciskow < il_zaciskow_rzad_2 - 2)
                 _0x3FC:
0027b6 940e 312d 	CALL SUBOPT_0xC7
0027b8 940e 326f 	CALL SUBOPT_0xF7
0027ba 940e 325d 	CALL SUBOPT_0xF4
0027bc f021      	BREQ _0x3FD
                 ; 0000 1B6D                             cykl_sterownik_4 = sterownik_4_praca(0x01);  //do pozycji bazowej
0027bd 940e 305c 	CALL SUBOPT_0xA2
0027bf 940e 306e 	CALL SUBOPT_0xA6
                 ; 0000 1B6E 
                 ; 0000 1B6F                          if(cykl_sterownik_3 < 5 & cykl_ilosc_zaciskow == il_zaciskow_rzad_2 - 1)
                 _0x3FD:
0027c1 940e 31c5 	CALL SUBOPT_0xE0
0027c3 940e 326f 	CALL SUBOPT_0xF7
0027c5 940e 3263 	CALL SUBOPT_0xF5
0027c7 f021      	BREQ _0x3FE
                 ; 0000 1B70                             cykl_sterownik_3 = sterownik_3_praca(0x00);  //na sam dol, jedziemy miedzy rzedami
0027c8 940e 2cad 	CALL SUBOPT_0x24
0027ca 940e 3066 	CALL SUBOPT_0xA4
                 ; 0000 1B71 
                 ; 0000 1B72 
                 ; 0000 1B73                           if(cykl_sterownik_4 < 5 & cykl_ilosc_zaciskow >= il_zaciskow_rzad_2 - 2)
                 _0x3FE:
0027cc 940e 312d 	CALL SUBOPT_0xC7
0027ce 940e 326f 	CALL SUBOPT_0xF7
0027d0 940e 3269 	CALL SUBOPT_0xF6
0027d2 f021      	BREQ _0x3FF
                 ; 0000 1B74                             cykl_sterownik_4 = sterownik_4_praca(0x00);  //na sam dol, jedziemy miedzy rzedami
0027d3 940e 2cad 	CALL SUBOPT_0x24
0027d5 940e 306e 	CALL SUBOPT_0xA6
                 ; 0000 1B75 
                 ; 0000 1B76                            if(rzad_obrabiany == 2)
                 _0x3FF:
0027d7 940e 3106 	CALL SUBOPT_0xC0
0027d9 9712      	SBIW R26,2
0027da f411      	BRNE _0x400
                 ; 0000 1B77                             ostateczny_wybor_zacisku();
0027db 940e 1b19 	CALL _ostateczny_wybor_zacisku
                 ; 0000 1B78 
                 ; 0000 1B79                           }
                 _0x400:
                 ; 0000 1B7A 
                 ; 0000 1B7B 
                 ; 0000 1B7C                           if(cykl_sterownik_3 == 5 & cykl_sterownik_4 == 5)
                 _0x3FB:
0027dd 940e 3071 	CALL SUBOPT_0xA7
0027df f151      	BREQ _0x401
                 ; 0000 1B7D                             {
                 ; 0000 1B7E                             PORTE.2 = 0;  //wylacz szlifierke
0027e0 981a      	CBI  0x3,2
                 ; 0000 1B7F                             PORTE.3 = 0;  //szlifierka 2 (krazek scierny)
0027e1 981b      	CBI  0x3,3
                 ; 0000 1B80                             PORTB.4 = 0;  //wylacz przedmuchy
0027e2 98c4      	CBI  0x18,4
                 ; 0000 1B81                             cykl_sterownik_4 = 0;
0027e3 940e 315f 	CALL SUBOPT_0xCF
                 ; 0000 1B82                             cykl_sterownik_3 = 0;
0027e5 e0e0      	LDI  R30,LOW(0)
0027e6 940e 31b9 	CALL SUBOPT_0xDE
                 ; 0000 1B83                             cykl_ilosc_zaciskow++;
0027e8 e5a1      	LDI  R26,LOW(_cykl_ilosc_zaciskow)
0027e9 e0b5      	LDI  R27,HIGH(_cykl_ilosc_zaciskow)
0027ea 940e 3220 	CALL SUBOPT_0xEB
                 ; 0000 1B84                             ruch_zlozony = 2;                       //il_zaciskow_rzad_1
0027ec e0e2      	LDI  R30,LOW(2)
0027ed e0f0      	LDI  R31,HIGH(2)
0027ee 93e0 054b 	STS  _ruch_zlozony,R30
0027f0 93f0 054c 	STS  _ruch_zlozony+1,R31
                 ; 0000 1B85 
                 ; 0000 1B86 
                 ; 0000 1B87                             if(rzad_obrabiany == 1)
0027f2 940e 3106 	CALL SUBOPT_0xC0
0027f4 9711      	SBIW R26,1
0027f5 f441      	BRNE _0x408
                 ; 0000 1B88                              {
                 ; 0000 1B89                              while(sprawdz_pin0(PORTMM,0x77) == 1)
                 _0x409:
0027f6 940e 2ca3 	CALL SUBOPT_0x23
0027f8 940e 040d 	CALL _sprawdz_pin0
0027fa 30e1      	CPI  R30,LOW(0x1)
0027fb f3d1      	BREQ _0x409
                 ; 0000 1B8A                                 {
                 ; 0000 1B8B                                 }
                 ; 0000 1B8C                              cykl_glowny = 10;
0027fc 940e 3273 	CALL SUBOPT_0xF8
                 ; 0000 1B8D                              }
                 ; 0000 1B8E 
                 ; 0000 1B8F                         if(rzad_obrabiany == 2)
                 _0x408:
0027fe 940e 3106 	CALL SUBOPT_0xC0
002800 9712      	SBIW R26,2
002801 f441      	BRNE _0x40C
                 ; 0000 1B90                              {
                 ; 0000 1B91                              while(sprawdz_pin1(PORTMM,0x77) == 1)
                 _0x40D:
002802 940e 2ca3 	CALL SUBOPT_0x23
002804 940e 0410 	CALL _sprawdz_pin1
002806 30e1      	CPI  R30,LOW(0x1)
002807 f3d1      	BREQ _0x40D
                 ; 0000 1B92                                 {
                 ; 0000 1B93                                 }
                 ; 0000 1B94                              cykl_glowny = 10;
002808 940e 3273 	CALL SUBOPT_0xF8
                 ; 0000 1B95                              }
                 ; 0000 1B96 
                 ; 0000 1B97 
                 ; 0000 1B98                             }
                 _0x40C:
                 ; 0000 1B99 
                 ; 0000 1B9A 
                 ; 0000 1B9B             break;
                 _0x401:
00280a c225      	RJMP _0x341
                 ; 0000 1B9C 
                 ; 0000 1B9D 
                 ; 0000 1B9E 
                 ; 0000 1B9F             case 10:
                 _0x3F5:
00280b 30ea      	CPI  R30,LOW(0xA)
00280c e0a0      	LDI  R26,HIGH(0xA)
00280d 07fa      	CPC  R31,R26
00280e f011      	BREQ PC+3
00280f 940c 2888 	JMP _0x410
                 ; 0000 1BA0 
                 ; 0000 1BA1                                                //wywali ten warunek jak zadziala
                 ; 0000 1BA2                      if(rzad_obrabiany == 1 & cykl_glowny != 0)
002811 940e 3106 	CALL SUBOPT_0xC0
002813 940e 2f23 	CALL SUBOPT_0x79
002815 940e 327a 	CALL SUBOPT_0xF9
002817 f169      	BREQ _0x411
                 ; 0000 1BA3                             {
                 ; 0000 1BA4                             wartosc_parametru_panelu(cykl_ilosc_zaciskow,0,16);  //wykonano zaciskow rzad1
002818 940e 3285 	CALL SUBOPT_0xFA
00281a 940e 2ce3 	CALL SUBOPT_0x2C
00281c 940e 04c5 	CALL _wartosc_parametru_panelu
                 ; 0000 1BA5                             if(cykl_ilosc_zaciskow <  il_zaciskow_rzad_1 - 1)
00281e 940e 328a 	CALL SUBOPT_0xFB
002820 17ae      	CP   R26,R30
002821 07bf      	CPC  R27,R31
002822 f424      	BRGE _0x412
                 ; 0000 1BA6                                 {
                 ; 0000 1BA7                                 cykl_glowny = 5;
002823 940e 3290 	CALL SUBOPT_0xFC
                 ; 0000 1BA8                                 koniec_rzedu_10 = 0;
002825 940e 3113 	CALL SUBOPT_0xC3
                 ; 0000 1BA9                                 }
                 ; 0000 1BAA 
                 ; 0000 1BAB                             if(cykl_ilosc_zaciskow == il_zaciskow_rzad_1 - 1)
                 _0x412:
002827 940e 328a 	CALL SUBOPT_0xFB
002829 17ea      	CP   R30,R26
00282a 07fb      	CPC  R31,R27
00282b f421      	BRNE _0x413
                 ; 0000 1BAC                                 {
                 ; 0000 1BAD                                 cykl_glowny = 5;
00282c 940e 3290 	CALL SUBOPT_0xFC
                 ; 0000 1BAE                                 koniec_rzedu_10 = 1;
00282e 940e 3297 	CALL SUBOPT_0xFD
                 ; 0000 1BAF                                 }
                 ; 0000 1BB0 
                 ; 0000 1BB1                             if(cykl_ilosc_zaciskow == il_zaciskow_rzad_1 & il_zaciskow_rzad_1 == 10)
                 _0x413:
002830 940e 329e 	CALL SUBOPT_0xFE
002832 940e 2f28 	CALL SUBOPT_0x7A
002834 f021      	BREQ _0x414
                 ; 0000 1BB2                                 {
                 ; 0000 1BB3                                 cykl_glowny = 11;
002835 e0eb      	LDI  R30,LOW(11)
002836 e0f0      	LDI  R31,HIGH(11)
002837 940e 32a7 	CALL SUBOPT_0xFF
                 ; 0000 1BB4                                 }
                 ; 0000 1BB5 
                 ; 0000 1BB6                              if(cykl_ilosc_zaciskow == il_zaciskow_rzad_1 & il_zaciskow_rzad_1 != 10)  /////zmieniam + 1 20.02
                 _0x414:
002839 940e 329e 	CALL SUBOPT_0xFE
00283b e0ea      	LDI  R30,LOW(10)
00283c e0f0      	LDI  R31,HIGH(10)
00283d 940e 3367 	CALL __NEW12
00283f 21e0      	AND  R30,R0
002840 f021      	BREQ _0x415
                 ; 0000 1BB7                                 {
                 ; 0000 1BB8                                 cykl_glowny = 14;
002841 e0ee      	LDI  R30,LOW(14)
002842 e0f0      	LDI  R31,HIGH(14)
002843 940e 32a7 	CALL SUBOPT_0xFF
                 ; 0000 1BB9                                 }
                 ; 0000 1BBA                             }
                 _0x415:
                 ; 0000 1BBB 
                 ; 0000 1BBC 
                 ; 0000 1BBD                              if(rzad_obrabiany == 2)
                 _0x411:
002845 940e 3106 	CALL SUBOPT_0xC0
002847 9712      	SBIW R26,2
002848 f411      	BRNE _0x416
                 ; 0000 1BBE                                 ostateczny_wybor_zacisku();
002849 940e 1b19 	CALL _ostateczny_wybor_zacisku
                 ; 0000 1BBF 
                 ; 0000 1BC0                             if(rzad_obrabiany == 2 & cykl_glowny != 0)
                 _0x416:
00284b 940e 3106 	CALL SUBOPT_0xC0
00284d e0e2      	LDI  R30,LOW(2)
00284e e0f0      	LDI  R31,HIGH(2)
00284f 940e 3361 	CALL __EQW12
002851 940e 327a 	CALL SUBOPT_0xF9
002853 f199      	BREQ _0x417
                 ; 0000 1BC1                             {
                 ; 0000 1BC2                             wartosc_parametru_panelu(cykl_ilosc_zaciskow,0,96);  //wykonano zaciskow rzad1
002854 940e 3285 	CALL SUBOPT_0xFA
002856 940e 2cf2 	CALL SUBOPT_0x2F
002858 940e 04c5 	CALL _wartosc_parametru_panelu
                 ; 0000 1BC3                             if(cykl_ilosc_zaciskow <  il_zaciskow_rzad_2 - 1)
00285a 940e 3101 	CALL SUBOPT_0xBF
00285c 9731      	SBIW R30,1
00285d 940e 31de 	CALL SUBOPT_0xE3
00285f 17ae      	CP   R26,R30
002860 07bf      	CPC  R27,R31
002861 f424      	BRGE _0x418
                 ; 0000 1BC4                                 {
                 ; 0000 1BC5                                 cykl_glowny = 5;
002862 940e 3290 	CALL SUBOPT_0xFC
                 ; 0000 1BC6                                 koniec_rzedu_10 = 0;
002864 940e 3113 	CALL SUBOPT_0xC3
                 ; 0000 1BC7                                 }
                 ; 0000 1BC8 
                 ; 0000 1BC9                             if(cykl_ilosc_zaciskow == il_zaciskow_rzad_2 - 1)
                 _0x418:
002866 940e 3101 	CALL SUBOPT_0xBF
002868 9731      	SBIW R30,1
002869 940e 31de 	CALL SUBOPT_0xE3
00286b 17ea      	CP   R30,R26
00286c 07fb      	CPC  R31,R27
00286d f421      	BRNE _0x419
                 ; 0000 1BCA                                 {
                 ; 0000 1BCB                                 cykl_glowny = 5;
00286e 940e 3290 	CALL SUBOPT_0xFC
                 ; 0000 1BCC                                 koniec_rzedu_10 = 1;
002870 940e 3297 	CALL SUBOPT_0xFD
                 ; 0000 1BCD                                 }
                 ; 0000 1BCE 
                 ; 0000 1BCF                             if(cykl_ilosc_zaciskow == il_zaciskow_rzad_2 & il_zaciskow_rzad_2 == 10)
                 _0x419:
002872 940e 32ac 	CALL SUBOPT_0x100
002874 940e 2f28 	CALL SUBOPT_0x7A
002876 f021      	BREQ _0x41A
                 ; 0000 1BD0                                 {
                 ; 0000 1BD1                                 cykl_glowny = 12;
002877 e0ec      	LDI  R30,LOW(12)
002878 e0f0      	LDI  R31,HIGH(12)
002879 940e 32a7 	CALL SUBOPT_0xFF
                 ; 0000 1BD2                                 }
                 ; 0000 1BD3 
                 ; 0000 1BD4 
                 ; 0000 1BD5                              if(cykl_ilosc_zaciskow == il_zaciskow_rzad_2 & il_zaciskow_rzad_2 != 10)   ///////////////////zmieniam + 1 20.02
                 _0x41A:
00287b 940e 32ac 	CALL SUBOPT_0x100
00287d e0ea      	LDI  R30,LOW(10)
00287e e0f0      	LDI  R31,HIGH(10)
00287f 940e 3367 	CALL __NEW12
002881 21e0      	AND  R30,R0
002882 f021      	BREQ _0x41B
                 ; 0000 1BD6                                 {
                 ; 0000 1BD7                                 cykl_glowny = 14;
002883 e0ee      	LDI  R30,LOW(14)
002884 e0f0      	LDI  R31,HIGH(14)
002885 940e 32a7 	CALL SUBOPT_0xFF
                 ; 0000 1BD8                                 }
                 ; 0000 1BD9                             }
                 _0x41B:
                 ; 0000 1BDA 
                 ; 0000 1BDB 
                 ; 0000 1BDC 
                 ; 0000 1BDD             break;
                 _0x417:
002887 c1a8      	RJMP _0x341
                 ; 0000 1BDE 
                 ; 0000 1BDF 
                 ; 0000 1BE0 
                 ; 0000 1BE1             case 11:
                 _0x410:
002888 30eb      	CPI  R30,LOW(0xB)
002889 e0a0      	LDI  R26,HIGH(0xB)
00288a 07fa      	CPC  R31,R26
00288b f5a9      	BRNE _0x41C
                 ; 0000 1BE2 
                 ; 0000 1BE3                               if(rzad_obrabiany == 2)
00288c 940e 3106 	CALL SUBOPT_0xC0
00288e 9712      	SBIW R26,2
00288f f411      	BRNE _0x41D
                 ; 0000 1BE4                                 ostateczny_wybor_zacisku();
002890 940e 1b19 	CALL _ostateczny_wybor_zacisku
                 ; 0000 1BE5 
                 ; 0000 1BE6                              //ster 1 ucieka od szafy
                 ; 0000 1BE7                              if(cykl_sterownik_1 < 5)
                 _0x41D:
002892 940e 3088 	CALL SUBOPT_0xA9
002894 9715      	SBIW R26,5
002895 f424      	BRGE _0x41E
                 ; 0000 1BE8                                     cykl_sterownik_1 = sterownik_1_praca(0x007);     //uciekamy do tylu
002896 e0e7      	LDI  R30,LOW(7)
002897 e0f0      	LDI  R31,HIGH(7)
002898 940e 3110 	CALL SUBOPT_0xC2
                 ; 0000 1BE9 
                 ; 0000 1BEA                              if(cykl_sterownik_2 < 5)
                 _0x41E:
00289a 940e 3090 	CALL SUBOPT_0xAB
00289c 9715      	SBIW R26,5
00289d f424      	BRGE _0x41F
                 ; 0000 1BEB                                     cykl_sterownik_2 = sterownik_2_praca(0x190);     //pod dolek ostatni 10 do przedmuchu rzad 1
00289e e9e0      	LDI  R30,LOW(400)
00289f e0f1      	LDI  R31,HIGH(400)
0028a0 940e 31b6 	CALL SUBOPT_0xDD
                 ; 0000 1BEC 
                 ; 0000 1BED                              if(cykl_sterownik_1 == 5 & cykl_sterownik_2 == 5)
                 _0x41F:
0028a2 940e 309c 	CALL SUBOPT_0xAD
0028a4 f0d9      	BREQ _0x420
                 ; 0000 1BEE                                     {
                 ; 0000 1BEF                                     PORT_F.bits.b4 = 1;  //przedmuch zaciskow
0028a5 940e 31ed 	CALL SUBOPT_0xE5
                 ; 0000 1BF0                                     PORTF = PORT_F.byte;
                 ; 0000 1BF1                                     cykl_sterownik_1 = 0;
0028a7 940e 313c 	CALL SUBOPT_0xCA
                 ; 0000 1BF2                                     cykl_sterownik_2 = 0;
0028a9 940e 32b2 	CALL SUBOPT_0x101
                 ; 0000 1BF3 
                 ; 0000 1BF4                                     if(rzad_obrabiany == 1)
0028ab f441      	BRNE _0x421
                 ; 0000 1BF5                                     {
                 ; 0000 1BF6                                         while(sprawdz_pin0(PORTMM,0x77) == 1)
                 _0x422:
0028ac 940e 2ca3 	CALL SUBOPT_0x23
0028ae 940e 040d 	CALL _sprawdz_pin0
0028b0 30e1      	CPI  R30,LOW(0x1)
0028b1 f3d1      	BREQ _0x422
                 ; 0000 1BF7                                             {
                 ; 0000 1BF8                                             }
                 ; 0000 1BF9                                     cykl_glowny = 13;
0028b2 940e 32ba 	CALL SUBOPT_0x102
                 ; 0000 1BFA                                     }
                 ; 0000 1BFB 
                 ; 0000 1BFC                                     if(rzad_obrabiany == 2)
                 _0x421:
0028b4 940e 3106 	CALL SUBOPT_0xC0
0028b6 9712      	SBIW R26,2
0028b7 f441      	BRNE _0x425
                 ; 0000 1BFD                                     {
                 ; 0000 1BFE                                     while(sprawdz_pin1(PORTMM,0x77) == 1)
                 _0x426:
0028b8 940e 2ca3 	CALL SUBOPT_0x23
0028ba 940e 0410 	CALL _sprawdz_pin1
0028bc 30e1      	CPI  R30,LOW(0x1)
0028bd f3d1      	BREQ _0x426
                 ; 0000 1BFF                                         {
                 ; 0000 1C00                                         }
                 ; 0000 1C01                                         cykl_glowny = 13;
0028be 940e 32ba 	CALL SUBOPT_0x102
                 ; 0000 1C02                                     }
                 ; 0000 1C03 
                 ; 0000 1C04 
                 ; 0000 1C05 
                 ; 0000 1C06 
                 ; 0000 1C07                                     }
                 _0x425:
                 ; 0000 1C08             break;
                 _0x420:
0028c0 c16f      	RJMP _0x341
                 ; 0000 1C09 
                 ; 0000 1C0A 
                 ; 0000 1C0B             case 12:
                 _0x41C:
0028c1 30ec      	CPI  R30,LOW(0xC)
0028c2 e0a0      	LDI  R26,HIGH(0xC)
0028c3 07fa      	CPC  R31,R26
0028c4 f5a9      	BRNE _0x429
                 ; 0000 1C0C 
                 ; 0000 1C0D                              if(rzad_obrabiany == 2)
0028c5 940e 3106 	CALL SUBOPT_0xC0
0028c7 9712      	SBIW R26,2
0028c8 f411      	BRNE _0x42A
                 ; 0000 1C0E                                 ostateczny_wybor_zacisku();
0028c9 940e 1b19 	CALL _ostateczny_wybor_zacisku
                 ; 0000 1C0F 
                 ; 0000 1C10                                //ster 1 ucieka od szafy
                 ; 0000 1C11                              if(cykl_sterownik_1 < 5)
                 _0x42A:
0028cb 940e 3088 	CALL SUBOPT_0xA9
0028cd 9715      	SBIW R26,5
0028ce f424      	BRGE _0x42B
                 ; 0000 1C12                                     cykl_sterownik_1 = sterownik_1_praca(0x007);     //uciekamy do tylu
0028cf e0e7      	LDI  R30,LOW(7)
0028d0 e0f0      	LDI  R31,HIGH(7)
0028d1 940e 3110 	CALL SUBOPT_0xC2
                 ; 0000 1C13 
                 ; 0000 1C14                             if(cykl_sterownik_2 < 5)
                 _0x42B:
0028d3 940e 3090 	CALL SUBOPT_0xAB
0028d5 9715      	SBIW R26,5
0028d6 f424      	BRGE _0x42C
                 ; 0000 1C15                                     cykl_sterownik_2 = sterownik_2_praca(0x191);     //pod dolek ostatni 10 do przedmuchu rzad 2
0028d7 e9e1      	LDI  R30,LOW(401)
0028d8 e0f1      	LDI  R31,HIGH(401)
0028d9 940e 31b6 	CALL SUBOPT_0xDD
                 ; 0000 1C16 
                 ; 0000 1C17                              if(cykl_sterownik_1 == 5 & cykl_sterownik_2 == 5)
                 _0x42C:
0028db 940e 309c 	CALL SUBOPT_0xAD
0028dd f0d9      	BREQ _0x42D
                 ; 0000 1C18                                     {
                 ; 0000 1C19                                     PORT_F.bits.b4 = 1;  //przedmuch zaciskow
0028de 940e 31ed 	CALL SUBOPT_0xE5
                 ; 0000 1C1A                                     PORTF = PORT_F.byte;
                 ; 0000 1C1B                                     cykl_sterownik_1 = 0;
0028e0 940e 313c 	CALL SUBOPT_0xCA
                 ; 0000 1C1C                                     cykl_sterownik_2 = 0;
0028e2 940e 32b2 	CALL SUBOPT_0x101
                 ; 0000 1C1D 
                 ; 0000 1C1E                                     if(rzad_obrabiany == 1)
0028e4 f441      	BRNE _0x42E
                 ; 0000 1C1F                                     {
                 ; 0000 1C20                                         while(sprawdz_pin0(PORTMM,0x77) == 1)
                 _0x42F:
0028e5 940e 2ca3 	CALL SUBOPT_0x23
0028e7 940e 040d 	CALL _sprawdz_pin0
0028e9 30e1      	CPI  R30,LOW(0x1)
0028ea f3d1      	BREQ _0x42F
                 ; 0000 1C21                                             {
                 ; 0000 1C22                                             }
                 ; 0000 1C23                                     cykl_glowny = 13;
0028eb 940e 32ba 	CALL SUBOPT_0x102
                 ; 0000 1C24                                     }
                 ; 0000 1C25 
                 ; 0000 1C26                                     if(rzad_obrabiany == 2)
                 _0x42E:
0028ed 940e 3106 	CALL SUBOPT_0xC0
0028ef 9712      	SBIW R26,2
0028f0 f441      	BRNE _0x432
                 ; 0000 1C27                                     {
                 ; 0000 1C28                                     while(sprawdz_pin1(PORTMM,0x77) == 1)
                 _0x433:
0028f1 940e 2ca3 	CALL SUBOPT_0x23
0028f3 940e 0410 	CALL _sprawdz_pin1
0028f5 30e1      	CPI  R30,LOW(0x1)
0028f6 f3d1      	BREQ _0x433
                 ; 0000 1C29                                         {
                 ; 0000 1C2A                                         }
                 ; 0000 1C2B                                         cykl_glowny = 13;
0028f7 940e 32ba 	CALL SUBOPT_0x102
                 ; 0000 1C2C                                     }
                 ; 0000 1C2D 
                 ; 0000 1C2E 
                 ; 0000 1C2F 
                 ; 0000 1C30                                     }
                 _0x432:
                 ; 0000 1C31 
                 ; 0000 1C32 
                 ; 0000 1C33             break;
                 _0x42D:
0028f9 c136      	RJMP _0x341
                 ; 0000 1C34 
                 ; 0000 1C35 
                 ; 0000 1C36 
                 ; 0000 1C37             case 13:
                 _0x429:
0028fa 30ed      	CPI  R30,LOW(0xD)
0028fb e0a0      	LDI  R26,HIGH(0xD)
0028fc 07fa      	CPC  R31,R26
0028fd f561      	BRNE _0x436
                 ; 0000 1C38 
                 ; 0000 1C39 
                 ; 0000 1C3A                               if(rzad_obrabiany == 2)
0028fe 940e 3106 	CALL SUBOPT_0xC0
002900 9712      	SBIW R26,2
002901 f411      	BRNE _0x437
                 ; 0000 1C3B                                 ostateczny_wybor_zacisku();
002902 940e 1b19 	CALL _ostateczny_wybor_zacisku
                 ; 0000 1C3C 
                 ; 0000 1C3D                              if(cykl_sterownik_2 < 5)
                 _0x437:
002904 940e 3090 	CALL SUBOPT_0xAB
002906 9715      	SBIW R26,5
002907 f424      	BRGE _0x438
                 ; 0000 1C3E                                     cykl_sterownik_2 = sterownik_2_praca(0x192);     //okrag
002908 e9e2      	LDI  R30,LOW(402)
002909 e0f1      	LDI  R31,HIGH(402)
00290a 940e 31b6 	CALL SUBOPT_0xDD
                 ; 0000 1C3F                              if(cykl_sterownik_2 == 5)
                 _0x438:
00290c 940e 3090 	CALL SUBOPT_0xAB
00290e 9715      	SBIW R26,5
00290f f4c9      	BRNE _0x439
                 ; 0000 1C40                                     {
                 ; 0000 1C41                                     PORT_F.bits.b4 = 0;  //przedmuch zaciskow - wylaczenie
002910 940e 3210 	CALL SUBOPT_0xE9
                 ; 0000 1C42                                     PORTF = PORT_F.byte;
                 ; 0000 1C43                                     cykl_sterownik_2 = 0;
002912 940e 32b2 	CALL SUBOPT_0x101
                 ; 0000 1C44 
                 ; 0000 1C45 
                 ; 0000 1C46                                     if(rzad_obrabiany == 1)
002914 f441      	BRNE _0x43A
                 ; 0000 1C47                                     {
                 ; 0000 1C48                                         while(sprawdz_pin0(PORTMM,0x77) == 1)
                 _0x43B:
002915 940e 2ca3 	CALL SUBOPT_0x23
002917 940e 040d 	CALL _sprawdz_pin0
002919 30e1      	CPI  R30,LOW(0x1)
00291a f3d1      	BREQ _0x43B
                 ; 0000 1C49                                             {
                 ; 0000 1C4A                                             }
                 ; 0000 1C4B                                     cykl_glowny = 16;
00291b 940e 32bd 	CALL SUBOPT_0x103
                 ; 0000 1C4C                                     }
                 ; 0000 1C4D 
                 ; 0000 1C4E                                     if(rzad_obrabiany == 2)
                 _0x43A:
00291d 940e 3106 	CALL SUBOPT_0xC0
00291f 9712      	SBIW R26,2
002920 f441      	BRNE _0x43E
                 ; 0000 1C4F                                     {
                 ; 0000 1C50                                     while(sprawdz_pin1(PORTMM,0x77) == 1)
                 _0x43F:
002921 940e 2ca3 	CALL SUBOPT_0x23
002923 940e 0410 	CALL _sprawdz_pin1
002925 30e1      	CPI  R30,LOW(0x1)
002926 f3d1      	BREQ _0x43F
                 ; 0000 1C51                                         {
                 ; 0000 1C52                                         }
                 ; 0000 1C53                                         cykl_glowny = 16;
002927 940e 32bd 	CALL SUBOPT_0x103
                 ; 0000 1C54                                     }
                 ; 0000 1C55 
                 ; 0000 1C56 
                 ; 0000 1C57 
                 ; 0000 1C58                                     }
                 _0x43E:
                 ; 0000 1C59 
                 ; 0000 1C5A             break;
                 _0x439:
002929 c106      	RJMP _0x341
                 ; 0000 1C5B 
                 ; 0000 1C5C 
                 ; 0000 1C5D 
                 ; 0000 1C5E             case 14:
                 _0x436:
00292a 30ee      	CPI  R30,LOW(0xE)
00292b e0a0      	LDI  R26,HIGH(0xE)
00292c 07fa      	CPC  R31,R26
00292d f599      	BRNE _0x442
                 ; 0000 1C5F 
                 ; 0000 1C60 
                 ; 0000 1C61                      if(rzad_obrabiany == 2)
00292e 940e 3106 	CALL SUBOPT_0xC0
002930 9712      	SBIW R26,2
002931 f411      	BRNE _0x443
                 ; 0000 1C62                         ostateczny_wybor_zacisku();
002932 940e 1b19 	CALL _ostateczny_wybor_zacisku
                 ; 0000 1C63 
                 ; 0000 1C64                     if(cykl_sterownik_1 < 5)
                 _0x443:
002934 940e 3088 	CALL SUBOPT_0xA9
002936 9715      	SBIW R26,5
002937 f424      	BRGE _0x444
                 ; 0000 1C65                         cykl_sterownik_1 = sterownik_1_praca(0x003);     //pod nastepny dolek zeby przedmuchac
002938 e0e3      	LDI  R30,LOW(3)
002939 e0f0      	LDI  R31,HIGH(3)
00293a 940e 3110 	CALL SUBOPT_0xC2
                 ; 0000 1C66                     if(cykl_sterownik_1 == 5)
                 _0x444:
00293c 940e 3088 	CALL SUBOPT_0xA9
00293e 9715      	SBIW R26,5
00293f f501      	BRNE _0x445
                 ; 0000 1C67                         {
                 ; 0000 1C68                         cykl_sterownik_1 = 0;
002940 940e 313c 	CALL SUBOPT_0xCA
                 ; 0000 1C69                         sek12 = 0;
002942 940e 31e3 	CALL SUBOPT_0xE4
                 ; 0000 1C6A 
                 ; 0000 1C6B                         if(rzad_obrabiany == 1)
002944 940e 3106 	CALL SUBOPT_0xC0
002946 9711      	SBIW R26,1
002947 f451      	BRNE _0x446
                 ; 0000 1C6C                                     {
                 ; 0000 1C6D                                         while(sprawdz_pin0(PORTMM,0x77) == 1)
                 _0x447:
002948 940e 2ca3 	CALL SUBOPT_0x23
00294a 940e 040d 	CALL _sprawdz_pin0
00294c 30e1      	CPI  R30,LOW(0x1)
00294d f3d1      	BREQ _0x447
                 ; 0000 1C6E                                             {
                 ; 0000 1C6F                                             }
                 ; 0000 1C70                                     cykl_glowny = 15;
00294e e0ef      	LDI  R30,LOW(15)
00294f e0f0      	LDI  R31,HIGH(15)
002950 940e 32a7 	CALL SUBOPT_0xFF
                 ; 0000 1C71                                     }
                 ; 0000 1C72 
                 ; 0000 1C73                                     if(rzad_obrabiany == 2)
                 _0x446:
002952 940e 3106 	CALL SUBOPT_0xC0
002954 9712      	SBIW R26,2
002955 f451      	BRNE _0x44A
                 ; 0000 1C74                                     {
                 ; 0000 1C75                                     while(sprawdz_pin1(PORTMM,0x77) == 1)
                 _0x44B:
002956 940e 2ca3 	CALL SUBOPT_0x23
002958 940e 0410 	CALL _sprawdz_pin1
00295a 30e1      	CPI  R30,LOW(0x1)
00295b f3d1      	BREQ _0x44B
                 ; 0000 1C76                                         {
                 ; 0000 1C77                                         }
                 ; 0000 1C78                                         cykl_glowny = 15;
00295c e0ef      	LDI  R30,LOW(15)
00295d e0f0      	LDI  R31,HIGH(15)
00295e 940e 32a7 	CALL SUBOPT_0xFF
                 ; 0000 1C79                                     }
                 ; 0000 1C7A 
                 ; 0000 1C7B 
                 ; 0000 1C7C 
                 ; 0000 1C7D 
                 ; 0000 1C7E 
                 ; 0000 1C7F                         }
                 _0x44A:
                 ; 0000 1C80 
                 ; 0000 1C81             break;
                 _0x445:
002960 c0cf      	RJMP _0x341
                 ; 0000 1C82 
                 ; 0000 1C83 
                 ; 0000 1C84 
                 ; 0000 1C85             case 15:
                 _0x442:
002961 30ef      	CPI  R30,LOW(0xF)
002962 e0a0      	LDI  R26,HIGH(0xF)
002963 07fa      	CPC  R31,R26
002964 f531      	BRNE _0x44E
                 ; 0000 1C86 
                 ; 0000 1C87                      if(rzad_obrabiany == 2)
002965 940e 3106 	CALL SUBOPT_0xC0
002967 9712      	SBIW R26,2
002968 f411      	BRNE _0x44F
                 ; 0000 1C88                         ostateczny_wybor_zacisku();
002969 940e 1b19 	CALL _ostateczny_wybor_zacisku
                 ; 0000 1C89 
                 ; 0000 1C8A                     //przedmuch
                 ; 0000 1C8B                     PORT_F.bits.b4 = 1;  //przedmuch zaciskow
                 _0x44F:
00296b 940e 31ed 	CALL SUBOPT_0xE5
                 ; 0000 1C8C                     PORTF = PORT_F.byte;
                 ; 0000 1C8D                     if(sek12 > czas_przedmuchu)
00296d 940e 31ff 	CALL SUBOPT_0xE8
00296f f4d4      	BRGE _0x450
                 ; 0000 1C8E                         {
                 ; 0000 1C8F                         PORT_F.bits.b4 = 0;  //przedmuch zaciskow
002970 940e 3210 	CALL SUBOPT_0xE9
                 ; 0000 1C90                         PORTF = PORT_F.byte;
                 ; 0000 1C91 
                 ; 0000 1C92                         if(rzad_obrabiany == 1)
002972 940e 3106 	CALL SUBOPT_0xC0
002974 9711      	SBIW R26,1
002975 f441      	BRNE _0x451
                 ; 0000 1C93                                     {
                 ; 0000 1C94                                         while(sprawdz_pin0(PORTMM,0x77) == 1)
                 _0x452:
002976 940e 2ca3 	CALL SUBOPT_0x23
002978 940e 040d 	CALL _sprawdz_pin0
00297a 30e1      	CPI  R30,LOW(0x1)
00297b f3d1      	BREQ _0x452
                 ; 0000 1C95                                             {
                 ; 0000 1C96                                             }
                 ; 0000 1C97                                     cykl_glowny = 16;
00297c 940e 32bd 	CALL SUBOPT_0x103
                 ; 0000 1C98                                     }
                 ; 0000 1C99 
                 ; 0000 1C9A                                     if(rzad_obrabiany == 2)
                 _0x451:
00297e 940e 3106 	CALL SUBOPT_0xC0
002980 9712      	SBIW R26,2
002981 f441      	BRNE _0x455
                 ; 0000 1C9B                                     {
                 ; 0000 1C9C                                     while(sprawdz_pin1(PORTMM,0x77) == 1)
                 _0x456:
002982 940e 2ca3 	CALL SUBOPT_0x23
002984 940e 0410 	CALL _sprawdz_pin1
002986 30e1      	CPI  R30,LOW(0x1)
002987 f3d1      	BREQ _0x456
                 ; 0000 1C9D                                         {
                 ; 0000 1C9E                                         }
                 ; 0000 1C9F                                         cykl_glowny = 16;
002988 940e 32bd 	CALL SUBOPT_0x103
                 ; 0000 1CA0                                     }
                 ; 0000 1CA1 
                 ; 0000 1CA2 
                 ; 0000 1CA3 
                 ; 0000 1CA4 
                 ; 0000 1CA5                         }
                 _0x455:
                 ; 0000 1CA6             break;
                 _0x450:
00298a c0a5      	RJMP _0x341
                 ; 0000 1CA7 
                 ; 0000 1CA8 
                 ; 0000 1CA9             case 16:
                 _0x44E:
00298b 31e0      	CPI  R30,LOW(0x10)
00298c e0a0      	LDI  R26,HIGH(0x10)
00298d 07fa      	CPC  R31,R26
00298e f011      	BREQ PC+3
00298f 940c 2a0c 	JMP _0x459
                 ; 0000 1CAA 
                 ; 0000 1CAB                      if(cykl_ilosc_zaciskow == il_zaciskow_rzad_1 & wykonalem_rzedow == 0)  /////zmieniam + 1 20.02
002991 91e0 0531 	LDS  R30,_il_zaciskow_rzad_1
002993 91f0 0532 	LDS  R31,_il_zaciskow_rzad_1+1
002995 940e 31de 	CALL SUBOPT_0xE3
002997 940e 3361 	CALL __EQW12
002999 2e0e      	MOV  R0,R30
00299a 940e 32c0 	CALL SUBOPT_0x104
00299c 940e 2f9b 	CALL SUBOPT_0x8A
00299e 21e0      	AND  R30,R0
00299f f111      	BREQ _0x45A
                 ; 0000 1CAC                                 {
                 ; 0000 1CAD                                 cykl_ilosc_zaciskow = 0;
0029a0 940e 30f5 	CALL SUBOPT_0xBD
                 ; 0000 1CAE                                 PORTE.7 = 0;   //pusc zaciski
0029a2 981f      	CBI  0x3,7
                 ; 0000 1CAF                                 if(il_zaciskow_rzad_2 > 0)
0029a3 940e 30b0 	CALL SUBOPT_0xB0
0029a5 940e 33c2 	CALL __CPW02
0029a7 f484      	BRGE _0x45D
                 ; 0000 1CB0                                     {
                 ; 0000 1CB1 
                 ; 0000 1CB2                                     rzad_obrabiany = 2;
0029a8 e0e2      	LDI  R30,LOW(2)
0029a9 e0f0      	LDI  R31,HIGH(2)
0029aa 93e0 055b 	STS  _rzad_obrabiany,R30
0029ac 93f0 055c 	STS  _rzad_obrabiany+1,R31
                 ; 0000 1CB3                                     wybor_linijek_sterownikow(2);  //rzad 2
0029ae 940e 30be 	CALL SUBOPT_0xB2
0029b0 940e 10ac 	CALL _wybor_linijek_sterownikow
                 ; 0000 1CB4                                     cykl_glowny = 0;
0029b2 e0e0      	LDI  R30,LOW(0)
0029b3 93e0 0549 	STS  _cykl_glowny,R30
0029b5 93e0 054a 	STS  _cykl_glowny+1,R30
                 ; 0000 1CB5                                     }
                 ; 0000 1CB6                                 else
0029b7 c004      	RJMP _0x45E
                 _0x45D:
                 ; 0000 1CB7                                     cykl_glowny = 17;
0029b8 e1e1      	LDI  R30,LOW(17)
0029b9 e0f0      	LDI  R31,HIGH(17)
0029ba 940e 32a7 	CALL SUBOPT_0xFF
                 ; 0000 1CB8 
                 ; 0000 1CB9                                 wykonalem_rzedow = 1;
                 _0x45E:
0029bc e0e1      	LDI  R30,LOW(1)
0029bd e0f0      	LDI  R31,HIGH(1)
0029be 93e0 055f 	STS  _wykonalem_rzedow,R30
0029c0 93f0 0560 	STS  _wykonalem_rzedow+1,R31
                 ; 0000 1CBA                                 }
                 ; 0000 1CBB 
                 ; 0000 1CBC                        if(cykl_ilosc_zaciskow == il_zaciskow_rzad_2 & il_zaciskow_rzad_2 > 0 & wykonalem_rzedow == 1)   ///////////////////zmieniam + 1 20.02
                 _0x45A:
0029c2 940e 32ac 	CALL SUBOPT_0x100
0029c4 940e 303a 	CALL SUBOPT_0x9F
0029c6 940e 32c0 	CALL SUBOPT_0x104
0029c8 940e 2f23 	CALL SUBOPT_0x79
0029ca 21e0      	AND  R30,R0
0029cb f079      	BREQ _0x45F
                 ; 0000 1CBD                                 {
                 ; 0000 1CBE                                 PORTE.7 = 0;   //pusc zaciski
0029cc 981f      	CBI  0x3,7
                 ; 0000 1CBF                                 cykl_ilosc_zaciskow = 0;
0029cd 940e 30f5 	CALL SUBOPT_0xBD
                 ; 0000 1CC0                                 cykl_glowny = 17;
0029cf e1e1      	LDI  R30,LOW(17)
0029d0 e0f0      	LDI  R31,HIGH(17)
0029d1 940e 32a7 	CALL SUBOPT_0xFF
                 ; 0000 1CC1                                 rzad_obrabiany = 1;
0029d3 940e 30e8 	CALL SUBOPT_0xBB
                 ; 0000 1CC2                                 wykonalem_rzedow = 2;
0029d5 e0e2      	LDI  R30,LOW(2)
0029d6 e0f0      	LDI  R31,HIGH(2)
0029d7 93e0 055f 	STS  _wykonalem_rzedow,R30
0029d9 93f0 0560 	STS  _wykonalem_rzedow+1,R31
                 ; 0000 1CC3                                 }
                 ; 0000 1CC4 
                 ; 0000 1CC5 
                 ; 0000 1CC6 
                 ; 0000 1CC7 
                 ; 0000 1CC8                         if(il_zaciskow_rzad_1 > 0 & il_zaciskow_rzad_2 > 0 & wykonalem_rzedow == 2)
                 _0x45F:
0029db 940e 3035 	CALL SUBOPT_0x9E
0029dd 940e 30fb 	CALL SUBOPT_0xBE
0029df 940e 30b0 	CALL SUBOPT_0xB0
0029e1 940e 303a 	CALL SUBOPT_0x9F
0029e3 940e 32c0 	CALL SUBOPT_0x104
0029e5 940e 3127 	CALL SUBOPT_0xC6
0029e7 f051      	BREQ _0x462
                 ; 0000 1CC9                                   {
                 ; 0000 1CCA                                   rzad_obrabiany = 1;
0029e8 940e 30e8 	CALL SUBOPT_0xBB
                 ; 0000 1CCB                                   wykonalem_rzedow = 0;
0029ea 940e 30ef 	CALL SUBOPT_0xBC
                 ; 0000 1CCC                                   PORTE.7 = 0;   //pusc zaciski
0029ec 981f      	CBI  0x3,7
                 ; 0000 1CCD                                   //PORTE.6 = 0;    //przelacz rzad zaciskow - rzad 1 - tego na razie nie poki nie ma oslon
                 ; 0000 1CCE                                   PORTB.6 = 0;   ////zielona lampka
0029ed 98c6      	CBI  0x18,6
                 ; 0000 1CCF                                   wartosc_parametru_panelu(0,0,64);
0029ee 940e 2f91 	CALL SUBOPT_0x88
0029f0 940e 2f2e 	CALL SUBOPT_0x7B
                 ; 0000 1CD0                                   }
                 ; 0000 1CD1 
                 ; 0000 1CD2                             if(il_zaciskow_rzad_1 > 0 & il_zaciskow_rzad_2 == 0 & wykonalem_rzedow == 1)
                 _0x462:
0029f2 940e 3035 	CALL SUBOPT_0x9E
0029f4 940e 30fb 	CALL SUBOPT_0xBE
0029f6 940e 30b0 	CALL SUBOPT_0xB0
0029f8 940e 2f9b 	CALL SUBOPT_0x8A
0029fa 220e      	AND  R0,R30
0029fb 940e 32c0 	CALL SUBOPT_0x104
0029fd 940e 2f23 	CALL SUBOPT_0x79
0029ff 21e0      	AND  R30,R0
002a00 f051      	BREQ _0x467
                 ; 0000 1CD3                                   {
                 ; 0000 1CD4                                   rzad_obrabiany = 1;
002a01 940e 30e8 	CALL SUBOPT_0xBB
                 ; 0000 1CD5                                   wykonalem_rzedow = 0;
002a03 940e 30ef 	CALL SUBOPT_0xBC
                 ; 0000 1CD6                                   PORTE.6 = 1;    //przelacz rzad zaciskow - rzad 2
002a05 9a1e      	SBI  0x3,6
                 ; 0000 1CD7                                   PORTB.6 = 0;   ////zielona lampka
002a06 98c6      	CBI  0x18,6
                 ; 0000 1CD8                                   wartosc_parametru_panelu(0,0,64);
002a07 940e 2f91 	CALL SUBOPT_0x88
002a09 940e 2f2e 	CALL SUBOPT_0x7B
                 ; 0000 1CD9                                   }
                 ; 0000 1CDA 
                 ; 0000 1CDB 
                 ; 0000 1CDC 
                 ; 0000 1CDD             break;
                 _0x467:
002a0b c024      	RJMP _0x341
                 ; 0000 1CDE 
                 ; 0000 1CDF 
                 ; 0000 1CE0             case 17:
                 _0x459:
002a0c 31e1      	CPI  R30,LOW(0x11)
002a0d e0a0      	LDI  R26,HIGH(0x11)
002a0e 07fa      	CPC  R31,R26
002a0f f501      	BRNE _0x341
                 ; 0000 1CE1 
                 ; 0000 1CE2 
                 ; 0000 1CE3                                  if(cykl_sterownik_1 < 5)
002a10 940e 3088 	CALL SUBOPT_0xA9
002a12 9715      	SBIW R26,5
002a13 f424      	BRGE _0x46D
                 ; 0000 1CE4                                     cykl_sterownik_1 = sterownik_1_praca(0x009);
002a14 940e 310b 	CALL SUBOPT_0xC1
002a16 940e 308d 	CALL SUBOPT_0xAA
                 ; 0000 1CE5                                  if(cykl_sterownik_2 < 5)                                //ster 1 do 0
                 _0x46D:
002a18 940e 3090 	CALL SUBOPT_0xAB
002a1a 9715      	SBIW R26,5
002a1b f424      	BRGE _0x46E
                 ; 0000 1CE6                                     cykl_sterownik_2 = sterownik_2_praca(0x000);       //ster 2 pod pin pozy rzad 1
002a1c 940e 2cad 	CALL SUBOPT_0x24
002a1e 940e 30da 	CALL SUBOPT_0xB8
                 ; 0000 1CE7 
                 ; 0000 1CE8                                     if(cykl_sterownik_1 == 5 & cykl_sterownik_2 == 5)
                 _0x46E:
002a20 940e 309c 	CALL SUBOPT_0xAD
002a22 f069      	BREQ _0x46F
                 ; 0000 1CE9                                         {
                 ; 0000 1CEA                                         cykl_sterownik_1 = 0;
002a23 940e 304a 	CALL SUBOPT_0xA1
                 ; 0000 1CEB                                         cykl_sterownik_2 = 0;
                 ; 0000 1CEC                                         cykl_sterownik_3 = 0;
                 ; 0000 1CED                                         cykl_sterownik_4 = 0;
                 ; 0000 1CEE                                         jestem_w_trakcie_czyszczenia_calosci = 0;
002a25 e0e0      	LDI  R30,LOW(0)
002a26 93e0 055d 	STS  _jestem_w_trakcie_czyszczenia_calosci,R30
002a28 93e0 055e 	STS  _jestem_w_trakcie_czyszczenia_calosci+1,R30
                 ; 0000 1CEF                                         start = 0;
002a2a 24cc      	CLR  R12
002a2b 24dd      	CLR  R13
                 ; 0000 1CF0                                         cykl_glowny = 0;
002a2c 93e0 0549 	STS  _cykl_glowny,R30
002a2e 93e0 054a 	STS  _cykl_glowny+1,R30
                 ; 0000 1CF1                                         }
                 ; 0000 1CF2 
                 ; 0000 1CF3 
                 ; 0000 1CF4 
                 ; 0000 1CF5 
                 ; 0000 1CF6             break;
                 _0x46F:
                 ; 0000 1CF7 
                 ; 0000 1CF8 
                 ; 0000 1CF9 
                 ; 0000 1CFA             }//switch
                 _0x341:
                 ; 0000 1CFB 
                 ; 0000 1CFC 
                 ; 0000 1CFD   }//while
002a30 c84f      	RJMP _0x33C
                 _0x33E:
                 ; 0000 1CFE }//while glowny
002a31 c842      	RJMP _0x339
                 ; 0000 1CFF 
                 ; 0000 1D00 }//koniec
                 _0x470:
002a32 cfff      	RJMP _0x470
                 ;
                 ;
                 ;
                 ;
                 ;/*
                 ;case 0:
                 ;
                 ;
                 ;                    PORTB.6 = 1;   ////zielona lampka
                 ;                    if(jestem_w_trakcie_czyszczenia_calosci == 0)
                 ;                        {
                 ;                        wartosc_parametru_panelu(0,0,16);  //wykonano zaciskow rzad1
                 ;                        wartosc_parametru_panelu(0,0,96);  //wykonano zaciskow rzad2
                 ;
                 ;                        il_zaciskow_rzad_1 = odczytaj_parametr(0,128);
                 ;                        il_zaciskow_rzad_2 = odczytaj_parametr(0,48);
                 ;
                 ;                        szczotka_druciana_ilosc_cykli = odczytaj_parametr(48,64);
                 ;                                                //2090
                 ;                        krazek_scierny_ilosc_cykli = odczytaj_parametr(32,144);
                 ;                                                    //3000
                 ;                        krazek_scierny_cykl_po_okregu_ilosc = odczytaj_parametr(48,0);
                 ;
                 ;                        predkosc_pion_szczotka = odczytaj_parametr(32,80);
                 ;                                                //2060
                 ;                        predkosc_pion_krazek = odczytaj_parametr(32,96);
                 ;
                 ;                        wejscie_krazka_sciernego_w_pow_boczna_cylindra = odczytaj_parametr(48,16);
                 ;
                 ;                        predkosc_ruchow_po_okregu_krazek_scierny = odczytaj_parametr(32,112);
                 ;
                 ;                        if(il_zaciskow_rzad_2 > 0 & macierz_zaciskow[2]!=0)
                 ;                              il_zaciskow_rzad_2 = il_zaciskow_rzad_2;
                 ;                        else
                 ;                              il_zaciskow_rzad_2 = 0;
                 ;
                 ;                        wybor_linijek_sterownikow(1);  //rzad 1
                 ;                        }
                 ;
                 ;                    jestem_w_trakcie_czyszczenia_calosci = 1;
                 ;
                 ;                    if(rzad_obrabiany == 1)
                 ;                    {
                 ;                    PORTE.6 = 0;    //przelacz rzad zaciskow - rzad 1
                 ;                    if(cykl_sterownik_1 < 5)
                 ;                        cykl_sterownik_1 = sterownik_1_praca(0x009);
                 ;                    if(cykl_sterownik_2 < 5)                                //ster 1 do 0
                 ;                        cykl_sterownik_2 = sterownik_2_praca(0x000);       //ster 2 pod pin pozy rzad 1
                 ;                    }
                 ;
                 ;                    if(rzad_obrabiany == 2)
                 ;                    {
                 ;                    ostateczny_wybor_zacisku();
                 ;                    //PORTE.6 = 1;    //przelacz rzad zaciskow - rzad 2 - na razie nie bo nie ma jeszcze oslon
                 ;
                 ;                    if(cykl_sterownik_1 < 5)
                 ;                        cykl_sterownik_1 = sterownik_1_praca(0x008);
                 ;                    if(cykl_sterownik_2 < 5)                                //ster 1 do 0
                 ;                        cykl_sterownik_2 = sterownik_2_praca(0x001);       //ster 2 pod pin pozy rzad 2
                 ;                    }
                 ;
                 ;
                 ;                    if(cykl_sterownik_1 == 5 & cykl_sterownik_2 == 5)
                 ;                        {
                 ;
                 ;                          if(rzad_obrabiany == 2)
                 ;                            {
                 ;                            while(PORTE.6 == 0)
                 ;                                przerzucanie_dociskow();
                 ;                            delay_ms(3000);  //czas na przerzucenie
                 ;                            }
                 ;
                 ;                        cykl_sterownik_1 = 0;
                 ;                        cykl_sterownik_2 = 0;
                 ;                        cykl_sterownik_3 = 0;
                 ;                        cykl_sterownik_4 = 0;
                 ;                        cykl_ilosc_zaciskow = 0;
                 ;                        koniec_rzedu_10 = 0;
                 ;
                 ;
                 ;                        if(rzad_obrabiany == 1)
                 ;                             {
                 ;                             while(sprawdz_pin0(PORTMM,0x77) == 1)
                 ;                                {
                 ;                                }
                 ;                             cykl_glowny = 1;
                 ;                             }
                 ;
                 ;                        if(rzad_obrabiany == 2)
                 ;                             {
                 ;                             while(sprawdz_pin1(PORTMM,0x77) == 1)
                 ;                                {
                 ;                                }
                 ;                             cykl_glowny = 1;
                 ;                             }
                 ;                        }
                 ;
                 ;            break;
                 ;
                 ;
                 ;
                 ;            case 1:
                 ;
                 ;
                 ;                     if(cykl_sterownik_2 < 5 & rzad_obrabiany == 1)
                 ;                          {          //ster 1 nic
                 ;                          PORTE.7 = 1;   //zacisnij zaciski
                 ;                          cykl_sterownik_2 = sterownik_2_praca(a[0]);        //ster 2 pod zacisk
                 ;                          }                                                    //ster 4 na pozycje miedzy rzedzami
                 ;
                 ;                     if(cykl_sterownik_2 < 5 & rzad_obrabiany == 2)
                 ;                        {
                 ;                          PORTE.7 = 1;   //zacisnij zaciski
                 ;                          ostateczny_wybor_zacisku();
                 ;                          cykl_sterownik_2 = sterownik_2_praca(a[1]);
                 ;                         }
                 ;                     if(cykl_sterownik_4 < 5 & cykl_sterownik_2 == 5)
                 ;                        cykl_sterownik_4 = sterownik_4_praca(0x01);
                 ;
                 ;                      if(cykl_sterownik_2 == 5 & cykl_sterownik_4 == 5)
                 ;                        {
                 ;                        cykl_sterownik_1 = 0;
                 ;                        cykl_sterownik_2 = 0;
                 ;                        cykl_sterownik_4 = 0;
                 ;                        szczotka_druc_cykl = 0;
                 ;
                 ;
                 ;                        if(rzad_obrabiany == 1)
                 ;                             {
                 ;                             while(sprawdz_pin0(PORTMM,0x77) == 1)
                 ;                                {
                 ;                                }
                 ;                             cykl_glowny = 2;
                 ;                             }
                 ;
                 ;                        if(rzad_obrabiany == 2)
                 ;                             {
                 ;                             while(sprawdz_pin1(PORTMM,0x77) == 1)
                 ;                                {
                 ;                                }
                 ;                             cykl_glowny = 2;
                 ;                             }
                 ;
                 ;                        }
                 ;
                 ;
                 ;            break;
                 ;
                 ;
                 ;            case 2:
                 ;                    if(rzad_obrabiany == 2)
                 ;                        ostateczny_wybor_zacisku();
                 ;
                 ;                    if(cykl_sterownik_4 < 5)
                 ;                          cykl_sterownik_4 = sterownik_4_praca(a[2]);
                 ;                    if(cykl_sterownik_4 == 5)
                 ;                        {
                 ;                        PORTE.2 = 1;  //wlacz szlifierke
                 ;                        PORTB.4 = 1;   //przedmuch osi
                 ;                        cykl_sterownik_4 = 0;
                 ;                        if(rzad_obrabiany == 1)
                 ;                             {
                 ;                             while(sprawdz_pin0(PORTMM,0x77) == 1)
                 ;                                {
                 ;                                }
                 ;                             cykl_glowny = 3;
                 ;                             }
                 ;
                 ;                        if(rzad_obrabiany == 2)
                 ;                             {
                 ;                             while(sprawdz_pin1(PORTMM,0x77) == 1)
                 ;                                {
                 ;                                }
                 ;                             cykl_glowny = 3;
                 ;                             }
                 ;                        }
                 ;
                 ;            break;
                 ;
                 ;
                 ;            case 3:
                 ;
                 ;                     if(rzad_obrabiany == 2)
                 ;                        ostateczny_wybor_zacisku();
                 ;
                 ;                    if(cykl_sterownik_4 < 5)
                 ;                         cykl_sterownik_4 = sterownik_4_praca(a[3]); //INV
                 ;
                 ;                    if(cykl_sterownik_4 == 5 & szczotka_druc_cykl < szczotka_druciana_ilosc_cykli)
                 ;                        {
                 ;                        szczotka_druc_cykl++;
                 ;                        cykl_sterownik_4 = 0;
                 ;
                 ;                        if(szczotka_druc_cykl == szczotka_druciana_ilosc_cykli)
                 ;                            {
                 ;                            if(rzad_obrabiany == 1)
                 ;                             {
                 ;                             while(sprawdz_pin0(PORTMM,0x77) == 1)
                 ;                                {
                 ;                                }
                 ;                             cykl_glowny = 4;
                 ;                             }
                 ;
                 ;                            if(rzad_obrabiany == 2)
                 ;                             {
                 ;                             while(sprawdz_pin1(PORTMM,0x77) == 1)
                 ;                                {
                 ;                                }
                 ;                             cykl_glowny = 4;
                 ;                             }
                 ;                            }
                 ;                        else
                 ;                            {
                 ;                            if(rzad_obrabiany == 1)
                 ;                             {
                 ;                             while(sprawdz_pin0(PORTMM,0x77) == 1)
                 ;                                {
                 ;                                }
                 ;                             cykl_glowny = 2;
                 ;                             }
                 ;
                 ;                        if(rzad_obrabiany == 2)
                 ;                             {
                 ;                             while(sprawdz_pin1(PORTMM,0x77) == 1)
                 ;                                {
                 ;                                }
                 ;                             cykl_glowny = 2;
                 ;                             }
                 ;
                 ;                            }
                 ;                        }
                 ;
                 ;
                 ;
                 ;            break;
                 ;
                 ;            case 4:
                 ;
                 ;
                 ;                      if(rzad_obrabiany == 2)
                 ;                            ostateczny_wybor_zacisku();
                 ;
                 ;                     if(cykl_sterownik_4 < 5)
                 ;                        cykl_sterownik_4 = sterownik_4_praca(0x01);
                 ;
                 ;                     if(cykl_sterownik_4 == 5)
                 ;                        {
                 ;                        PORTE.2 = 0;  //wylacz szlifierke
                 ;                        PORTB.4 = 0;  //wylacz przedmuch osi
                 ;                        cykl_sterownik_4 = 0;
                 ;                        if(rzad_obrabiany == 1)
                 ;                             {
                 ;                             while(sprawdz_pin0(PORTMM,0x77) == 1)
                 ;                                {
                 ;                                }
                 ;                             cykl_glowny = 5;
                 ;                             }
                 ;
                 ;                        if(rzad_obrabiany == 2)
                 ;                             {
                 ;                             while(sprawdz_pin1(PORTMM,0x77) == 1)
                 ;                                {
                 ;                                }
                 ;                             cykl_glowny = 5;
                 ;                             }
                 ;                        }
                 ;            break;
                 ;
                 ;            case 5:
                 ;
                 ;
                 ;                    if(cykl_sterownik_1 < 5 & ruch_zlozony == 0 & rzad_obrabiany == 1)
                 ;                        cykl_sterownik_1 = sterownik_1_praca(0x000);
                 ;                    if(cykl_sterownik_1 < 5 & ruch_zlozony == 0 & rzad_obrabiany == 2)
                 ;                        cykl_sterownik_1 = sterownik_1_praca(0x001);
                 ;
                 ;                     if(rzad_obrabiany == 2)
                 ;                        ostateczny_wybor_zacisku();
                 ;
                 ;                    if(cykl_sterownik_1 == 5 & ruch_zlozony == 0)
                 ;                        {
                 ;                        cykl_sterownik_1 = 0;
                 ;                        ruch_zlozony = 1;
                 ;                        }
                 ;
                 ;                    if(cykl_sterownik_1 < 5 & ruch_zlozony == 1 & rzad_obrabiany == 1)
                 ;                        cykl_sterownik_1 = sterownik_1_praca(a[0]);
                 ;                    if(cykl_sterownik_1 < 5 & ruch_zlozony == 1 & rzad_obrabiany == 2)
                 ;                          cykl_sterownik_1 = sterownik_1_praca(a[1]);
                 ;
                 ;
                 ;                    if(cykl_sterownik_1 < 5 & ruch_zlozony == 2)
                 ;                        cykl_sterownik_1 = sterownik_1_praca(0x003);    //ster 1 do pierwszego dolka
                 ;
                 ;                    if(cykl_sterownik_2 < 5 & koniec_rzedu_10 == 0)
                 ;                        cykl_sterownik_2 = sterownik_2_praca(0x003);       //ster 2 pod nastpeny dolek
                 ;
                 ;
                 ;                    if(cykl_sterownik_2 < 5 & koniec_rzedu_10 == 1 & rzad_obrabiany == 1)
                 ;                        cykl_sterownik_2 = sterownik_2_praca(0x008);      //ster 2 do samego tylu
                 ;                     if(cykl_sterownik_2 < 5 & koniec_rzedu_10 == 1 & rzad_obrabiany == 2)
                 ;                        cykl_sterownik_2 = sterownik_2_praca(0x009);      //ster 2 do samego tylu
                 ;
                 ;                    if((cykl_sterownik_1 == 5 & cykl_sterownik_2 == 5 & ruch_zlozony == 1) | (cykl_sterownik_1 == 5 & cykl_sterownik_2 == 5) & ruch_zlozony == 2)
                 ;                        {
                 ;                        cykl_sterownik_1 = 0;
                 ;                        cykl_sterownik_2 = 0;
                 ;                        cykl_sterownik_4 = 0;
                 ;                        cykl_sterownik_3 = 0;
                 ;                        if(rzad_obrabiany == 1)
                 ;                             {
                 ;                             while(sprawdz_pin0(PORTMM,0x77) == 1)
                 ;                                {
                 ;                                }
                 ;                             cykl_glowny = 6;
                 ;                             }
                 ;
                 ;                        if(rzad_obrabiany == 2)
                 ;                             {
                 ;                             while(sprawdz_pin1(PORTMM,0x77) == 1)
                 ;                                {
                 ;                                }
                 ;                             cykl_glowny = 6;
                 ;                             }
                 ;                        }
                 ;
                 ;            break;
                 ;
                 ;
                 ;
                 ;           case 6:
                 ;
                 ;
                 ;
                 ;
                 ;                    if(cykl_sterownik_3 < 5)
                 ;                        cykl_sterownik_3 = sterownik_3_praca(a[4]);  //abs //krazek scierny do gory
                 ;
                 ;                    if(koniec_rzedu_10 == 1)
                 ;                        cykl_sterownik_4 = 5;
                 ;
                 ;                    if(cykl_sterownik_4 < 5)
                 ;                        cykl_sterownik_4 = sterownik_4_praca(a[2]);    //ABS          //druciak do gory
                 ;
                 ;                     if(rzad_obrabiany == 2)
                 ;                        ostateczny_wybor_zacisku();
                 ;
                 ;
                 ;                    if(cykl_sterownik_4 == 5 & cykl_sterownik_3 == 5)
                 ;                        {
                 ;                        if((cykl_ilosc_zaciskow != il_zaciskow_rzad_1 - 1 & rzad_obrabiany == 1) | (cykl_ilosc_zaciskow != il_zaciskow_rzad_2 - 1 & rzad_obrabiany == 2))
                 ;                            PORTE.2 = 1;  //wlacz szlifierke
                 ;                        PORTB.4 = 1;  //przedmuch osi
                 ;                        PORTE.3 = 1;  //szlifierka 2 (krazek scierny)
                 ;                        cykl_sterownik_3 = 0;
                 ;                        cykl_sterownik_4 = 0;
                 ;                        if(cykl_ilosc_zaciskow > 0)
                 ;                                {
                 ;                                sek12 = 0;    //do przedmuchu
                 ;                                PORT_F.bits.b4 = 1;  //przedmuch zaciskow
                 ;                                PORTF = PORT_F.byte;
                 ;                                }
                 ;                        if(rzad_obrabiany == 1)
                 ;                             {
                 ;                             while(sprawdz_pin0(PORTMM,0x77) == 1)
                 ;                                {
                 ;                                }
                 ;                             cykl_glowny = 7;
                 ;                             }
                 ;
                 ;                        if(rzad_obrabiany == 2)
                 ;                             {
                 ;                             while(sprawdz_pin1(PORTMM,0x77) == 1)
                 ;                                {
                 ;                                }
                 ;                             cykl_glowny = 7;
                 ;                             }
                 ;                        }
                 ;
                 ;           break;
                 ;
                 ;
                 ;           case 7:
                 ;                                                                                              //mini ruch do przygotowania do okregu
                 ;                    if(cykl_sterownik_1 < 5)
                 ;                          cykl_sterownik_1 = sterownik_1_praca(a[5]);
                 ;
                 ;                     if(rzad_obrabiany == 2)
                 ;                        ostateczny_wybor_zacisku();
                 ;
                 ;                    if(cykl_sterownik_1 == 5)
                 ;                        {
                 ;                        cykl_sterownik_1 = 0;
                 ;
                 ;                        szczotka_druc_cykl = 0;
                 ;                        krazek_scierny_cykl_po_okregu = 0;
                 ;                        wykonalem_komplet_okregow = 0;
                 ;                        abs_ster3 = 0;
                 ;                        abs_ster4 = 0;
                 ;                        if(rzad_obrabiany == 1)
                 ;                             {
                 ;                             while(sprawdz_pin0(PORTMM,0x77) == 1)
                 ;                                {
                 ;                                }
                 ;                             cykl_glowny = 8;
                 ;                             }
                 ;
                 ;                        if(rzad_obrabiany == 2)
                 ;                             {
                 ;                             while(sprawdz_pin1(PORTMM,0x77) == 1)
                 ;                                {
                 ;                                }
                 ;                             cykl_glowny = 8;
                 ;                             }
                 ;                        }
                 ;
                 ;
                 ;
                 ;           break;
                 ;
                 ;
                 ;            case 8:
                 ;
                 ;                    if(sek12 > czas_przedmuchu)
                 ;                        {
                 ;                        PORT_F.bits.b4 = 0;  //przedmuch zaciskow
                 ;                        PORTF = PORT_F.byte;
                 ;                        }
                 ;
                 ;
                 ;                     if(rzad_obrabiany == 2)
                 ;                        ostateczny_wybor_zacisku();
                 ;
                 ;                    if(cykl_sterownik_1 < 5 & krazek_scierny_cykl_po_okregu < krazek_scierny_cykl_po_okregu_ilosc &  wykonalem_komplet_okregow == 0)
                 ;                          cykl_sterownik_1 = sterownik_1_praca(a[6]);
                 ;
                 ;                    if(cykl_sterownik_1 == 5 & krazek_scierny_cykl_po_okregu < krazek_scierny_cykl_po_okregu_ilosc &  wykonalem_komplet_okregow == 0)
                 ;                        {
                 ;                        cykl_sterownik_1 = 0;
                 ;                        krazek_scierny_cykl_po_okregu++;
                 ;                        }
                 ;
                 ;                    if(krazek_scierny_cykl_po_okregu == krazek_scierny_cykl_po_okregu_ilosc &  wykonalem_komplet_okregow == 0)
                 ;                        {
                 ;                        cykl_sterownik_1 = 0;
                 ;                        wykonalem_komplet_okregow = 1;
                 ;                        }
                 ;
                 ;                    if(koniec_rzedu_10 == 1)
                 ;                        cykl_sterownik_4 = 5;
                 ;
                 ;                    if(cykl_sterownik_4 < 5 & abs_ster4 == 0)
                 ;                         cykl_sterownik_4 = sterownik_4_praca(a[3]); //INV               //szczotka druc
                 ;
                 ;                    if(cykl_sterownik_4 == 5 & szczotka_druc_cykl < szczotka_druciana_ilosc_cykli)
                 ;                        {
                 ;                        if(koniec_rzedu_10 == 0)
                 ;                            cykl_sterownik_4 = 0;
                 ;                        if(abs_ster4 == 0)
                 ;                            {
                 ;                            szczotka_druc_cykl++;
                 ;                            abs_ster4 = 1;
                 ;                            }
                 ;                        else
                 ;                            abs_ster4 = 0;
                 ;                        }
                 ;
                 ;                    if(cykl_sterownik_3 < 5 & abs_ster3 == 0)
                 ;                         cykl_sterownik_3 = sterownik_3_praca(a[7]); //INV
                 ;
                 ;
                 ;                    if(cykl_sterownik_3 == 5 & krazek_scierny_cykl < krazek_scierny_ilosc_cykli)
                 ;                        {
                 ;
                 ;                         cykl_sterownik_3 = 0;
                 ;                        if(abs_ster3 == 0)
                 ;                            {
                 ;                            krazek_scierny_cykl++;
                 ;                            abs_ster3 = 1;
                 ;                            }
                 ;                        else
                 ;                            abs_ster3 = 0;
                 ;                        }
                 ;
                 ;                    if(cykl_sterownik_3 < 5 & abs_ster3 == 1)
                 ;                        cykl_sterownik_3 = sterownik_3_praca(a[4]);  //ABS          //krazek scierny do gory
                 ;
                 ;                    if(cykl_sterownik_4 < 5 & abs_ster4 == 1)
                 ;                        cykl_sterownik_4 = sterownik_4_praca(a[2]);  //ABS          //druciak do gory
                 ;
                 ;                                                                                           //mini ruch powrotny do okregu, zeby nie szorowal
                 ;                    if(cykl_sterownik_1 < 5 & wykonalem_komplet_okregow == 1)
                 ;                         cykl_sterownik_1 = sterownik_1_praca(a[8]);
                 ;
                 ;
                 ;                    if(cykl_sterownik_1 == 5 & wykonalem_komplet_okregow == 1 &
                 ;                       szczotka_druc_cykl == szczotka_druciana_ilosc_cykli &
                 ;                       krazek_scierny_cykl == krazek_scierny_ilosc_cykli &
                 ;                       cykl_sterownik_3 == 5 & cykl_sterownik_4 == 5)
                 ;                        {
                 ;                        cykl_sterownik_1 = 0;
                 ;                        cykl_sterownik_2 = 0;
                 ;                        cykl_sterownik_3 = 0;
                 ;                        cykl_sterownik_4 = 0;
                 ;                        szczotka_druc_cykl = 0;
                 ;                        krazek_scierny_cykl = 0;
                 ;                        krazek_scierny_cykl_po_okregu = 0;
                 ;                        PORT_F.bits.b4 = 0;  //przedmuch zaciskow wylacz
                 ;                        PORTF = PORT_F.byte;
                 ;
                 ;
                 ;                        if(rzad_obrabiany == 1)
                 ;                             {
                 ;                             while(sprawdz_pin0(PORTMM,0x77) == 1)
                 ;                                {
                 ;                                }
                 ;                             cykl_glowny = 9;
                 ;                             }
                 ;
                 ;                        if(rzad_obrabiany == 2)
                 ;                             {
                 ;                             while(sprawdz_pin1(PORTMM,0x77) == 1)
                 ;                                {
                 ;                                }
                 ;                             cykl_glowny = 9;
                 ;                             }
                 ;
                 ;
                 ;                        }
                 ;
                 ;                                                                                                //ster 1 - ruch po okregu
                 ;                                                                                                //ster 2 - nic
                 ;                                                                                                //ster 3 - krazek - gora dol
                 ;                                                                                                //ster 4 - druciak - gora dol
                 ;
                 ;            break;
                 ;
                 ;
                 ;            case 9:                                          //cykl 3 == 5
                 ;
                 ;
                 ;                         if(rzad_obrabiany == 1)
                 ;                         {
                 ;                         if(cykl_sterownik_3 < 5 & cykl_ilosc_zaciskow != il_zaciskow_rzad_1 - 1)
                 ;                              cykl_sterownik_3 = sterownik_3_praca(0x01);  //do pozycji bazowej
                 ;
                 ;
                 ;                          if(cykl_sterownik_4 < 5 & cykl_ilosc_zaciskow < il_zaciskow_rzad_1 - 2)
                 ;                            cykl_sterownik_4 = sterownik_4_praca(0x01);  //do pozycji bazowej
                 ;
                 ;
                 ;                         if(cykl_sterownik_3 < 5 & cykl_ilosc_zaciskow == il_zaciskow_rzad_1 - 1)       //2 marca 2019 wykomentowuje
                 ;                            cykl_sterownik_3 = sterownik_3_praca(0x00);  //na sam dol, jedziemy miedzy rzedami
                 ;
                 ;
                 ;                         if(cykl_sterownik_4 < 5 & cykl_ilosc_zaciskow >= il_zaciskow_rzad_1 - 2)
                 ;                            cykl_sterownik_4 = sterownik_4_praca(0x00);  //na sam dol, jedziemy miedzy rzedami
                 ;
                 ;                          }
                 ;
                 ;
                 ;                         if(rzad_obrabiany == 2)
                 ;                         {
                 ;                         if(cykl_sterownik_3 < 5 & cykl_ilosc_zaciskow != il_zaciskow_rzad_2 - 1)
                 ;                            cykl_sterownik_3 = sterownik_3_praca(0x01);  //do pozycji bazowej
                 ;
                 ;                          if(cykl_sterownik_4 < 5 & cykl_ilosc_zaciskow < il_zaciskow_rzad_2 - 2)
                 ;                            cykl_sterownik_4 = sterownik_4_praca(0x01);  //do pozycji bazowej
                 ;
                 ;                         if(cykl_sterownik_3 < 5 & cykl_ilosc_zaciskow == il_zaciskow_rzad_2 - 1)
                 ;                            cykl_sterownik_3 = sterownik_3_praca(0x00);  //na sam dol, jedziemy miedzy rzedami
                 ;
                 ;
                 ;                          if(cykl_sterownik_4 < 5 & cykl_ilosc_zaciskow >= il_zaciskow_rzad_2 - 2)
                 ;                            cykl_sterownik_4 = sterownik_4_praca(0x00);  //na sam dol, jedziemy miedzy rzedami
                 ;
                 ;                           if(rzad_obrabiany == 2)
                 ;                            ostateczny_wybor_zacisku();
                 ;
                 ;                          }
                 ;
                 ;
                 ;                          if(cykl_sterownik_3 == 5 & cykl_sterownik_4 == 5)
                 ;                            {
                 ;                            PORTE.2 = 0;  //wylacz szlifierke
                 ;                            PORTE.3 = 0;  //szlifierka 2 (krazek scierny)
                 ;                            PORTB.4 = 0;  //wylacz przedmuchy
                 ;                            cykl_sterownik_4 = 0;
                 ;                            cykl_sterownik_3 = 0;
                 ;                            cykl_ilosc_zaciskow++;
                 ;                            ruch_zlozony = 2;                       //il_zaciskow_rzad_1
                 ;
                 ;
                 ;                            if(rzad_obrabiany == 1)
                 ;                             {
                 ;                             while(sprawdz_pin0(PORTMM,0x77) == 1)
                 ;                                {
                 ;                                }
                 ;                             cykl_glowny = 10;
                 ;                             }
                 ;
                 ;                        if(rzad_obrabiany == 2)
                 ;                             {
                 ;                             while(sprawdz_pin1(PORTMM,0x77) == 1)
                 ;                                {
                 ;                                }
                 ;                             cykl_glowny = 10;
                 ;                             }
                 ;
                 ;
                 ;                            }
                 ;
                 ;
                 ;            break;
                 ;*/
                 ;
                 ;
                 ;
                 ;
                 ;
                 ;/*
                 ;case 10:
                 ;
                 ;                                               //wywali ten warunek jak zadziala
                 ;                     if(rzad_obrabiany == 1 & cykl_glowny != 0)
                 ;                            {
                 ;                            wartosc_parametru_panelu(cykl_ilosc_zaciskow,0,16);  //wykonano zaciskow rzad1
                 ;                            if(cykl_ilosc_zaciskow <  il_zaciskow_rzad_1 - 1)
                 ;                                {
                 ;                                cykl_glowny = 5;
                 ;                                koniec_rzedu_10 = 0;
                 ;                                }
                 ;
                 ;                            if(cykl_ilosc_zaciskow == il_zaciskow_rzad_1 - 1)
                 ;                                {
                 ;                                cykl_glowny = 5;
                 ;                                koniec_rzedu_10 = 1;
                 ;                                }
                 ;
                 ;                            if(cykl_ilosc_zaciskow == il_zaciskow_rzad_1 & il_zaciskow_rzad_1 == 10)
                 ;                                {
                 ;                                cykl_glowny = 11;
                 ;                                }
                 ;
                 ;                             if(cykl_ilosc_zaciskow == il_zaciskow_rzad_1 & il_zaciskow_rzad_1 != 10)  /////zmieniam + 1 20.02
                 ;                                {
                 ;                                cykl_glowny = 14;
                 ;                                }
                 ;                            }
                 ;
                 ;
                 ;                             if(rzad_obrabiany == 2)
                 ;                                ostateczny_wybor_zacisku();
                 ;
                 ;                            if(rzad_obrabiany == 2 & cykl_glowny != 0)
                 ;                            {
                 ;                            wartosc_parametru_panelu(cykl_ilosc_zaciskow,0,96);  //wykonano zaciskow rzad1
                 ;                            if(cykl_ilosc_zaciskow <  il_zaciskow_rzad_2 - 1)
                 ;                                {
                 ;                                cykl_glowny = 5;
                 ;                                koniec_rzedu_10 = 0;
                 ;                                }
                 ;
                 ;                            if(cykl_ilosc_zaciskow == il_zaciskow_rzad_2 - 1)
                 ;                                {
                 ;                                cykl_glowny = 5;
                 ;                                koniec_rzedu_10 = 1;
                 ;                                }
                 ;
                 ;                            if(cykl_ilosc_zaciskow == il_zaciskow_rzad_2 & il_zaciskow_rzad_2 == 10)
                 ;                                {
                 ;                                cykl_glowny = 12;
                 ;                                }
                 ;
                 ;
                 ;                             if(cykl_ilosc_zaciskow == il_zaciskow_rzad_2 & il_zaciskow_rzad_2 != 10)   ///////////////////zmieniam + 1 20.02
                 ;                                {
                 ;                                cykl_glowny = 14;
                 ;                                }
                 ;                            }
                 ;
                 ;
                 ;
                 ;            break;
                 ;
                 ;
                 ;
                 ;            case 11:
                 ;
                 ;                              if(rzad_obrabiany == 2)
                 ;                                ostateczny_wybor_zacisku();
                 ;
                 ;                             //ster 1 ucieka od szafy
                 ;                             if(cykl_sterownik_1 < 5)
                 ;                                    cykl_sterownik_1 = sterownik_1_praca(0x007);     //uciekamy do tylu
                 ;
                 ;                             if(cykl_sterownik_2 < 5)
                 ;                                    cykl_sterownik_2 = sterownik_2_praca(0x190);     //pod dolek ostatni 10 do przedmuchu rzad 1
                 ;
                 ;                             if(cykl_sterownik_1 == 5 & cykl_sterownik_2 == 5)
                 ;                                    {
                 ;                                    PORT_F.bits.b4 = 1;  //przedmuch zaciskow
                 ;                                    PORTF = PORT_F.byte;
                 ;                                    cykl_sterownik_1 = 0;
                 ;                                    cykl_sterownik_2 = 0;
                 ;
                 ;                                    if(rzad_obrabiany == 1)
                 ;                                    {
                 ;                                        while(sprawdz_pin0(PORTMM,0x77) == 1)
                 ;                                            {
                 ;                                            }
                 ;                                    cykl_glowny = 13;
                 ;                                    }
                 ;
                 ;                                    if(rzad_obrabiany == 2)
                 ;                                    {
                 ;                                    while(sprawdz_pin1(PORTMM,0x77) == 1)
                 ;                                        {
                 ;                                        }
                 ;                                        cykl_glowny = 13;
                 ;                                    }
                 ;
                 ;
                 ;
                 ;
                 ;                                    }
                 ;            break;
                 ;
                 ;
                 ;            case 12:
                 ;
                 ;                             if(rzad_obrabiany == 2)
                 ;                                ostateczny_wybor_zacisku();
                 ;
                 ;                               //ster 1 ucieka od szafy
                 ;                             if(cykl_sterownik_1 < 5)
                 ;                                    cykl_sterownik_1 = sterownik_1_praca(0x007);     //uciekamy do tylu
                 ;
                 ;                            if(cykl_sterownik_2 < 5)
                 ;                                    cykl_sterownik_2 = sterownik_2_praca(0x191);     //pod dolek ostatni 10 do przedmuchu rzad 2
                 ;
                 ;                             if(cykl_sterownik_1 == 5 & cykl_sterownik_2 == 5)
                 ;                                    {
                 ;                                    PORT_F.bits.b4 = 1;  //przedmuch zaciskow
                 ;                                    PORTF = PORT_F.byte;
                 ;                                    cykl_sterownik_1 = 0;
                 ;                                    cykl_sterownik_2 = 0;
                 ;
                 ;                                    if(rzad_obrabiany == 1)
                 ;                                    {
                 ;                                        while(sprawdz_pin0(PORTMM,0x77) == 1)
                 ;                                            {
                 ;                                            }
                 ;                                    cykl_glowny = 13;
                 ;                                    }
                 ;
                 ;                                    if(rzad_obrabiany == 2)
                 ;                                    {
                 ;                                    while(sprawdz_pin1(PORTMM,0x77) == 1)
                 ;                                        {
                 ;                                        }
                 ;                                        cykl_glowny = 13;
                 ;                                    }
                 ;
                 ;
                 ;
                 ;                                    }
                 ;
                 ;
                 ;            break;
                 ;
                 ;
                 ;
                 ;            case 13:
                 ;
                 ;
                 ;                              if(rzad_obrabiany == 2)
                 ;                                ostateczny_wybor_zacisku();
                 ;
                 ;                             if(cykl_sterownik_2 < 5)
                 ;                                    cykl_sterownik_2 = sterownik_2_praca(0x192);     //okrag
                 ;                             if(cykl_sterownik_2 == 5)
                 ;                                    {
                 ;                                    PORT_F.bits.b4 = 0;  //przedmuch zaciskow - wylaczenie
                 ;                                    PORTF = PORT_F.byte;
                 ;                                    cykl_sterownik_2 = 0;
                 ;
                 ;
                 ;                                    if(rzad_obrabiany == 1)
                 ;                                    {
                 ;                                        while(sprawdz_pin0(PORTMM,0x77) == 1)
                 ;                                            {
                 ;                                            }
                 ;                                    cykl_glowny = 16;
                 ;                                    }
                 ;
                 ;                                    if(rzad_obrabiany == 2)
                 ;                                    {
                 ;                                    while(sprawdz_pin1(PORTMM,0x77) == 1)
                 ;                                        {
                 ;                                        }
                 ;                                        cykl_glowny = 16;
                 ;                                    }
                 ;
                 ;
                 ;
                 ;                                    }
                 ;
                 ;            break;
                 ;
                 ;
                 ;
                 ;            case 14:
                 ;
                 ;
                 ;                     if(rzad_obrabiany == 2)
                 ;                        ostateczny_wybor_zacisku();
                 ;
                 ;                    if(cykl_sterownik_1 < 5)
                 ;                        cykl_sterownik_1 = sterownik_1_praca(0x003);     //pod nastepny dolek zeby przedmuchac
                 ;                    if(cykl_sterownik_1 == 5)
                 ;                        {
                 ;                        cykl_sterownik_1 = 0;
                 ;                        sek12 = 0;
                 ;
                 ;                        if(rzad_obrabiany == 1)
                 ;                                    {
                 ;                                        while(sprawdz_pin0(PORTMM,0x77) == 1)
                 ;                                            {
                 ;                                            }
                 ;                                    cykl_glowny = 15;
                 ;                                    }
                 ;
                 ;                                    if(rzad_obrabiany == 2)
                 ;                                    {
                 ;                                    while(sprawdz_pin1(PORTMM,0x77) == 1)
                 ;                                        {
                 ;                                        }
                 ;                                        cykl_glowny = 15;
                 ;                                    }
                 ;
                 ;
                 ;
                 ;
                 ;
                 ;                        }
                 ;
                 ;            break;
                 ;
                 ;
                 ;
                 ;            case 15:
                 ;
                 ;                     if(rzad_obrabiany == 2)
                 ;                        ostateczny_wybor_zacisku();
                 ;
                 ;                    //przedmuch
                 ;                    PORT_F.bits.b4 = 1;  //przedmuch zaciskow
                 ;                    PORTF = PORT_F.byte;
                 ;                    if(sek12 > czas_przedmuchu)
                 ;                        {
                 ;                        PORT_F.bits.b4 = 0;  //przedmuch zaciskow
                 ;                        PORTF = PORT_F.byte;
                 ;
                 ;                        if(rzad_obrabiany == 1)
                 ;                                    {
                 ;                                        while(sprawdz_pin0(PORTMM,0x77) == 1)
                 ;                                            {
                 ;                                            }
                 ;                                    cykl_glowny = 16;
                 ;                                    }
                 ;
                 ;                                    if(rzad_obrabiany == 2)
                 ;                                    {
                 ;                                    while(sprawdz_pin1(PORTMM,0x77) == 1)
                 ;                                        {
                 ;                                        }
                 ;                                        cykl_glowny = 16;
                 ;                                    }
                 ;
                 ;
                 ;
                 ;
                 ;                        }
                 ;            break;
                 ;
                 ;
                 ;            case 16:
                 ;
                 ;                     if(cykl_ilosc_zaciskow == il_zaciskow_rzad_1 & wykonalem_rzedow == 0)  /////zmieniam + 1 20.02
                 ;                                {
                 ;                                cykl_ilosc_zaciskow = 0;
                 ;                                PORTE.7 = 0;   //pusc zaciski
                 ;                                if(il_zaciskow_rzad_2 > 0)
                 ;                                    {
                 ;
                 ;                                    rzad_obrabiany = 2;
                 ;                                    wybor_linijek_sterownikow(2);  //rzad 2
                 ;                                    cykl_glowny = 0;
                 ;                                    }
                 ;                                else
                 ;                                    cykl_glowny = 17;
                 ;
                 ;                                wykonalem_rzedow = 1;
                 ;                                }
                 ;
                 ;                       if(cykl_ilosc_zaciskow == il_zaciskow_rzad_2 & il_zaciskow_rzad_2 > 0 & wykonalem_rzedow == 1)   ///////////////////zmieniam + 1 20.02
                 ;                                {
                 ;                                PORTE.7 = 0;   //pusc zaciski
                 ;                                cykl_ilosc_zaciskow = 0;
                 ;                                cykl_glowny = 17;
                 ;                                rzad_obrabiany = 1;
                 ;                                wykonalem_rzedow = 2;
                 ;                                }
                 ;
                 ;
                 ;
                 ;
                 ;                        if(il_zaciskow_rzad_1 > 0 & il_zaciskow_rzad_2 > 0 & wykonalem_rzedow == 2)
                 ;                                  {
                 ;                                  rzad_obrabiany = 1;
                 ;                                  wykonalem_rzedow = 0;
                 ;                                  PORTE.7 = 0;   //pusc zaciski
                 ;                                  //PORTE.6 = 0;    //przelacz rzad zaciskow - rzad 1 - tego na razie nie poki nie ma oslon
                 ;                                  PORTB.6 = 0;   ////zielona lampka
                 ;                                  wartosc_parametru_panelu(0,0,64);
                 ;                                  }
                 ;
                 ;                            if(il_zaciskow_rzad_1 > 0 & il_zaciskow_rzad_2 == 0 & wykonalem_rzedow == 1)
                 ;                                  {
                 ;                                  rzad_obrabiany = 1;
                 ;                                  wykonalem_rzedow = 0;
                 ;                                  PORTE.6 = 1;    //przelacz rzad zaciskow - rzad 2
                 ;                                  PORTB.6 = 0;   ////zielona lampka
                 ;                                  wartosc_parametru_panelu(0,0,64);
                 ;                                  }
                 ;
                 ;
                 ;
                 ;            break;
                 ;
                 ;
                 ;            case 17:
                 ;
                 ;
                 ;                                 if(cykl_sterownik_1 < 5)
                 ;                                    cykl_sterownik_1 = sterownik_1_praca(0x009);
                 ;                                 if(cykl_sterownik_2 < 5)                                //ster 1 do 0
                 ;                                    cykl_sterownik_2 = sterownik_2_praca(0x000);       //ster 2 pod pin pozy rzad 1
                 ;
                 ;                                    if(cykl_sterownik_1 == 5 & cykl_sterownik_2 == 5)
                 ;                                        {
                 ;                                        cykl_sterownik_1 = 0;
                 ;                                        cykl_sterownik_2 = 0;
                 ;                                        cykl_sterownik_3 = 0;
                 ;                                        cykl_sterownik_4 = 0;
                 ;                                        jestem_w_trakcie_czyszczenia_calosci = 0;
                 ;                                        start = 0;
                 ;                                        cykl_glowny = 0;
                 ;                                        }
                 ;
                 ;
                 ;
                 ;
                 ;            break;
                 ;*/
                 
                 	.CSEG
                 _strlen:
002a33 91a9          ld   r26,y+
002a34 91b9          ld   r27,y+
002a35 27ee          clr  r30
002a36 27ff          clr  r31
                 strlen0:
002a37 916d          ld   r22,x+
002a38 2366          tst  r22
002a39 f011          breq strlen1
002a3a 9631          adiw r30,1
002a3b cffb          rjmp strlen0
                 strlen1:
002a3c 9508          ret
                 _strlenf:
002a3d 27aa          clr  r26
002a3e 27bb          clr  r27
002a3f 91e9          ld   r30,y+
002a40 91f9          ld   r31,y+
                 strlenf0:
002a41 9005      	lpm  r0,z+
002a42 2000          tst  r0
002a43 f011          breq strlenf1
002a44 9611          adiw r26,1
002a45 cffb          rjmp strlenf0
                 strlenf1:
002a46 01fd          movw r30,r26
002a47 9508          ret
                 
                 	.CSEG
                 
                 	.DSEG
                 
                 	.CSEG
                 
                 	.CSEG
                 	#ifndef __SLEEP_DEFINED__
                 	#endif
                 
                 	.CSEG
                 _getchar:
                 getchar0:
002a48 9b5f           sbis usr,rxc
002a49 cffe           rjmp getchar0
002a4a b1ec           in   r30,udr
002a4b 9508      	RET
                 _putchar:
                 putchar0:
002a4c 9b5d           sbis usr,udre
002a4d cffe           rjmp putchar0
002a4e 81e8           ld   r30,y
002a4f b9ec           out  udr,r30
002a50 9621      	ADIW R28,1
002a51 9508      	RET
                 _put_usart_G103:
002a52 81ea      	LDD  R30,Y+2
002a53 93ea      	ST   -Y,R30
002a54 dff7      	RCALL _putchar
002a55 81a8      	LD   R26,Y
002a56 81b9      	LDD  R27,Y+1
002a57 940e 3220 	CALL SUBOPT_0xEB
002a59 9623      	ADIW R28,3
002a5a 9508      	RET
                 __print_G103:
002a5b 9726      	SBIW R28,6
002a5c 940e 33cb 	CALL __SAVELOCR6
002a5e e010      	LDI  R17,0
002a5f 85ac      	LDD  R26,Y+12
002a60 85bd      	LDD  R27,Y+12+1
002a61 940e 2d3d 	CALL SUBOPT_0x39
                 _0x2060016:
002a63 89ea      	LDD  R30,Y+18
002a64 89fb      	LDD  R31,Y+18+1
002a65 9631      	ADIW R30,1
002a66 8bea      	STD  Y+18,R30
002a67 8bfb      	STD  Y+18+1,R31
002a68 9731      	SBIW R30,1
002a69 91e4      	LPM  R30,Z
002a6a 2f2e      	MOV  R18,R30
002a6b 30e0      	CPI  R30,0
002a6c f411      	BRNE PC+3
002a6d 940c 2b86 	JMP _0x2060018
002a6f 2fe1      	MOV  R30,R17
002a70 30e0      	CPI  R30,0
002a71 f439      	BRNE _0x206001C
002a72 3225      	CPI  R18,37
002a73 f411      	BRNE _0x206001D
002a74 e011      	LDI  R17,LOW(1)
002a75 c002      	RJMP _0x206001E
                 _0x206001D:
002a76 940e 32c5 	CALL SUBOPT_0x105
                 _0x206001E:
002a78 c10c      	RJMP _0x206001B
                 _0x206001C:
002a79 30e1      	CPI  R30,LOW(0x1)
002a7a f4a9      	BRNE _0x206001F
002a7b 3225      	CPI  R18,37
002a7c f419      	BRNE _0x2060020
002a7d 940e 32c5 	CALL SUBOPT_0x105
002a7f c104      	RJMP _0x20600C9
                 _0x2060020:
002a80 e012      	LDI  R17,LOW(2)
002a81 e040      	LDI  R20,LOW(0)
002a82 e000      	LDI  R16,LOW(0)
002a83 322d      	CPI  R18,45
002a84 f411      	BRNE _0x2060021
002a85 e001      	LDI  R16,LOW(1)
002a86 c0fe      	RJMP _0x206001B
                 _0x2060021:
002a87 322b      	CPI  R18,43
002a88 f411      	BRNE _0x2060022
002a89 e24b      	LDI  R20,LOW(43)
002a8a c0fa      	RJMP _0x206001B
                 _0x2060022:
002a8b 3220      	CPI  R18,32
002a8c f411      	BRNE _0x2060023
002a8d e240      	LDI  R20,LOW(32)
002a8e c0f6      	RJMP _0x206001B
                 _0x2060023:
002a8f c002      	RJMP _0x2060024
                 _0x206001F:
002a90 30e2      	CPI  R30,LOW(0x2)
002a91 f439      	BRNE _0x2060025
                 _0x2060024:
002a92 e050      	LDI  R21,LOW(0)
002a93 e013      	LDI  R17,LOW(3)
002a94 3320      	CPI  R18,48
002a95 f411      	BRNE _0x2060026
002a96 6800      	ORI  R16,LOW(128)
002a97 c0ed      	RJMP _0x206001B
                 _0x2060026:
002a98 c004      	RJMP _0x2060027
                 _0x2060025:
002a99 30e3      	CPI  R30,LOW(0x3)
002a9a f011      	BREQ PC+3
002a9b 940c 2b85 	JMP _0x206001B
                 _0x2060027:
002a9d 3320      	CPI  R18,48
002a9e f010      	BRLO _0x206002A
002a9f 332a      	CPI  R18,58
002aa0 f008      	BRLO _0x206002B
                 _0x206002A:
002aa1 c007      	RJMP _0x2060029
                 _0x206002B:
002aa2 e0aa      	LDI  R26,LOW(10)
002aa3 9f5a      	MUL  R21,R26
002aa4 2d50      	MOV  R21,R0
002aa5 2fe2      	MOV  R30,R18
002aa6 53e0      	SUBI R30,LOW(48)
002aa7 0f5e      	ADD  R21,R30
002aa8 c0dc      	RJMP _0x206001B
                 _0x2060029:
002aa9 2fe2      	MOV  R30,R18
002aaa 36e3      	CPI  R30,LOW(0x63)
002aab f449      	BRNE _0x206002F
002aac 940e 32ce 	CALL SUBOPT_0x106
002aae 89e8      	LDD  R30,Y+16
002aaf 89f9      	LDD  R31,Y+16+1
002ab0 81a4      	LDD  R26,Z+4
002ab1 93aa      	ST   -Y,R26
002ab2 940e 32d4 	CALL SUBOPT_0x107
002ab4 c0cf      	RJMP _0x2060030
                 _0x206002F:
002ab5 37e3      	CPI  R30,LOW(0x73)
002ab6 f441      	BRNE _0x2060032
002ab7 940e 32ce 	CALL SUBOPT_0x106
002ab9 940e 32dc 	CALL SUBOPT_0x108
002abb 940e 2a33 	CALL _strlen
002abd 2f1e      	MOV  R17,R30
002abe c00a      	RJMP _0x2060033
                 _0x2060032:
002abf 37e0      	CPI  R30,LOW(0x70)
002ac0 f461      	BRNE _0x2060035
002ac1 940e 32ce 	CALL SUBOPT_0x106
002ac3 940e 32dc 	CALL SUBOPT_0x108
002ac5 940e 2a3d 	CALL _strlenf
002ac7 2f1e      	MOV  R17,R30
002ac8 6008      	ORI  R16,LOW(8)
                 _0x2060033:
002ac9 6002      	ORI  R16,LOW(2)
002aca 770f      	ANDI R16,LOW(127)
002acb e030      	LDI  R19,LOW(0)
002acc c035      	RJMP _0x2060036
                 _0x2060035:
002acd 36e4      	CPI  R30,LOW(0x64)
002ace f011      	BREQ _0x2060039
002acf 36e9      	CPI  R30,LOW(0x69)
002ad0 f411      	BRNE _0x206003A
                 _0x2060039:
002ad1 6004      	ORI  R16,LOW(4)
002ad2 c002      	RJMP _0x206003B
                 _0x206003A:
002ad3 37e5      	CPI  R30,LOW(0x75)
002ad4 f431      	BRNE _0x206003C
                 _0x206003B:
002ad5 e8ec      	LDI  R30,LOW(_tbl10_G103*2)
002ad6 e0f0      	LDI  R31,HIGH(_tbl10_G103*2)
002ad7 83ee      	STD  Y+6,R30
002ad8 83ff      	STD  Y+6+1,R31
002ad9 e015      	LDI  R17,LOW(5)
002ada c00d      	RJMP _0x206003D
                 _0x206003C:
002adb 35e8      	CPI  R30,LOW(0x58)
002adc f411      	BRNE _0x206003F
002add 6008      	ORI  R16,LOW(8)
002ade c004      	RJMP _0x2060040
                 _0x206003F:
002adf 37e8      	CPI  R30,LOW(0x78)
002ae0 f011      	BREQ PC+3
002ae1 940c 2b84 	JMP _0x2060071
                 _0x2060040:
002ae3 e9e6      	LDI  R30,LOW(_tbl16_G103*2)
002ae4 e0f0      	LDI  R31,HIGH(_tbl16_G103*2)
002ae5 83ee      	STD  Y+6,R30
002ae6 83ff      	STD  Y+6+1,R31
002ae7 e014      	LDI  R17,LOW(4)
                 _0x206003D:
002ae8 ff02      	SBRS R16,2
002ae9 c014      	RJMP _0x2060042
002aea 940e 32ce 	CALL SUBOPT_0x106
002aec 940e 32e4 	CALL SUBOPT_0x109
002aee 85ab      	LDD  R26,Y+11
002aef 23aa      	TST  R26
002af0 f43a      	BRPL _0x2060043
002af1 85ea      	LDD  R30,Y+10
002af2 85fb      	LDD  R31,Y+10+1
002af3 940e 334e 	CALL __ANEGW1
002af5 87ea      	STD  Y+10,R30
002af6 87fb      	STD  Y+10+1,R31
002af7 e24d      	LDI  R20,LOW(45)
                 _0x2060043:
002af8 3040      	CPI  R20,0
002af9 f011      	BREQ _0x2060044
002afa 5f1f      	SUBI R17,-LOW(1)
002afb c001      	RJMP _0x2060045
                 _0x2060044:
002afc 7f0b      	ANDI R16,LOW(251)
                 _0x2060045:
002afd c004      	RJMP _0x2060046
                 _0x2060042:
002afe 940e 32ce 	CALL SUBOPT_0x106
002b00 940e 32e4 	CALL SUBOPT_0x109
                 _0x2060046:
                 _0x2060036:
002b02 fd00      	SBRC R16,0
002b03 c011      	RJMP _0x2060047
                 _0x2060048:
002b04 1715      	CP   R17,R21
002b05 f478      	BRSH _0x206004A
002b06 ff07      	SBRS R16,7
002b07 c008      	RJMP _0x206004B
002b08 ff02      	SBRS R16,2
002b09 c004      	RJMP _0x206004C
002b0a 7f0b      	ANDI R16,LOW(251)
002b0b 2f24      	MOV  R18,R20
002b0c 5011      	SUBI R17,LOW(1)
002b0d c001      	RJMP _0x206004D
                 _0x206004C:
002b0e e320      	LDI  R18,LOW(48)
                 _0x206004D:
002b0f c001      	RJMP _0x206004E
                 _0x206004B:
002b10 e220      	LDI  R18,LOW(32)
                 _0x206004E:
002b11 940e 32c5 	CALL SUBOPT_0x105
002b13 5051      	SUBI R21,LOW(1)
002b14 cfef      	RJMP _0x2060048
                 _0x206004A:
                 _0x2060047:
002b15 2f31      	MOV  R19,R17
002b16 ff01      	SBRS R16,1
002b17 c017      	RJMP _0x206004F
                 _0x2060050:
002b18 3030      	CPI  R19,0
002b19 f0a1      	BREQ _0x2060052
002b1a ff03      	SBRS R16,3
002b1b c006      	RJMP _0x2060053
002b1c 81ee      	LDD  R30,Y+6
002b1d 81ff      	LDD  R31,Y+6+1
002b1e 9125      	LPM  R18,Z+
002b1f 83ee      	STD  Y+6,R30
002b20 83ff      	STD  Y+6+1,R31
002b21 c005      	RJMP _0x2060054
                 _0x2060053:
002b22 81ae      	LDD  R26,Y+6
002b23 81bf      	LDD  R27,Y+6+1
002b24 912d      	LD   R18,X+
002b25 83ae      	STD  Y+6,R26
002b26 83bf      	STD  Y+6+1,R27
                 _0x2060054:
002b27 940e 32c5 	CALL SUBOPT_0x105
002b29 3050      	CPI  R21,0
002b2a f009      	BREQ _0x2060055
002b2b 5051      	SUBI R21,LOW(1)
                 _0x2060055:
002b2c 5031      	SUBI R19,LOW(1)
002b2d cfea      	RJMP _0x2060050
                 _0x2060052:
002b2e c04b      	RJMP _0x2060056
                 _0x206004F:
                 _0x2060058:
002b2f e320      	LDI  R18,LOW(48)
002b30 81ee      	LDD  R30,Y+6
002b31 81ff      	LDD  R31,Y+6+1
002b32 940e 338d 	CALL __GETW1PF
002b34 87e8      	STD  Y+8,R30
002b35 87f9      	STD  Y+8+1,R31
002b36 81ee      	LDD  R30,Y+6
002b37 81ff      	LDD  R31,Y+6+1
002b38 9632      	ADIW R30,2
002b39 83ee      	STD  Y+6,R30
002b3a 83ff      	STD  Y+6+1,R31
                 _0x206005A:
002b3b 85e8      	LDD  R30,Y+8
002b3c 85f9      	LDD  R31,Y+8+1
002b3d 85aa      	LDD  R26,Y+10
002b3e 85bb      	LDD  R27,Y+10+1
002b3f 17ae      	CP   R26,R30
002b40 07bf      	CPC  R27,R31
002b41 f050      	BRLO _0x206005C
002b42 5f2f      	SUBI R18,-LOW(1)
002b43 85a8      	LDD  R26,Y+8
002b44 85b9      	LDD  R27,Y+8+1
002b45 85ea      	LDD  R30,Y+10
002b46 85fb      	LDD  R31,Y+10+1
002b47 1bea      	SUB  R30,R26
002b48 0bfb      	SBC  R31,R27
002b49 87ea      	STD  Y+10,R30
002b4a 87fb      	STD  Y+10+1,R31
002b4b cfef      	RJMP _0x206005A
                 _0x206005C:
002b4c 332a      	CPI  R18,58
002b4d f028      	BRLO _0x206005D
002b4e ff03      	SBRS R16,3
002b4f c002      	RJMP _0x206005E
002b50 5f29      	SUBI R18,-LOW(7)
002b51 c001      	RJMP _0x206005F
                 _0x206005E:
002b52 5d29      	SUBI R18,-LOW(39)
                 _0x206005F:
                 _0x206005D:
002b53 fd04      	SBRC R16,4
002b54 c01a      	RJMP _0x2060061
002b55 3321      	CPI  R18,49
002b56 f420      	BRSH _0x2060063
002b57 85a8      	LDD  R26,Y+8
002b58 85b9      	LDD  R27,Y+8+1
002b59 9711      	SBIW R26,1
002b5a f409      	BRNE _0x2060062
                 _0x2060063:
002b5b c009      	RJMP _0x20600CA
                 _0x2060062:
002b5c 1753      	CP   R21,R19
002b5d f010      	BRLO _0x2060067
002b5e ff00      	SBRS R16,0
002b5f c001      	RJMP _0x2060068
                 _0x2060067:
002b60 c013      	RJMP _0x2060066
                 _0x2060068:
002b61 e220      	LDI  R18,LOW(32)
002b62 ff07      	SBRS R16,7
002b63 c00b      	RJMP _0x2060069
002b64 e320      	LDI  R18,LOW(48)
                 _0x20600CA:
002b65 6100      	ORI  R16,LOW(16)
002b66 ff02      	SBRS R16,2
002b67 c007      	RJMP _0x206006A
002b68 7f0b      	ANDI R16,LOW(251)
002b69 934a      	ST   -Y,R20
002b6a 940e 32d4 	CALL SUBOPT_0x107
002b6c 3050      	CPI  R21,0
002b6d f009      	BREQ _0x206006B
002b6e 5051      	SUBI R21,LOW(1)
                 _0x206006B:
                 _0x206006A:
                 _0x2060069:
                 _0x2060061:
002b6f 940e 32c5 	CALL SUBOPT_0x105
002b71 3050      	CPI  R21,0
002b72 f009      	BREQ _0x206006C
002b73 5051      	SUBI R21,LOW(1)
                 _0x206006C:
                 _0x2060066:
002b74 5031      	SUBI R19,LOW(1)
002b75 85a8      	LDD  R26,Y+8
002b76 85b9      	LDD  R27,Y+8+1
002b77 9712      	SBIW R26,2
002b78 f008      	BRLO _0x2060059
002b79 cfb5      	RJMP _0x2060058
                 _0x2060059:
                 _0x2060056:
002b7a ff00      	SBRS R16,0
002b7b c008      	RJMP _0x206006D
                 _0x206006E:
002b7c 3050      	CPI  R21,0
002b7d f031      	BREQ _0x2060070
002b7e 5051      	SUBI R21,LOW(1)
002b7f e2e0      	LDI  R30,LOW(32)
002b80 93ea      	ST   -Y,R30
002b81 940e 32d4 	CALL SUBOPT_0x107
002b83 cff8      	RJMP _0x206006E
                 _0x2060070:
                 _0x206006D:
                 _0x2060071:
                 _0x2060030:
                 _0x20600C9:
002b84 e010      	LDI  R17,LOW(0)
                 _0x206001B:
002b85 cedd      	RJMP _0x2060016
                 _0x2060018:
002b86 85ac      	LDD  R26,Y+12
002b87 85bd      	LDD  R27,Y+12+1
002b88 940e 337f 	CALL __GETW1P
002b8a 940e 33d2 	CALL __LOADLOCR6
002b8c 9664      	ADIW R28,20
002b8d 9508      	RET
                 _printf:
002b8e 92ff      	PUSH R15
002b8f 2ef8      	MOV  R15,R24
002b90 9726      	SBIW R28,6
002b91 931a      	ST   -Y,R17
002b92 930a      	ST   -Y,R16
002b93 01de      	MOVW R26,R28
002b94 9614      	ADIW R26,4
002b95 940e 334a 	CALL __ADDW2R15
002b97 018d      	MOVW R16,R26
002b98 e0e0      	LDI  R30,LOW(0)
002b99 83ec      	STD  Y+4,R30
002b9a 83ed      	STD  Y+4+1,R30
002b9b 83ee      	STD  Y+6,R30
002b9c 83ef      	STD  Y+6+1,R30
002b9d 01de      	MOVW R26,R28
002b9e 9618      	ADIW R26,8
002b9f 940e 334a 	CALL __ADDW2R15
002ba1 940e 337f 	CALL __GETW1P
002ba3 940e 2d2e 	CALL SUBOPT_0x36
002ba5 e5e2      	LDI  R30,LOW(_put_usart_G103)
002ba6 e2fa      	LDI  R31,HIGH(_put_usart_G103)
002ba7 93fa      	ST   -Y,R31
002ba8 93ea      	ST   -Y,R30
002ba9 01fe      	MOVW R30,R28
002baa 9638      	ADIW R30,8
002bab 93fa      	ST   -Y,R31
002bac 93ea      	ST   -Y,R30
002bad dead      	RCALL __print_G103
002bae 8119      	LDD  R17,Y+1
002baf 8108      	LDD  R16,Y+0
002bb0 9628      	ADIW R28,8
002bb1 90ff      	POP  R15
002bb2 9508      	RET
                 
                 	.CSEG
                 
                 	.ESEG
                 _szczotka_druciana_ilosc_cykli:
000000           	.BYTE 0x2
                 _krazek_scierny_ilosc_cykli:
000002           	.BYTE 0x2
                 _krazek_scierny_cykl_po_okregu_ilosc:
000004           	.BYTE 0x2
                 _czas_pracy_krazka_sciernego_h:
000006           	.BYTE 0x2
                 _czas_pracy_szczotki_drucianej_h:
000008           	.BYTE 0x2
                 _czas_pracy_krazka_sciernego_stala:
00000a           	.BYTE 0x2
                 _czas_pracy_szczotki_drucianej_stala:
00000c           	.BYTE 0x2
                 
                 	.DSEG
                 _PORT_F:
000500           	.BYTE 0x1
                 _PORTHH:
000501           	.BYTE 0x1
                 _PORT_CZYTNIK:
000502           	.BYTE 0x1
                 _PORTJJ:
000503           	.BYTE 0x1
                 _PORTKK:
000504           	.BYTE 0x1
                 _PORTLL:
000505           	.BYTE 0x1
                 _PORTMM:
000506           	.BYTE 0x1
                 _PORT_STER3:
000507           	.BYTE 0x1
                 _PORT_STER4:
000508           	.BYTE 0x1
                 _PORT_STER1:
000509           	.BYTE 0x1
                 _PORT_STER2:
00050a           	.BYTE 0x1
                 _macierz_zaciskow:
00050b           	.BYTE 0x6
                 _sek1:
000511           	.BYTE 0x4
                 _sek2:
000515           	.BYTE 0x4
                 _sek3:
000519           	.BYTE 0x4
                 _sek4:
00051d           	.BYTE 0x4
                 _sek11:
000521           	.BYTE 0x4
                 _sek12:
000525           	.BYTE 0x4
                 _cykl:
000529           	.BYTE 0x2
                 _bbb:
00052b           	.BYTE 0x2
                 _pozycjonowanie_LEFS32_300_1:
00052d           	.BYTE 0x2
                 _pozycjonowanie_LEFS32_300_2:
00052f           	.BYTE 0x2
                 _il_zaciskow_rzad_1:
000531           	.BYTE 0x2
                 _il_zaciskow_rzad_2:
000533           	.BYTE 0x2
                 _cykl_sterownik_1:
000535           	.BYTE 0x2
                 _cykl_sterownik_3:
000537           	.BYTE 0x2
                 _cykl_sterownik_2:
000539           	.BYTE 0x2
                 _cykl_sterownik_4:
00053b           	.BYTE 0x2
                 _adr1:
00053d           	.BYTE 0x2
                 _adr2:
00053f           	.BYTE 0x2
                 _adr3:
000541           	.BYTE 0x2
                 _adr4:
000543           	.BYTE 0x2
                 _cykl_sterownik_3_wykonalem:
000545           	.BYTE 0x2
                 _szczotka_druc_cykl:
000547           	.BYTE 0x2
                 _cykl_glowny:
000549           	.BYTE 0x2
                 _ruch_zlozony:
00054b           	.BYTE 0x2
                 _krazek_scierny_cykl_po_okregu:
00054d           	.BYTE 0x2
                 _krazek_scierny_cykl:
00054f           	.BYTE 0x2
                 _cykl_ilosc_zaciskow:
000551           	.BYTE 0x2
                 _wykonalem_komplet_okregow:
000553           	.BYTE 0x2
                 _abs_ster3:
000555           	.BYTE 0x2
                 _abs_ster4:
000557           	.BYTE 0x2
                 _koniec_rzedu_10:
000559           	.BYTE 0x2
                 _rzad_obrabiany:
00055b           	.BYTE 0x2
                 _jestem_w_trakcie_czyszczenia_calosci:
00055d           	.BYTE 0x2
                 _wykonalem_rzedow:
00055f           	.BYTE 0x2
                 _czekaj_az_puszcze:
000561           	.BYTE 0x2
                 _czas_przedmuchu:
000563           	.BYTE 0x2
                 _a:
000565           	.BYTE 0x14
                 _wymieniono_szczotke_druciana:
000579           	.BYTE 0x2
                 _wymieniono_krazek_scierny:
00057b           	.BYTE 0x2
                 _predkosc_pion_szczotka:
00057d           	.BYTE 0x2
                 _predkosc_pion_krazek:
00057f           	.BYTE 0x2
                 _wejscie_krazka_sciernego_w_pow_boczna_cylindra:
000581           	.BYTE 0x2
                 _predkosc_ruchow_po_okregu_krazek_scierny:
000583           	.BYTE 0x2
                 _test_geometryczny_rzad_1:
000585           	.BYTE 0x2
                 _test_geometryczny_rzad_2:
000587           	.BYTE 0x2
                 _czas_pracy_krazka_sciernego:
000589           	.BYTE 0x2
                 _czas_pracy_szczotki_drucianej:
00058b           	.BYTE 0x2
                 _powrot_przedwczesny_druciak:
00058d           	.BYTE 0x2
                 __seed_G101:
00058f           	.BYTE 0x4
                 
                 	.CSEG
                 ;OPTIMIZER ADDED SUBROUTINE, CALLED 8 TIMES, CODE SIZE REDUCTION:81 WORDS
                 SUBOPT_0x0:
002bb3 940e 32f1 	CALL _i2c_start
002bb5 81e8      	LD   R30,Y
002bb6 93ea      	ST   -Y,R30
002bb7 940e 3325 	CALL _i2c_write
002bb9 e0e0      	LDI  R30,LOW(0)
002bba 93ea      	ST   -Y,R30
002bbb 940e 330a 	CALL _i2c_read
002bbd 83ea      	STD  Y+2,R30
002bbe 940e 3300 	CALL _i2c_stop
002bc0 81ea      	LDD  R30,Y+2
002bc1 9508      	RET
                 
                 ;OPTIMIZER ADDED SUBROUTINE, CALLED 3 TIMES, CODE SIZE REDUCTION:1 WORDS
                 SUBOPT_0x1:
002bc2 95e2      	SWAP R30
002bc3 70ef      	ANDI R30,0xF
002bc4 95e6      	LSR  R30
002bc5 95e6      	LSR  R30
002bc6 9508      	RET
                 
                 ;OPTIMIZER ADDED SUBROUTINE, CALLED 5 TIMES, CODE SIZE REDUCTION:21 WORDS
                 SUBOPT_0x2:
002bc7 e5ea      	LDI  R30,LOW(90)
002bc8 93ea      	ST   -Y,R30
002bc9 940e 2a4c 	CALL _putchar
002bcb eae5      	LDI  R30,LOW(165)
002bcc 93ea      	ST   -Y,R30
002bcd 940c 2a4c 	JMP  _putchar
                 
                 ;OPTIMIZER ADDED SUBROUTINE, CALLED 2 TIMES, CODE SIZE REDUCTION:6 WORDS
                 SUBOPT_0x3:
002bcf 93ea      	ST   -Y,R30
002bd0 940e 2a4c 	CALL _putchar
002bd2 81ec      	LDD  R30,Y+4
002bd3 93ea      	ST   -Y,R30
002bd4 940e 2a4c 	CALL _putchar
002bd6 81ea      	LDD  R30,Y+2
002bd7 93ea      	ST   -Y,R30
002bd8 940c 2a4c 	JMP  _putchar
                 
                 ;OPTIMIZER ADDED SUBROUTINE, CALLED 3 TIMES, CODE SIZE REDUCTION:5 WORDS
                 SUBOPT_0x4:
002bda 940e 2a48 	CALL _getchar
002bdc 940e 2a48 	CALL _getchar
002bde 940c 2a48 	JMP  _getchar
                 
                 ;OPTIMIZER ADDED SUBROUTINE, CALLED 6 TIMES, CODE SIZE REDUCTION:27 WORDS
                 SUBOPT_0x5:
002be0 940e 3383 	CALL __GETD1P_INC
                +
002be2 5fef     +SUBI R30 , LOW ( - 1 )
002be3 4fff     +SBCI R31 , HIGH ( - 1 )
002be4 4f6f     +SBCI R22 , BYTE3 ( - 1 )
002be5 4f7f     +SBCI R23 , BYTE4 ( - 1 )
                 	__SUBD1N -1
002be6 940e 3388 	CALL __PUTDP1_DEC
002be8 9508      	RET
                 
                 ;OPTIMIZER ADDED SUBROUTINE, CALLED 2 TIMES, CODE SIZE REDUCTION:1 WORDS
                 SUBOPT_0x6:
002be9 91ed      	LD   R30,X+
002bea 91fd      	LD   R31,X+
002beb 9631      	ADIW R30,1
002bec 93fe      	ST   -X,R31
002bed 93ee      	ST   -X,R30
002bee 9731      	SBIW R30,1
002bef 9508      	RET
                 
                 ;OPTIMIZER ADDED SUBROUTINE, CALLED 2 TIMES, CODE SIZE REDUCTION:4 WORDS
                 SUBOPT_0x7:
002bf0 940e 3357 	CALL __CWD2
                +
002bf2 3da0     +CPI R26 , LOW ( 0x359D0 )
002bf3 e5e9     +LDI R30 , HIGH ( 0x359D0 )
002bf4 07be     +CPC R27 , R30
002bf5 e0e3     +LDI R30 , BYTE3 ( 0x359D0 )
002bf6 078e     +CPC R24 , R30
002bf7 e0e0     +LDI R30 , BYTE4 ( 0x359D0 )
002bf8 079e     +CPC R25 , R30
                 	__CPD2N 0x359D0
002bf9 9508      	RET
                 
                 ;OPTIMIZER ADDED SUBROUTINE, CALLED 3 TIMES, CODE SIZE REDUCTION:3 WORDS
                 SUBOPT_0x8:
002bfa e0e0      	LDI  R30,LOW(0)
002bfb 93e0 058b 	STS  _czas_pracy_szczotki_drucianej,R30
002bfd 93e0 058c 	STS  _czas_pracy_szczotki_drucianej+1,R30
002bff 9508      	RET
                 
                 ;OPTIMIZER ADDED SUBROUTINE, CALLED 5 TIMES, CODE SIZE REDUCTION:5 WORDS
                 SUBOPT_0x9:
002c00 e0a8      	LDI  R26,LOW(_czas_pracy_szczotki_drucianej_h)
002c01 e0b0      	LDI  R27,HIGH(_czas_pracy_szczotki_drucianej_h)
002c02 940e 3399 	CALL __EEPROMRDW
002c04 9508      	RET
                 
                 ;OPTIMIZER ADDED SUBROUTINE, CALLED 3 TIMES, CODE SIZE REDUCTION:3 WORDS
                 SUBOPT_0xA:
002c05 e0e0      	LDI  R30,LOW(0)
002c06 93e0 0589 	STS  _czas_pracy_krazka_sciernego,R30
002c08 93e0 058a 	STS  _czas_pracy_krazka_sciernego+1,R30
002c0a 9508      	RET
                 
                 ;OPTIMIZER ADDED SUBROUTINE, CALLED 5 TIMES, CODE SIZE REDUCTION:5 WORDS
                 SUBOPT_0xB:
002c0b e0a6      	LDI  R26,LOW(_czas_pracy_krazka_sciernego_h)
002c0c e0b0      	LDI  R27,HIGH(_czas_pracy_krazka_sciernego_h)
002c0d 940e 3399 	CALL __EEPROMRDW
002c0f 9508      	RET
                 
                 ;OPTIMIZER ADDED SUBROUTINE, CALLED 4 TIMES, CODE SIZE REDUCTION:3 WORDS
                 SUBOPT_0xC:
002c10 81ee      	LDD  R30,Y+6
002c11 81ff      	LDD  R31,Y+6+1
002c12 93fa      	ST   -Y,R31
002c13 93ea      	ST   -Y,R30
002c14 9508      	RET
                 
                 ;OPTIMIZER ADDED SUBROUTINE, CALLED 2 TIMES, CODE SIZE REDUCTION:1 WORDS
                 SUBOPT_0xD:
002c15 940e 2a4c 	CALL _putchar
002c17 e8e2      	LDI  R30,LOW(130)
002c18 93ea      	ST   -Y,R30
002c19 940c 2a4c 	JMP  _putchar
                 
                 ;OPTIMIZER ADDED SUBROUTINE, CALLED 18 TIMES, CODE SIZE REDUCTION:65 WORDS
                 SUBOPT_0xE:
002c1b 93fa      	ST   -Y,R31
002c1c 93ea      	ST   -Y,R30
002c1d e0e0      	LDI  R30,LOW(0)
002c1e e0f0      	LDI  R31,HIGH(0)
002c1f 93fa      	ST   -Y,R31
002c20 93ea      	ST   -Y,R30
002c21 9508      	RET
                 
                 ;OPTIMIZER ADDED SUBROUTINE, CALLED 6 TIMES, CODE SIZE REDUCTION:7 WORDS
                 SUBOPT_0xF:
002c22 e9e0      	LDI  R30,LOW(144)
002c23 e0f0      	LDI  R31,HIGH(144)
002c24 93fa      	ST   -Y,R31
002c25 93ea      	ST   -Y,R30
002c26 9508      	RET
                 
                 ;OPTIMIZER ADDED SUBROUTINE, CALLED 7 TIMES, CODE SIZE REDUCTION:21 WORDS
                 SUBOPT_0x10:
002c27 93fa      	ST   -Y,R31
002c28 93ea      	ST   -Y,R30
002c29 e1e0      	LDI  R30,LOW(16)
002c2a e0f0      	LDI  R31,HIGH(16)
002c2b 93fa      	ST   -Y,R31
002c2c 93ea      	ST   -Y,R30
002c2d 9508      	RET
                 
                 ;OPTIMIZER ADDED SUBROUTINE, CALLED 23 TIMES, CODE SIZE REDUCTION:41 WORDS
                 SUBOPT_0x11:
002c2e e3e0      	LDI  R30,LOW(48)
002c2f e0f0      	LDI  R31,HIGH(48)
002c30 93fa      	ST   -Y,R31
002c31 93ea      	ST   -Y,R30
002c32 9508      	RET
                 
                 ;OPTIMIZER ADDED SUBROUTINE, CALLED 3 TIMES, CODE SIZE REDUCTION:7 WORDS
                 SUBOPT_0x12:
002c33 85ac      	LDD  R26,Y+12
002c34 85bd      	LDD  R27,Y+12+1
002c35 e0e1      	LDI  R30,LOW(1)
002c36 e0f0      	LDI  R31,HIGH(1)
002c37 940e 3361 	CALL __EQW12
002c39 2e0e      	MOV  R0,R30
002c3a 9508      	RET
                 
                 ;OPTIMIZER ADDED SUBROUTINE, CALLED 154 TIMES, CODE SIZE REDUCTION:609 WORDS
                 SUBOPT_0x13:
002c3b e0ab      	LDI  R26,LOW(_macierz_zaciskow)
002c3c e0b5      	LDI  R27,HIGH(_macierz_zaciskow)
002c3d 0fee      	LSL  R30
002c3e 1fff      	ROL  R31
002c3f 0fae      	ADD  R26,R30
002c40 1fbf      	ADC  R27,R31
002c41 9508      	RET
                 
                 ;OPTIMIZER ADDED SUBROUTINE, CALLED 5 TIMES, CODE SIZE REDUCTION:45 WORDS
                 SUBOPT_0x14:
                +
002c42 eae0     +LDI R30 , LOW ( 2 * _0x0 + ( 0 ) )
002c43 e0f0     +LDI R31 , HIGH ( 2 * _0x0 + ( 0 ) )
                 	__POINTW1FN _0x0,0
002c44 93fa      	ST   -Y,R31
002c45 93ea      	ST   -Y,R30
002c46 85ea      	LDD  R30,Y+10
002c47 85fb      	LDD  R31,Y+10+1
002c48 93fa      	ST   -Y,R31
002c49 93ea      	ST   -Y,R30
002c4a 85ea      	LDD  R30,Y+10
002c4b 85fb      	LDD  R31,Y+10+1
002c4c 93fa      	ST   -Y,R31
002c4d 93ea      	ST   -Y,R30
002c4e 940c 04a8 	JMP  _komunikat_na_panel
                 
                 ;OPTIMIZER ADDED SUBROUTINE, CALLED 10 TIMES, CODE SIZE REDUCTION:15 WORDS
                 SUBOPT_0x15:
002c50 93fa      	ST   -Y,R31
002c51 93ea      	ST   -Y,R30
002c52 85ea      	LDD  R30,Y+10
002c53 85fb      	LDD  R31,Y+10+1
002c54 9508      	RET
                 
                 ;OPTIMIZER ADDED SUBROUTINE, CALLED 37 TIMES, CODE SIZE REDUCTION:69 WORDS
                 SUBOPT_0x16:
002c55 93fa      	ST   -Y,R31
002c56 93ea      	ST   -Y,R30
002c57 940c 04a8 	JMP  _komunikat_na_panel
                 
                 ;OPTIMIZER ADDED SUBROUTINE, CALLED 2 TIMES, CODE SIZE REDUCTION:2 WORDS
                 SUBOPT_0x17:
002c59 85aa      	LDD  R26,Y+10
002c5a 85bb      	LDD  R27,Y+10+1
002c5b e0e1      	LDI  R30,LOW(1)
002c5c e0f0      	LDI  R31,HIGH(1)
002c5d 940e 3361 	CALL __EQW12
002c5f 21e0      	AND  R30,R0
002c60 9508      	RET
                 
                 ;OPTIMIZER ADDED SUBROUTINE, CALLED 2 TIMES, CODE SIZE REDUCTION:2 WORDS
                 SUBOPT_0x18:
002c61 85aa      	LDD  R26,Y+10
002c62 85bb      	LDD  R27,Y+10+1
002c63 e0e0      	LDI  R30,LOW(0)
002c64 e0f0      	LDI  R31,HIGH(0)
002c65 940e 3361 	CALL __EQW12
002c67 21e0      	AND  R30,R0
002c68 9508      	RET
                 
                 ;OPTIMIZER ADDED SUBROUTINE, CALLED 2 TIMES, CODE SIZE REDUCTION:2 WORDS
                 SUBOPT_0x19:
002c69 85ac      	LDD  R26,Y+12
002c6a 85bd      	LDD  R27,Y+12+1
002c6b e0e2      	LDI  R30,LOW(2)
002c6c e0f0      	LDI  R31,HIGH(2)
002c6d 940e 3361 	CALL __EQW12
002c6f 2e0e      	MOV  R0,R30
002c70 9508      	RET
                 
                 ;OPTIMIZER ADDED SUBROUTINE, CALLED 7 TIMES, CODE SIZE REDUCTION:15 WORDS
                 SUBOPT_0x1A:
002c71 01df      	MOVW R26,R30
002c72 efef      	LDI  R30,LOW(255)
002c73 e0f0      	LDI  R31,HIGH(255)
002c74 940e 336d 	CALL __GEW12
002c76 9508      	RET
                 
                 ;OPTIMIZER ADDED SUBROUTINE, CALLED 3 TIMES, CODE SIZE REDUCTION:1 WORDS
                 SUBOPT_0x1B:
002c77 e0aa      	LDI  R26,LOW(_czas_pracy_krazka_sciernego_stala)
002c78 e0b0      	LDI  R27,HIGH(_czas_pracy_krazka_sciernego_stala)
002c79 940e 3399 	CALL __EEPROMRDW
002c7b 9508      	RET
                 
                 ;OPTIMIZER ADDED SUBROUTINE, CALLED 3 TIMES, CODE SIZE REDUCTION:1 WORDS
                 SUBOPT_0x1C:
002c7c e0ac      	LDI  R26,LOW(_czas_pracy_szczotki_drucianej_stala)
002c7d e0b0      	LDI  R27,HIGH(_czas_pracy_szczotki_drucianej_stala)
002c7e 940e 3399 	CALL __EEPROMRDW
002c80 9508      	RET
                 
                 ;OPTIMIZER ADDED SUBROUTINE, CALLED 7 TIMES, CODE SIZE REDUCTION:9 WORDS
                 SUBOPT_0x1D:
002c81 e0a0      	LDI  R26,LOW(_szczotka_druciana_ilosc_cykli)
002c82 e0b0      	LDI  R27,HIGH(_szczotka_druciana_ilosc_cykli)
002c83 940e 3399 	CALL __EEPROMRDW
002c85 9508      	RET
                 
                 ;OPTIMIZER ADDED SUBROUTINE, CALLED 5 TIMES, CODE SIZE REDUCTION:5 WORDS
                 SUBOPT_0x1E:
002c86 e0a2      	LDI  R26,LOW(_krazek_scierny_ilosc_cykli)
002c87 e0b0      	LDI  R27,HIGH(_krazek_scierny_ilosc_cykli)
002c88 940e 3399 	CALL __EEPROMRDW
002c8a 9508      	RET
                 
                 ;OPTIMIZER ADDED SUBROUTINE, CALLED 5 TIMES, CODE SIZE REDUCTION:5 WORDS
                 SUBOPT_0x1F:
002c8b e0a4      	LDI  R26,LOW(_krazek_scierny_cykl_po_okregu_ilosc)
002c8c e0b0      	LDI  R27,HIGH(_krazek_scierny_cykl_po_okregu_ilosc)
002c8d 940e 3399 	CALL __EEPROMRDW
002c8f 9508      	RET
                 
                 ;OPTIMIZER ADDED SUBROUTINE, CALLED 2 TIMES, CODE SIZE REDUCTION:1 WORDS
                 SUBOPT_0x20:
002c90 e0a8      	LDI  R26,LOW(_czas_pracy_szczotki_drucianej_h)
002c91 e0b0      	LDI  R27,HIGH(_czas_pracy_szczotki_drucianej_h)
002c92 e0e0      	LDI  R30,LOW(0)
002c93 e0f0      	LDI  R31,HIGH(0)
002c94 940e 33a9 	CALL __EEPROMWRW
002c96 9508      	RET
                 
                 ;OPTIMIZER ADDED SUBROUTINE, CALLED 2 TIMES, CODE SIZE REDUCTION:1 WORDS
                 SUBOPT_0x21:
002c97 e0a6      	LDI  R26,LOW(_czas_pracy_krazka_sciernego_h)
002c98 e0b0      	LDI  R27,HIGH(_czas_pracy_krazka_sciernego_h)
002c99 e0e0      	LDI  R30,LOW(0)
002c9a e0f0      	LDI  R31,HIGH(0)
002c9b 940e 33a9 	CALL __EEPROMWRW
002c9d 9508      	RET
                 
                 ;OPTIMIZER ADDED SUBROUTINE, CALLED 3 TIMES, CODE SIZE REDUCTION:1 WORDS
                 SUBOPT_0x22:
002c9e e0e3      	LDI  R30,LOW(3)
002c9f e0f0      	LDI  R31,HIGH(3)
002ca0 940e 33a9 	CALL __EEPROMWRW
002ca2 9508      	RET
                 
                 ;OPTIMIZER ADDED SUBROUTINE, CALLED 45 TIMES, CODE SIZE REDUCTION:261 WORDS
                 SUBOPT_0x23:
002ca3 e0e6      	LDI  R30,LOW(_PORTMM)
002ca4 e0f5      	LDI  R31,HIGH(_PORTMM)
002ca5 e0a1      	LDI  R26,1
002ca6 940e 3391 	CALL __PUTPARL
002ca8 e7e7      	LDI  R30,LOW(119)
002ca9 e0f0      	LDI  R31,HIGH(119)
002caa 93fa      	ST   -Y,R31
002cab 93ea      	ST   -Y,R30
002cac 9508      	RET
                 
                 ;OPTIMIZER ADDED SUBROUTINE, CALLED 106 TIMES, CODE SIZE REDUCTION:207 WORDS
                 SUBOPT_0x24:
002cad e0e0      	LDI  R30,LOW(0)
002cae e0f0      	LDI  R31,HIGH(0)
002caf 93fa      	ST   -Y,R31
002cb0 93ea      	ST   -Y,R30
002cb1 9508      	RET
                 
                 ;OPTIMIZER ADDED SUBROUTINE, CALLED 4 TIMES, CODE SIZE REDUCTION:9 WORDS
                 SUBOPT_0x25:
002cb2 e4e0      	LDI  R30,LOW(64)
002cb3 e0f0      	LDI  R31,HIGH(64)
002cb4 93fa      	ST   -Y,R31
002cb5 93ea      	ST   -Y,R30
002cb6 940c 0436 	JMP  _odczytaj_parametr
                 
                 ;OPTIMIZER ADDED SUBROUTINE, CALLED 3 TIMES, CODE SIZE REDUCTION:5 WORDS
                 SUBOPT_0x26:
002cb8 e8e0      	LDI  R30,LOW(128)
002cb9 e0f0      	LDI  R31,HIGH(128)
002cba 93fa      	ST   -Y,R31
002cbb 93ea      	ST   -Y,R30
002cbc 940c 0436 	JMP  _odczytaj_parametr
                 
                 ;OPTIMIZER ADDED SUBROUTINE, CALLED 2 TIMES, CODE SIZE REDUCTION:1 WORDS
                 SUBOPT_0x27:
002cbe 93e0 0531 	STS  _il_zaciskow_rzad_1,R30
002cc0 93f0 0532 	STS  _il_zaciskow_rzad_1+1,R31
002cc2 cfea      	RJMP SUBOPT_0x24
                 
                 ;OPTIMIZER ADDED SUBROUTINE, CALLED 2 TIMES, CODE SIZE REDUCTION:3 WORDS
                 SUBOPT_0x28:
002cc3 940e 0436 	CALL _odczytaj_parametr
002cc5 93e0 0533 	STS  _il_zaciskow_rzad_2,R30
002cc7 93f0 0534 	STS  _il_zaciskow_rzad_2+1,R31
002cc9 cf64      	RJMP SUBOPT_0x11
                 
                 ;OPTIMIZER ADDED SUBROUTINE, CALLED 2 TIMES, CODE SIZE REDUCTION:5 WORDS
                 SUBOPT_0x29:
002cca e0a0      	LDI  R26,LOW(_szczotka_druciana_ilosc_cykli)
002ccb e0b0      	LDI  R27,HIGH(_szczotka_druciana_ilosc_cykli)
002ccc 940e 33a9 	CALL __EEPROMWRW
002cce e2e0      	LDI  R30,LOW(32)
002ccf e0f0      	LDI  R31,HIGH(32)
002cd0 93fa      	ST   -Y,R31
002cd1 93ea      	ST   -Y,R30
002cd2 cf4f      	RJMP SUBOPT_0xF
                 
                 ;OPTIMIZER ADDED SUBROUTINE, CALLED 2 TIMES, CODE SIZE REDUCTION:5 WORDS
                 SUBOPT_0x2A:
002cd3 940e 0436 	CALL _odczytaj_parametr
002cd5 e0a2      	LDI  R26,LOW(_krazek_scierny_ilosc_cykli)
002cd6 e0b0      	LDI  R27,HIGH(_krazek_scierny_ilosc_cykli)
002cd7 940e 33a9 	CALL __EEPROMWRW
002cd9 e3e0      	LDI  R30,LOW(48)
002cda e0f0      	LDI  R31,HIGH(48)
002cdb cf3f      	RJMP SUBOPT_0xE
                 
                 ;OPTIMIZER ADDED SUBROUTINE, CALLED 2 TIMES, CODE SIZE REDUCTION:1 WORDS
                 SUBOPT_0x2B:
002cdc 940e 0436 	CALL _odczytaj_parametr
002cde e0a4      	LDI  R26,LOW(_krazek_scierny_cykl_po_okregu_ilosc)
002cdf e0b0      	LDI  R27,HIGH(_krazek_scierny_cykl_po_okregu_ilosc)
002ce0 940e 33a9 	CALL __EEPROMWRW
002ce2 9508      	RET
                 
                 ;OPTIMIZER ADDED SUBROUTINE, CALLED 4 TIMES, CODE SIZE REDUCTION:3 WORDS
                 SUBOPT_0x2C:
002ce3 e1e0      	LDI  R30,LOW(16)
002ce4 e0f0      	LDI  R31,HIGH(16)
002ce5 93fa      	ST   -Y,R31
002ce6 93ea      	ST   -Y,R30
002ce7 9508      	RET
                 
                 ;OPTIMIZER ADDED SUBROUTINE, CALLED 4 TIMES, CODE SIZE REDUCTION:3 WORDS
                 SUBOPT_0x2D:
002ce8 e7e0      	LDI  R30,LOW(112)
002ce9 e0f0      	LDI  R31,HIGH(112)
002cea 93fa      	ST   -Y,R31
002ceb 93ea      	ST   -Y,R30
002cec 9508      	RET
                 
                 ;OPTIMIZER ADDED SUBROUTINE, CALLED 4 TIMES, CODE SIZE REDUCTION:3 WORDS
                 SUBOPT_0x2E:
002ced e5e0      	LDI  R30,LOW(80)
002cee e0f0      	LDI  R31,HIGH(80)
002cef 93fa      	ST   -Y,R31
002cf0 93ea      	ST   -Y,R30
002cf1 9508      	RET
                 
                 ;OPTIMIZER ADDED SUBROUTINE, CALLED 6 TIMES, CODE SIZE REDUCTION:7 WORDS
                 SUBOPT_0x2F:
002cf2 e6e0      	LDI  R30,LOW(96)
002cf3 e0f0      	LDI  R31,HIGH(96)
002cf4 93fa      	ST   -Y,R31
002cf5 93ea      	ST   -Y,R30
002cf6 9508      	RET
                 
                 ;OPTIMIZER ADDED SUBROUTINE, CALLED 9 TIMES, CODE SIZE REDUCTION:45 WORDS
                 SUBOPT_0x30:
002cf7 e0e3      	LDI  R30,LOW(_PORTJJ)
002cf8 e0f5      	LDI  R31,HIGH(_PORTJJ)
002cf9 e0a1      	LDI  R26,1
002cfa 940e 3391 	CALL __PUTPARL
002cfc e7e9      	LDI  R30,LOW(121)
002cfd e0f0      	LDI  R31,HIGH(121)
002cfe 93fa      	ST   -Y,R31
002cff 93ea      	ST   -Y,R30
002d00 9508      	RET
                 
                 ;OPTIMIZER ADDED SUBROUTINE, CALLED 11 TIMES, CODE SIZE REDUCTION:137 WORDS
                 SUBOPT_0x31:
                +
002d01 eae0     +LDI R30 , LOW ( 2 * _0x0 + ( 0 ) )
002d02 e0f0     +LDI R31 , HIGH ( 2 * _0x0 + ( 0 ) )
                 	__POINTW1FN _0x0,0
002d03 93fa      	ST   -Y,R31
002d04 93ea      	ST   -Y,R30
002d05 91e0 053d 	LDS  R30,_adr1
002d07 91f0 053e 	LDS  R31,_adr1+1
002d09 93fa      	ST   -Y,R31
002d0a 93ea      	ST   -Y,R30
002d0b 91e0 053f 	LDS  R30,_adr2
002d0d 91f0 0540 	LDS  R31,_adr2+1
002d0f cf45      	RJMP SUBOPT_0x16
                 
                 ;OPTIMIZER ADDED SUBROUTINE, CALLED 12 TIMES, CODE SIZE REDUCTION:107 WORDS
                 SUBOPT_0x32:
002d10 91e0 053d 	LDS  R30,_adr1
002d12 91f0 053e 	LDS  R31,_adr1+1
002d14 93fa      	ST   -Y,R31
002d15 93ea      	ST   -Y,R30
002d16 91e0 053f 	LDS  R30,_adr2
002d18 91f0 0540 	LDS  R31,_adr2+1
002d1a cf3a      	RJMP SUBOPT_0x16
                 
                 ;OPTIMIZER ADDED SUBROUTINE, CALLED 16 TIMES, CODE SIZE REDUCTION:87 WORDS
                 SUBOPT_0x33:
002d1b e0e1      	LDI  R30,LOW(_PORTHH)
002d1c e0f5      	LDI  R31,HIGH(_PORTHH)
002d1d e0a1      	LDI  R26,1
002d1e 940e 3391 	CALL __PUTPARL
002d20 e7e3      	LDI  R30,LOW(115)
002d21 e0f0      	LDI  R31,HIGH(115)
002d22 93fa      	ST   -Y,R31
002d23 93ea      	ST   -Y,R30
002d24 9508      	RET
                 
                 ;OPTIMIZER ADDED SUBROUTINE, CALLED 7 TIMES, CODE SIZE REDUCTION:15 WORDS
                 SUBOPT_0x34:
002d25 29e0      	OR   R30,R0
002d26 93e0 0502 	STS  _PORT_CZYTNIK,R30
002d28 cff2      	RJMP SUBOPT_0x33
                 
                 ;OPTIMIZER ADDED SUBROUTINE, CALLED 13 TIMES, CODE SIZE REDUCTION:21 WORDS
                 SUBOPT_0x35:
002d29 e2e0      	LDI  R30,LOW(32)
002d2a e0f0      	LDI  R31,HIGH(32)
002d2b 93fa      	ST   -Y,R31
002d2c 93ea      	ST   -Y,R30
002d2d 9508      	RET
                 
                 ;OPTIMIZER ADDED SUBROUTINE, CALLED 145 TIMES, CODE SIZE REDUCTION:285 WORDS
                 SUBOPT_0x36:
002d2e 93fa      	ST   -Y,R31
002d2f 93ea      	ST   -Y,R30
002d30 931a      	ST   -Y,R17
002d31 930a      	ST   -Y,R16
002d32 9508      	RET
                 
                 ;OPTIMIZER ADDED SUBROUTINE, CALLED 69 TIMES, CODE SIZE REDUCTION:269 WORDS
                 SUBOPT_0x37:
002d33 e0e1      	LDI  R30,LOW(1)
002d34 e0f0      	LDI  R31,HIGH(1)
002d35 93fa      	ST   -Y,R31
002d36 93ea      	ST   -Y,R30
002d37 940c 04ec 	JMP  _komunikat_z_czytnika_kodow
                 
                 ;OPTIMIZER ADDED SUBROUTINE, CALLED 8 TIMES, CODE SIZE REDUCTION:18 WORDS
                 SUBOPT_0x38:
002d39 93ed      	ST   X+,R30
002d3a 93fc      	ST   X,R31
002d3b 01f8      	MOVW R30,R16
002d3c cefe      	RJMP SUBOPT_0x13
                 
                 ;OPTIMIZER ADDED SUBROUTINE, CALLED 9 TIMES, CODE SIZE REDUCTION:13 WORDS
                 SUBOPT_0x39:
002d3d e0e0      	LDI  R30,LOW(0)
002d3e e0f0      	LDI  R31,HIGH(0)
002d3f 93ed      	ST   X+,R30
002d40 93fc      	ST   X,R31
002d41 9508      	RET
                 
                 ;OPTIMIZER ADDED SUBROUTINE, CALLED 11 TIMES, CODE SIZE REDUCTION:17 WORDS
                 SUBOPT_0x3A:
002d42 93fa      	ST   -Y,R31
002d43 93ea      	ST   -Y,R30
002d44 cfcb      	RJMP SUBOPT_0x32
                 
                 ;OPTIMIZER ADDED SUBROUTINE, CALLED 136 TIMES, CODE SIZE REDUCTION:537 WORDS
                 SUBOPT_0x3B:
002d45 93e0 0565 	STS  _a,R30
002d47 93f0 0566 	STS  _a+1,R31
                +
002d49 e6eb     +LDI R30 , LOW ( _a + ( 6 ) )
002d4a e0f5     +LDI R31 , HIGH ( _a + ( 6 ) )
                 	__POINTW1MN _a,6
002d4b 9508      	RET
                 
                 ;OPTIMIZER ADDED SUBROUTINE, CALLED 106 TIMES, CODE SIZE REDUCTION:417 WORDS
                 SUBOPT_0x3C:
002d4c e1a1      	LDI  R26,LOW(17)
002d4d e0b0      	LDI  R27,HIGH(17)
002d4e 83a0      	STD  Z+0,R26
002d4f 83b1      	STD  Z+1,R27
                +
002d50 e6ed     +LDI R30 , LOW ( _a + ( 8 ) )
002d51 e0f5     +LDI R31 , HIGH ( _a + ( 8 ) )
                 	__POINTW1MN _a,8
002d52 9508      	RET
                 
                 ;OPTIMIZER ADDED SUBROUTINE, CALLED 8 TIMES, CODE SIZE REDUCTION:81 WORDS
                 SUBOPT_0x3D:
002d53 e1ab      	LDI  R26,LOW(27)
002d54 e0b0      	LDI  R27,HIGH(27)
002d55 83a0      	STD  Z+0,R26
002d56 83b1      	STD  Z+1,R27
                +
002d57 e6ef     +LDI R30 , LOW ( _a + ( 10 ) )
002d58 e0f5     +LDI R31 , HIGH ( _a + ( 10 ) )
                 	__POINTW1MN _a,10
002d59 e9a6      	LDI  R26,LOW(406)
002d5a e0b1      	LDI  R27,HIGH(406)
002d5b 83a0      	STD  Z+0,R26
002d5c 83b1      	STD  Z+1,R27
                +
002d5d e7e3     +LDI R30 , LOW ( _a + ( 14 ) )
002d5e e0f5     +LDI R31 , HIGH ( _a + ( 14 ) )
                 	__POINTW1MN _a,14
002d5f e1a1      	LDI  R26,LOW(17)
002d60 e0b0      	LDI  R27,HIGH(17)
002d61 9508      	RET
                 
                 ;OPTIMIZER ADDED SUBROUTINE, CALLED 25 TIMES, CODE SIZE REDUCTION:45 WORDS
                 SUBOPT_0x3E:
002d62 e1a0      	LDI  R26,LOW(16)
002d63 e0b0      	LDI  R27,HIGH(16)
002d64 83a0      	STD  Z+0,R26
002d65 83b1      	STD  Z+1,R27
002d66 9508      	RET
                 
                 ;OPTIMIZER ADDED SUBROUTINE, CALLED 3 TIMES, CODE SIZE REDUCTION:21 WORDS
                 SUBOPT_0x3F:
                +
002d67 e6ed     +LDI R30 , LOW ( _a + ( 8 ) )
002d68 e0f5     +LDI R31 , HIGH ( _a + ( 8 ) )
                 	__POINTW1MN _a,8
002d69 e1ac      	LDI  R26,LOW(28)
002d6a e0b0      	LDI  R27,HIGH(28)
002d6b 83a0      	STD  Z+0,R26
002d6c 83b1      	STD  Z+1,R27
                +
002d6d e6ef     +LDI R30 , LOW ( _a + ( 10 ) )
002d6e e0f5     +LDI R31 , HIGH ( _a + ( 10 ) )
                 	__POINTW1MN _a,10
002d6f e9a0      	LDI  R26,LOW(400)
002d70 e0b1      	LDI  R27,HIGH(400)
002d71 83a0      	STD  Z+0,R26
002d72 83b1      	STD  Z+1,R27
                +
002d73 e7e3     +LDI R30 , LOW ( _a + ( 14 ) )
002d74 e0f5     +LDI R31 , HIGH ( _a + ( 14 ) )
                 	__POINTW1MN _a,14
002d75 9508      	RET
                 
                 ;OPTIMIZER ADDED SUBROUTINE, CALLED 76 TIMES, CODE SIZE REDUCTION:147 WORDS
                 SUBOPT_0x40:
                +
002d76 e7e7     +LDI R30 , LOW ( _a + ( 18 ) )
002d77 e0f5     +LDI R31 , HIGH ( _a + ( 18 ) )
                 	__POINTW1MN _a,18
002d78 e0a0      	LDI  R26,LOW(0)
002d79 e0b0      	LDI  R27,HIGH(0)
002d7a 9508      	RET
                 
                 ;OPTIMIZER ADDED SUBROUTINE, CALLED 5 TIMES, CODE SIZE REDUCTION:21 WORDS
                 SUBOPT_0x41:
002d7b e1a8      	LDI  R26,LOW(24)
002d7c e0b0      	LDI  R27,HIGH(24)
002d7d 83a0      	STD  Z+0,R26
002d7e 83b1      	STD  Z+1,R27
                +
002d7f e6ef     +LDI R30 , LOW ( _a + ( 10 ) )
002d80 e0f5     +LDI R31 , HIGH ( _a + ( 10 ) )
                 	__POINTW1MN _a,10
002d81 e9a6      	LDI  R26,LOW(406)
002d82 e0b1      	LDI  R27,HIGH(406)
002d83 9508      	RET
                 
                 ;OPTIMIZER ADDED SUBROUTINE, CALLED 35 TIMES, CODE SIZE REDUCTION:269 WORDS
                 SUBOPT_0x42:
002d84 83a0      	STD  Z+0,R26
002d85 83b1      	STD  Z+1,R27
                +
002d86 e7e3     +LDI R30 , LOW ( _a + ( 14 ) )
002d87 e0f5     +LDI R31 , HIGH ( _a + ( 14 ) )
                 	__POINTW1MN _a,14
002d88 e1a2      	LDI  R26,LOW(18)
002d89 e0b0      	LDI  R27,HIGH(18)
002d8a 83a0      	STD  Z+0,R26
002d8b 83b1      	STD  Z+1,R27
002d8c cfe9      	RJMP SUBOPT_0x40
                 
                 ;OPTIMIZER ADDED SUBROUTINE, CALLED 11 TIMES, CODE SIZE REDUCTION:57 WORDS
                 SUBOPT_0x43:
002d8d e1af      	LDI  R26,LOW(31)
002d8e e0b0      	LDI  R27,HIGH(31)
002d8f 83a0      	STD  Z+0,R26
002d90 83b1      	STD  Z+1,R27
                +
002d91 e6ef     +LDI R30 , LOW ( _a + ( 10 ) )
002d92 e0f5     +LDI R31 , HIGH ( _a + ( 10 ) )
                 	__POINTW1MN _a,10
002d93 e9a6      	LDI  R26,LOW(406)
002d94 e0b1      	LDI  R27,HIGH(406)
002d95 9508      	RET
                 
                 ;OPTIMIZER ADDED SUBROUTINE, CALLED 35 TIMES, CODE SIZE REDUCTION:65 WORDS
                 SUBOPT_0x44:
002d96 83a0      	STD  Z+0,R26
002d97 83b1      	STD  Z+1,R27
002d98 cfdd      	RJMP SUBOPT_0x40
                 
                 ;OPTIMIZER ADDED SUBROUTINE, CALLED 23 TIMES, CODE SIZE REDUCTION:85 WORDS
                 SUBOPT_0x45:
002d99 83a0      	STD  Z+0,R26
002d9a 83b1      	STD  Z+1,R27
                +
002d9b e7e3     +LDI R30 , LOW ( _a + ( 14 ) )
002d9c e0f5     +LDI R31 , HIGH ( _a + ( 14 ) )
                 	__POINTW1MN _a,14
002d9d e1a1      	LDI  R26,LOW(17)
002d9e e0b0      	LDI  R27,HIGH(17)
002d9f 9508      	RET
                 
                 ;OPTIMIZER ADDED SUBROUTINE, CALLED 4 TIMES, CODE SIZE REDUCTION:15 WORDS
                 SUBOPT_0x46:
002da0 e1af      	LDI  R26,LOW(31)
002da1 e0b0      	LDI  R27,HIGH(31)
002da2 83a0      	STD  Z+0,R26
002da3 83b1      	STD  Z+1,R27
                +
002da4 e6ef     +LDI R30 , LOW ( _a + ( 10 ) )
002da5 e0f5     +LDI R31 , HIGH ( _a + ( 10 ) )
                 	__POINTW1MN _a,10
002da6 e9a9      	LDI  R26,LOW(409)
002da7 e0b1      	LDI  R27,HIGH(409)
002da8 9508      	RET
                 
                 ;OPTIMIZER ADDED SUBROUTINE, CALLED 2 TIMES, CODE SIZE REDUCTION:3 WORDS
                 SUBOPT_0x47:
002da9 e1a9      	LDI  R26,LOW(25)
002daa e0b0      	LDI  R27,HIGH(25)
002dab 83a0      	STD  Z+0,R26
002dac 83b1      	STD  Z+1,R27
                +
002dad e6ef     +LDI R30 , LOW ( _a + ( 10 ) )
002dae e0f5     +LDI R31 , HIGH ( _a + ( 10 ) )
                 	__POINTW1MN _a,10
002daf e9a9      	LDI  R26,LOW(409)
002db0 e0b1      	LDI  R27,HIGH(409)
002db1 9508      	RET
                 
                 ;OPTIMIZER ADDED SUBROUTINE, CALLED 7 TIMES, CODE SIZE REDUCTION:33 WORDS
                 SUBOPT_0x48:
002db2 e2a1      	LDI  R26,LOW(33)
002db3 e0b0      	LDI  R27,HIGH(33)
002db4 83a0      	STD  Z+0,R26
002db5 83b1      	STD  Z+1,R27
                +
002db6 e6ef     +LDI R30 , LOW ( _a + ( 10 ) )
002db7 e0f5     +LDI R31 , HIGH ( _a + ( 10 ) )
                 	__POINTW1MN _a,10
002db8 e9a9      	LDI  R26,LOW(409)
002db9 e0b1      	LDI  R27,HIGH(409)
002dba 9508      	RET
                 
                 ;OPTIMIZER ADDED SUBROUTINE, CALLED 3 TIMES, CODE SIZE REDUCTION:13 WORDS
                 SUBOPT_0x49:
002dbb e2a0      	LDI  R26,LOW(32)
002dbc e0b0      	LDI  R27,HIGH(32)
002dbd 83a0      	STD  Z+0,R26
002dbe 83b1      	STD  Z+1,R27
                +
002dbf e6ef     +LDI R30 , LOW ( _a + ( 10 ) )
002dc0 e0f5     +LDI R31 , HIGH ( _a + ( 10 ) )
                 	__POINTW1MN _a,10
002dc1 e9a9      	LDI  R26,LOW(409)
002dc2 e0b1      	LDI  R27,HIGH(409)
002dc3 cfc0      	RJMP SUBOPT_0x42
                 
                 ;OPTIMIZER ADDED SUBROUTINE, CALLED 2 TIMES, CODE SIZE REDUCTION:9 WORDS
                 SUBOPT_0x4A:
                +
002dc4 e6ed     +LDI R30 , LOW ( _a + ( 8 ) )
002dc5 e0f5     +LDI R31 , HIGH ( _a + ( 8 ) )
                 	__POINTW1MN _a,8
002dc6 e1a6      	LDI  R26,LOW(22)
002dc7 e0b0      	LDI  R27,HIGH(22)
002dc8 83a0      	STD  Z+0,R26
002dc9 83b1      	STD  Z+1,R27
                +
002dca e6ef     +LDI R30 , LOW ( _a + ( 10 ) )
002dcb e0f5     +LDI R31 , HIGH ( _a + ( 10 ) )
                 	__POINTW1MN _a,10
002dcc e9a0      	LDI  R26,LOW(400)
002dcd e0b1      	LDI  R27,HIGH(400)
002dce 83a0      	STD  Z+0,R26
002dcf 83b1      	STD  Z+1,R27
                +
002dd0 e7e3     +LDI R30 , LOW ( _a + ( 14 ) )
002dd1 e0f5     +LDI R31 , HIGH ( _a + ( 14 ) )
                 	__POINTW1MN _a,14
002dd2 9508      	RET
                 
                 ;OPTIMIZER ADDED SUBROUTINE, CALLED 7 TIMES, CODE SIZE REDUCTION:21 WORDS
                 SUBOPT_0x4B:
002dd3 e1ad      	LDI  R26,LOW(29)
002dd4 e0b0      	LDI  R27,HIGH(29)
002dd5 83a0      	STD  Z+0,R26
002dd6 83b1      	STD  Z+1,R27
                +
002dd7 e6ef     +LDI R30 , LOW ( _a + ( 10 ) )
002dd8 e0f5     +LDI R31 , HIGH ( _a + ( 10 ) )
                 	__POINTW1MN _a,10
002dd9 9508      	RET
                 
                 ;OPTIMIZER ADDED SUBROUTINE, CALLED 4 TIMES, CODE SIZE REDUCTION:3 WORDS
                 SUBOPT_0x4C:
002dda e9a9      	LDI  R26,LOW(409)
002ddb e0b1      	LDI  R27,HIGH(409)
002ddc cfa7      	RJMP SUBOPT_0x42
                 
                 ;OPTIMIZER ADDED SUBROUTINE, CALLED 11 TIMES, CODE SIZE REDUCTION:57 WORDS
                 SUBOPT_0x4D:
002ddd e9a0      	LDI  R26,LOW(400)
002dde e0b1      	LDI  R27,HIGH(400)
002ddf 83a0      	STD  Z+0,R26
002de0 83b1      	STD  Z+1,R27
                +
002de1 e7e3     +LDI R30 , LOW ( _a + ( 14 ) )
002de2 e0f5     +LDI R31 , HIGH ( _a + ( 14 ) )
                 	__POINTW1MN _a,14
002de3 e0af      	LDI  R26,LOW(15)
002de4 e0b0      	LDI  R27,HIGH(15)
002de5 9508      	RET
                 
                 ;OPTIMIZER ADDED SUBROUTINE, CALLED 3 TIMES, CODE SIZE REDUCTION:13 WORDS
                 SUBOPT_0x4E:
002de6 e1a8      	LDI  R26,LOW(24)
002de7 e0b0      	LDI  R27,HIGH(24)
002de8 83a0      	STD  Z+0,R26
002de9 83b1      	STD  Z+1,R27
                +
002dea e6ef     +LDI R30 , LOW ( _a + ( 10 ) )
002deb e0f5     +LDI R31 , HIGH ( _a + ( 10 ) )
                 	__POINTW1MN _a,10
002dec e9a0      	LDI  R26,LOW(400)
002ded e0b1      	LDI  R27,HIGH(400)
002dee cfaa      	RJMP SUBOPT_0x45
                 
                 ;OPTIMIZER ADDED SUBROUTINE, CALLED 6 TIMES, CODE SIZE REDUCTION:17 WORDS
                 SUBOPT_0x4F:
002def e2a0      	LDI  R26,LOW(32)
002df0 e0b0      	LDI  R27,HIGH(32)
002df1 83a0      	STD  Z+0,R26
002df2 83b1      	STD  Z+1,R27
                +
002df3 e6ef     +LDI R30 , LOW ( _a + ( 10 ) )
002df4 e0f5     +LDI R31 , HIGH ( _a + ( 10 ) )
                 	__POINTW1MN _a,10
002df5 9508      	RET
                 
                 ;OPTIMIZER ADDED SUBROUTINE, CALLED 7 TIMES, CODE SIZE REDUCTION:21 WORDS
                 SUBOPT_0x50:
002df6 e2a1      	LDI  R26,LOW(33)
002df7 e0b0      	LDI  R27,HIGH(33)
002df8 83a0      	STD  Z+0,R26
002df9 83b1      	STD  Z+1,R27
                +
002dfa e6ef     +LDI R30 , LOW ( _a + ( 10 ) )
002dfb e0f5     +LDI R31 , HIGH ( _a + ( 10 ) )
                 	__POINTW1MN _a,10
002dfc 9508      	RET
                 
                 ;OPTIMIZER ADDED SUBROUTINE, CALLED 10 TIMES, CODE SIZE REDUCTION:15 WORDS
                 SUBOPT_0x51:
002dfd e9a6      	LDI  R26,LOW(406)
002dfe e0b1      	LDI  R27,HIGH(406)
002dff cf84      	RJMP SUBOPT_0x42
                 
                 ;OPTIMIZER ADDED SUBROUTINE, CALLED 8 TIMES, CODE SIZE REDUCTION:39 WORDS
                 SUBOPT_0x52:
002e00 e1ae      	LDI  R26,LOW(30)
002e01 e0b0      	LDI  R27,HIGH(30)
002e02 83a0      	STD  Z+0,R26
002e03 83b1      	STD  Z+1,R27
                +
002e04 e6ef     +LDI R30 , LOW ( _a + ( 10 ) )
002e05 e0f5     +LDI R31 , HIGH ( _a + ( 10 ) )
                 	__POINTW1MN _a,10
002e06 cfd6      	RJMP SUBOPT_0x4D
                 
                 ;OPTIMIZER ADDED SUBROUTINE, CALLED 2 TIMES, CODE SIZE REDUCTION:13 WORDS
                 SUBOPT_0x53:
002e07 e1a2      	LDI  R26,LOW(18)
002e08 e0b0      	LDI  R27,HIGH(18)
002e09 83a0      	STD  Z+0,R26
002e0a 83b1      	STD  Z+1,R27
                +
002e0b e6ed     +LDI R30 , LOW ( _a + ( 8 ) )
002e0c e0f5     +LDI R31 , HIGH ( _a + ( 8 ) )
                 	__POINTW1MN _a,8
002e0d e2a2      	LDI  R26,LOW(34)
002e0e e0b0      	LDI  R27,HIGH(34)
002e0f 83a0      	STD  Z+0,R26
002e10 83b1      	STD  Z+1,R27
                +
002e11 e6ef     +LDI R30 , LOW ( _a + ( 10 ) )
002e12 e0f5     +LDI R31 , HIGH ( _a + ( 10 ) )
                 	__POINTW1MN _a,10
002e13 e9a6      	LDI  R26,LOW(406)
002e14 e0b1      	LDI  R27,HIGH(406)
002e15 83a0      	STD  Z+0,R26
002e16 83b1      	STD  Z+1,R27
                +
002e17 e7e3     +LDI R30 , LOW ( _a + ( 14 ) )
002e18 e0f5     +LDI R31 , HIGH ( _a + ( 14 ) )
                 	__POINTW1MN _a,14
002e19 9508      	RET
                 
                 ;OPTIMIZER ADDED SUBROUTINE, CALLED 4 TIMES, CODE SIZE REDUCTION:3 WORDS
                 SUBOPT_0x54:
002e1a e9ac      	LDI  R26,LOW(412)
002e1b e0b1      	LDI  R27,HIGH(412)
002e1c cf67      	RJMP SUBOPT_0x42
                 
                 ;OPTIMIZER ADDED SUBROUTINE, CALLED 2 TIMES, CODE SIZE REDUCTION:7 WORDS
                 SUBOPT_0x55:
                +
002e1d e6ed     +LDI R30 , LOW ( _a + ( 8 ) )
002e1e e0f5     +LDI R31 , HIGH ( _a + ( 8 ) )
                 	__POINTW1MN _a,8
002e1f e1ae      	LDI  R26,LOW(30)
002e20 e0b0      	LDI  R27,HIGH(30)
002e21 83a0      	STD  Z+0,R26
002e22 83b1      	STD  Z+1,R27
                +
002e23 e6ef     +LDI R30 , LOW ( _a + ( 10 ) )
002e24 e0f5     +LDI R31 , HIGH ( _a + ( 10 ) )
                 	__POINTW1MN _a,10
002e25 e9a6      	LDI  R26,LOW(406)
002e26 e0b1      	LDI  R27,HIGH(406)
002e27 cf71      	RJMP SUBOPT_0x45
                 
                 ;OPTIMIZER ADDED SUBROUTINE, CALLED 8 TIMES, CODE SIZE REDUCTION:186 WORDS
                 SUBOPT_0x56:
002e28 e0e0      	LDI  R30,LOW(0)
002e29 93e0 0565 	STS  _a,R30
002e2b 93e0 0566 	STS  _a+1,R30
                +
002e2d e6eb     +LDI R30 , LOW ( _a + ( 6 ) )
002e2e e0f5     +LDI R31 , HIGH ( _a + ( 6 ) )
                 	__POINTW1MN _a,6
002e2f e0a0      	LDI  R26,LOW(0)
002e30 e0b0      	LDI  R27,HIGH(0)
002e31 83a0      	STD  Z+0,R26
002e32 83b1      	STD  Z+1,R27
                +
002e33 e6ed     +LDI R30 , LOW ( _a + ( 8 ) )
002e34 e0f5     +LDI R31 , HIGH ( _a + ( 8 ) )
                 	__POINTW1MN _a,8
002e35 83a0      	STD  Z+0,R26
002e36 83b1      	STD  Z+1,R27
                +
002e37 e6ef     +LDI R30 , LOW ( _a + ( 10 ) )
002e38 e0f5     +LDI R31 , HIGH ( _a + ( 10 ) )
                 	__POINTW1MN _a,10
002e39 83a0      	STD  Z+0,R26
002e3a 83b1      	STD  Z+1,R27
                +
002e3b e7e3     +LDI R30 , LOW ( _a + ( 14 ) )
002e3c e0f5     +LDI R31 , HIGH ( _a + ( 14 ) )
                 	__POINTW1MN _a,14
002e3d cf58      	RJMP SUBOPT_0x44
                 
                 ;OPTIMIZER ADDED SUBROUTINE, CALLED 3 TIMES, CODE SIZE REDUCTION:5 WORDS
                 SUBOPT_0x57:
002e3e e1ab      	LDI  R26,LOW(27)
002e3f e0b0      	LDI  R27,HIGH(27)
002e40 83a0      	STD  Z+0,R26
002e41 83b1      	STD  Z+1,R27
                +
002e42 e6ef     +LDI R30 , LOW ( _a + ( 10 ) )
002e43 e0f5     +LDI R31 , HIGH ( _a + ( 10 ) )
                 	__POINTW1MN _a,10
002e44 9508      	RET
                 
                 ;OPTIMIZER ADDED SUBROUTINE, CALLED 2 TIMES, CODE SIZE REDUCTION:9 WORDS
                 SUBOPT_0x58:
002e45 e1a9      	LDI  R26,LOW(25)
002e46 e0b0      	LDI  R27,HIGH(25)
002e47 83a0      	STD  Z+0,R26
002e48 83b1      	STD  Z+1,R27
                +
002e49 e6ef     +LDI R30 , LOW ( _a + ( 10 ) )
002e4a e0f5     +LDI R31 , HIGH ( _a + ( 10 ) )
                 	__POINTW1MN _a,10
002e4b e9a0      	LDI  R26,LOW(400)
002e4c e0b1      	LDI  R27,HIGH(400)
002e4d 83a0      	STD  Z+0,R26
002e4e 83b1      	STD  Z+1,R27
                +
002e4f e7e3     +LDI R30 , LOW ( _a + ( 14 ) )
002e50 e0f5     +LDI R31 , HIGH ( _a + ( 14 ) )
                 	__POINTW1MN _a,14
002e51 e1a3      	LDI  R26,LOW(19)
002e52 e0b0      	LDI  R27,HIGH(19)
002e53 9508      	RET
                 
                 ;OPTIMIZER ADDED SUBROUTINE, CALLED 2 TIMES, CODE SIZE REDUCTION:5 WORDS
                 SUBOPT_0x59:
002e54 e1a9      	LDI  R26,LOW(25)
002e55 e0b0      	LDI  R27,HIGH(25)
002e56 83a0      	STD  Z+0,R26
002e57 83b1      	STD  Z+1,R27
                +
002e58 e6ef     +LDI R30 , LOW ( _a + ( 10 ) )
002e59 e0f5     +LDI R31 , HIGH ( _a + ( 10 ) )
                 	__POINTW1MN _a,10
002e5a e9a0      	LDI  R26,LOW(400)
002e5b e0b1      	LDI  R27,HIGH(400)
002e5c cf3c      	RJMP SUBOPT_0x45
                 
                 ;OPTIMIZER ADDED SUBROUTINE, CALLED 9 TIMES, CODE SIZE REDUCTION:29 WORDS
                 SUBOPT_0x5A:
002e5d e1ac      	LDI  R26,LOW(28)
002e5e e0b0      	LDI  R27,HIGH(28)
002e5f 83a0      	STD  Z+0,R26
002e60 83b1      	STD  Z+1,R27
                +
002e61 e6ef     +LDI R30 , LOW ( _a + ( 10 ) )
002e62 e0f5     +LDI R31 , HIGH ( _a + ( 10 ) )
                 	__POINTW1MN _a,10
002e63 9508      	RET
                 
                 ;OPTIMIZER ADDED SUBROUTINE, CALLED 3 TIMES, CODE SIZE REDUCTION:5 WORDS
                 SUBOPT_0x5B:
002e64 e1aa      	LDI  R26,LOW(26)
002e65 e0b0      	LDI  R27,HIGH(26)
002e66 83a0      	STD  Z+0,R26
002e67 83b1      	STD  Z+1,R27
                +
002e68 e6ef     +LDI R30 , LOW ( _a + ( 10 ) )
002e69 e0f5     +LDI R31 , HIGH ( _a + ( 10 ) )
                 	__POINTW1MN _a,10
002e6a 9508      	RET
                 
                 ;OPTIMIZER ADDED SUBROUTINE, CALLED 2 TIMES, CODE SIZE REDUCTION:3 WORDS
                 SUBOPT_0x5C:
002e6b e1a6      	LDI  R26,LOW(22)
002e6c e0b0      	LDI  R27,HIGH(22)
002e6d 83a0      	STD  Z+0,R26
002e6e 83b1      	STD  Z+1,R27
                +
002e6f e6ef     +LDI R30 , LOW ( _a + ( 10 ) )
002e70 e0f5     +LDI R31 , HIGH ( _a + ( 10 ) )
                 	__POINTW1MN _a,10
002e71 e9a3      	LDI  R26,LOW(403)
002e72 e0b1      	LDI  R27,HIGH(403)
002e73 9508      	RET
                 
                 ;OPTIMIZER ADDED SUBROUTINE, CALLED 9 TIMES, CODE SIZE REDUCTION:13 WORDS
                 SUBOPT_0x5D:
002e74 e9a6      	LDI  R26,LOW(406)
002e75 e0b1      	LDI  R27,HIGH(406)
002e76 cf22      	RJMP SUBOPT_0x45
                 
                 ;OPTIMIZER ADDED SUBROUTINE, CALLED 6 TIMES, CODE SIZE REDUCTION:17 WORDS
                 SUBOPT_0x5E:
002e77 e1ae      	LDI  R26,LOW(30)
002e78 e0b0      	LDI  R27,HIGH(30)
002e79 83a0      	STD  Z+0,R26
002e7a 83b1      	STD  Z+1,R27
                +
002e7b e6ef     +LDI R30 , LOW ( _a + ( 10 ) )
002e7c e0f5     +LDI R31 , HIGH ( _a + ( 10 ) )
                 	__POINTW1MN _a,10
002e7d 9508      	RET
                 
                 ;OPTIMIZER ADDED SUBROUTINE, CALLED 2 TIMES, CODE SIZE REDUCTION:3 WORDS
                 SUBOPT_0x5F:
002e7e e1a9      	LDI  R26,LOW(25)
002e7f e0b0      	LDI  R27,HIGH(25)
002e80 83a0      	STD  Z+0,R26
002e81 83b1      	STD  Z+1,R27
                +
002e82 e6ef     +LDI R30 , LOW ( _a + ( 10 ) )
002e83 e0f5     +LDI R31 , HIGH ( _a + ( 10 ) )
                 	__POINTW1MN _a,10
002e84 e9a3      	LDI  R26,LOW(403)
002e85 e0b1      	LDI  R27,HIGH(403)
002e86 9508      	RET
                 
                 ;OPTIMIZER ADDED SUBROUTINE, CALLED 2 TIMES, CODE SIZE REDUCTION:3 WORDS
                 SUBOPT_0x60:
002e87 e1a4      	LDI  R26,LOW(20)
002e88 e0b0      	LDI  R27,HIGH(20)
002e89 83a0      	STD  Z+0,R26
002e8a 83b1      	STD  Z+1,R27
                +
002e8b e6ef     +LDI R30 , LOW ( _a + ( 10 ) )
002e8c e0f5     +LDI R31 , HIGH ( _a + ( 10 ) )
                 	__POINTW1MN _a,10
002e8d e9a0      	LDI  R26,LOW(400)
002e8e e0b1      	LDI  R27,HIGH(400)
002e8f 9508      	RET
                 
                 ;OPTIMIZER ADDED SUBROUTINE, CALLED 21 TIMES, CODE SIZE REDUCTION:37 WORDS
                 SUBOPT_0x61:
002e90 83a0      	STD  Z+0,R26
002e91 83b1      	STD  Z+1,R27
                +
002e92 e6ef     +LDI R30 , LOW ( _a + ( 10 ) )
002e93 e0f5     +LDI R31 , HIGH ( _a + ( 10 ) )
                 	__POINTW1MN _a,10
002e94 9508      	RET
                 
                 ;OPTIMIZER ADDED SUBROUTINE, CALLED 2 TIMES, CODE SIZE REDUCTION:5 WORDS
                 SUBOPT_0x62:
002e95 e1a2      	LDI  R26,LOW(18)
002e96 e0b0      	LDI  R27,HIGH(18)
002e97 83a0      	STD  Z+0,R26
002e98 83b1      	STD  Z+1,R27
                +
002e99 e6ed     +LDI R30 , LOW ( _a + ( 8 ) )
002e9a e0f5     +LDI R31 , HIGH ( _a + ( 8 ) )
                 	__POINTW1MN _a,8
002e9b e2a4      	LDI  R26,LOW(36)
002e9c e0b0      	LDI  R27,HIGH(36)
002e9d cff2      	RJMP SUBOPT_0x61
                 
                 ;OPTIMIZER ADDED SUBROUTINE, CALLED 6 TIMES, CODE SIZE REDUCTION:17 WORDS
                 SUBOPT_0x63:
002e9e e9a6      	LDI  R26,LOW(406)
002e9f e0b1      	LDI  R27,HIGH(406)
002ea0 83a0      	STD  Z+0,R26
002ea1 83b1      	STD  Z+1,R27
                +
002ea2 e7e3     +LDI R30 , LOW ( _a + ( 14 ) )
002ea3 e0f5     +LDI R31 , HIGH ( _a + ( 14 ) )
                 	__POINTW1MN _a,14
002ea4 9508      	RET
                 
                 ;OPTIMIZER ADDED SUBROUTINE, CALLED 3 TIMES, CODE SIZE REDUCTION:1 WORDS
                 SUBOPT_0x64:
002ea5 e2a3      	LDI  R26,LOW(35)
002ea6 e0b0      	LDI  R27,HIGH(35)
002ea7 cfe8      	RJMP SUBOPT_0x61
                 
                 ;OPTIMIZER ADDED SUBROUTINE, CALLED 2 TIMES, CODE SIZE REDUCTION:1 WORDS
                 SUBOPT_0x65:
002ea8 83a0      	STD  Z+0,R26
002ea9 83b1      	STD  Z+1,R27
                +
002eaa e7e3     +LDI R30 , LOW ( _a + ( 14 ) )
002eab e0f5     +LDI R31 , HIGH ( _a + ( 14 ) )
                 	__POINTW1MN _a,14
002eac e0af      	LDI  R26,LOW(15)
002ead e0b0      	LDI  R27,HIGH(15)
002eae 9508      	RET
                 
                 ;OPTIMIZER ADDED SUBROUTINE, CALLED 4 TIMES, CODE SIZE REDUCTION:3 WORDS
                 SUBOPT_0x66:
002eaf e1af      	LDI  R26,LOW(31)
002eb0 e0b0      	LDI  R27,HIGH(31)
002eb1 cfde      	RJMP SUBOPT_0x61
                 
                 ;OPTIMIZER ADDED SUBROUTINE, CALLED 4 TIMES, CODE SIZE REDUCTION:3 WORDS
                 SUBOPT_0x67:
002eb2 e1a9      	LDI  R26,LOW(25)
002eb3 e0b0      	LDI  R27,HIGH(25)
002eb4 cfdb      	RJMP SUBOPT_0x61
                 
                 ;OPTIMIZER ADDED SUBROUTINE, CALLED 3 TIMES, CODE SIZE REDUCTION:1 WORDS
                 SUBOPT_0x68:
                +
002eb5 e6ed     +LDI R30 , LOW ( _a + ( 8 ) )
002eb6 e0f5     +LDI R31 , HIGH ( _a + ( 8 ) )
                 	__POINTW1MN _a,8
002eb7 cf1b      	RJMP SUBOPT_0x4B
                 
                 ;OPTIMIZER ADDED SUBROUTINE, CALLED 2 TIMES, CODE SIZE REDUCTION:3 WORDS
                 SUBOPT_0x69:
002eb8 e1a2      	LDI  R26,LOW(18)
002eb9 e0b0      	LDI  R27,HIGH(18)
002eba 83a0      	STD  Z+0,R26
002ebb 83b1      	STD  Z+1,R27
                +
002ebc e6ed     +LDI R30 , LOW ( _a + ( 8 ) )
002ebd e0f5     +LDI R31 , HIGH ( _a + ( 8 ) )
                 	__POINTW1MN _a,8
002ebe cff0      	RJMP SUBOPT_0x66
                 
                 ;OPTIMIZER ADDED SUBROUTINE, CALLED 3 TIMES, CODE SIZE REDUCTION:5 WORDS
                 SUBOPT_0x6A:
                +
002ebf e6ed     +LDI R30 , LOW ( _a + ( 8 ) )
002ec0 e0f5     +LDI R31 , HIGH ( _a + ( 8 ) )
                 	__POINTW1MN _a,8
002ec1 e1a7      	LDI  R26,LOW(23)
002ec2 e0b0      	LDI  R27,HIGH(23)
002ec3 cfcc      	RJMP SUBOPT_0x61
                 
                 ;OPTIMIZER ADDED SUBROUTINE, CALLED 2 TIMES, CODE SIZE REDUCTION:3 WORDS
                 SUBOPT_0x6B:
002ec4 e9a3      	LDI  R26,LOW(403)
002ec5 e0b1      	LDI  R27,HIGH(403)
002ec6 83a0      	STD  Z+0,R26
002ec7 83b1      	STD  Z+1,R27
                +
002ec8 e7e3     +LDI R30 , LOW ( _a + ( 14 ) )
002ec9 e0f5     +LDI R31 , HIGH ( _a + ( 14 ) )
                 	__POINTW1MN _a,14
002eca e1a3      	LDI  R26,LOW(19)
002ecb e0b0      	LDI  R27,HIGH(19)
002ecc 9508      	RET
                 
                 ;OPTIMIZER ADDED SUBROUTINE, CALLED 3 TIMES, CODE SIZE REDUCTION:5 WORDS
                 SUBOPT_0x6C:
002ecd e0af      	LDI  R26,LOW(15)
002ece e0b0      	LDI  R27,HIGH(15)
002ecf 83a0      	STD  Z+0,R26
002ed0 83b1      	STD  Z+1,R27
                +
002ed1 e6ed     +LDI R30 , LOW ( _a + ( 8 ) )
002ed2 e0f5     +LDI R31 , HIGH ( _a + ( 8 ) )
                 	__POINTW1MN _a,8
002ed3 9508      	RET
                 
                 ;OPTIMIZER ADDED SUBROUTINE, CALLED 3 TIMES, CODE SIZE REDUCTION:5 WORDS
                 SUBOPT_0x6D:
002ed4 83a0      	STD  Z+0,R26
002ed5 83b1      	STD  Z+1,R27
                +
002ed6 e7e3     +LDI R30 , LOW ( _a + ( 14 ) )
002ed7 e0f5     +LDI R31 , HIGH ( _a + ( 14 ) )
                 	__POINTW1MN _a,14
002ed8 e1a3      	LDI  R26,LOW(19)
002ed9 e0b0      	LDI  R27,HIGH(19)
002eda 9508      	RET
                 
                 ;OPTIMIZER ADDED SUBROUTINE, CALLED 3 TIMES, CODE SIZE REDUCTION:1 WORDS
                 SUBOPT_0x6E:
002edb e1a8      	LDI  R26,LOW(24)
002edc e0b0      	LDI  R27,HIGH(24)
002edd cfb2      	RJMP SUBOPT_0x61
                 
                 ;OPTIMIZER ADDED SUBROUTINE, CALLED 2 TIMES, CODE SIZE REDUCTION:3 WORDS
                 SUBOPT_0x6F:
002ede e1a2      	LDI  R26,LOW(18)
002edf e0b0      	LDI  R27,HIGH(18)
002ee0 83a0      	STD  Z+0,R26
002ee1 83b1      	STD  Z+1,R27
                +
002ee2 e6ed     +LDI R30 , LOW ( _a + ( 8 ) )
002ee3 e0f5     +LDI R31 , HIGH ( _a + ( 8 ) )
                 	__POINTW1MN _a,8
002ee4 cfc0      	RJMP SUBOPT_0x64
                 
                 ;OPTIMIZER ADDED SUBROUTINE, CALLED 2 TIMES, CODE SIZE REDUCTION:1 WORDS
                 SUBOPT_0x70:
002ee5 e9a0      	LDI  R26,LOW(400)
002ee6 e0b1      	LDI  R27,HIGH(400)
002ee7 83a0      	STD  Z+0,R26
002ee8 83b1      	STD  Z+1,R27
                +
002ee9 e7e3     +LDI R30 , LOW ( _a + ( 14 ) )
002eea e0f5     +LDI R31 , HIGH ( _a + ( 14 ) )
                 	__POINTW1MN _a,14
002eeb 9508      	RET
                 
                 ;OPTIMIZER ADDED SUBROUTINE, CALLED 4 TIMES, CODE SIZE REDUCTION:3 WORDS
                 SUBOPT_0x71:
002eec 91e0 0565 	LDS  R30,_a
002eee 91f0 0566 	LDS  R31,_a+1
002ef0 9508      	RET
                 
                 ;OPTIMIZER ADDED SUBROUTINE, CALLED 5 TIMES, CODE SIZE REDUCTION:5 WORDS
                 SUBOPT_0x72:
                +
002ef1 91e0 056d+LDS R30 , _a + ( 8 )
002ef3 91f0 056e+LDS R31 , _a + ( 8 ) + 1
                 	__GETW1MN _a,8
002ef5 9508      	RET
                 
                 ;OPTIMIZER ADDED SUBROUTINE, CALLED 8 TIMES, CODE SIZE REDUCTION:11 WORDS
                 SUBOPT_0x73:
                +
002ef6 91e0 056f+LDS R30 , _a + ( 10 )
002ef8 91f0 0570+LDS R31 , _a + ( 10 ) + 1
                 	__GETW1MN _a,10
002efa 9508      	RET
                 
                 ;OPTIMIZER ADDED SUBROUTINE, CALLED 4 TIMES, CODE SIZE REDUCTION:33 WORDS
                 SUBOPT_0x74:
002efb 9631      	ADIW R30,1
                +
002efc 93e0 0571+STS _a + ( 12 ) , R30
002efe 93f0 0572+STS _a + ( 12 ) + 1 , R31
                 	__PUTW1MN _a,12
                +
002f00 91e0 0571+LDS R30 , _a + ( 12 )
002f02 91f0 0572+LDS R31 , _a + ( 12 ) + 1
                 	__GETW1MN _a,12
002f04 9631      	ADIW R30,1
                +
002f05 93e0 0575+STS _a + ( 16 ) , R30
002f07 93f0 0576+STS _a + ( 16 ) + 1 , R31
                 	__PUTW1MN _a,16
002f09 9508      	RET
                 
                 ;OPTIMIZER ADDED SUBROUTINE, CALLED 3 TIMES, CODE SIZE REDUCTION:1 WORDS
                 SUBOPT_0x75:
                +
002f0a 91e0 056b+LDS R30 , _a + ( 6 )
002f0c 91f0 056c+LDS R31 , _a + ( 6 ) + 1
                 	__GETW1MN _a,6
002f0e 9508      	RET
                 
                 ;OPTIMIZER ADDED SUBROUTINE, CALLED 3 TIMES, CODE SIZE REDUCTION:1 WORDS
                 SUBOPT_0x76:
002f0f 91a0 0581 	LDS  R26,_wejscie_krazka_sciernego_w_pow_boczna_cylindra
002f11 91b0 0582 	LDS  R27,_wejscie_krazka_sciernego_w_pow_boczna_cylindra+1
002f13 9508      	RET
                 
                 ;OPTIMIZER ADDED SUBROUTINE, CALLED 2 TIMES, CODE SIZE REDUCTION:4 WORDS
                 SUBOPT_0x77:
002f14 e0e2      	LDI  R30,LOW(2)
002f15 e0f0      	LDI  R31,HIGH(2)
002f16 940e 3361 	CALL __EQW12
002f18 2e0e      	MOV  R0,R30
002f19 91a0 0583 	LDS  R26,_predkosc_ruchow_po_okregu_krazek_scierny
002f1b 91b0 0584 	LDS  R27,_predkosc_ruchow_po_okregu_krazek_scierny+1
002f1d 9508      	RET
                 
                 ;OPTIMIZER ADDED SUBROUTINE, CALLED 3 TIMES, CODE SIZE REDUCTION:5 WORDS
                 SUBOPT_0x78:
                +
002f1e 93e0 056f+STS _a + ( 10 ) , R30
002f20 93f0 0570+STS _a + ( 10 ) + 1 , R31
                 	__PUTW1MN _a,10
002f22 cfd3      	RJMP SUBOPT_0x73
                 
                 ;OPTIMIZER ADDED SUBROUTINE, CALLED 25 TIMES, CODE SIZE REDUCTION:45 WORDS
                 SUBOPT_0x79:
002f23 e0e1      	LDI  R30,LOW(1)
002f24 e0f0      	LDI  R31,HIGH(1)
002f25 940e 3361 	CALL __EQW12
002f27 9508      	RET
                 
                 ;OPTIMIZER ADDED SUBROUTINE, CALLED 4 TIMES, CODE SIZE REDUCTION:6 WORDS
                 SUBOPT_0x7A:
002f28 e0ea      	LDI  R30,LOW(10)
002f29 e0f0      	LDI  R31,HIGH(10)
002f2a 940e 3361 	CALL __EQW12
002f2c 21e0      	AND  R30,R0
002f2d 9508      	RET
                 
                 ;OPTIMIZER ADDED SUBROUTINE, CALLED 4 TIMES, CODE SIZE REDUCTION:9 WORDS
                 SUBOPT_0x7B:
002f2e e4e0      	LDI  R30,LOW(64)
002f2f e0f0      	LDI  R31,HIGH(64)
002f30 93fa      	ST   -Y,R31
002f31 93ea      	ST   -Y,R30
002f32 940c 04c5 	JMP  _wartosc_parametru_panelu
                 
                 ;OPTIMIZER ADDED SUBROUTINE, CALLED 6 TIMES, CODE SIZE REDUCTION:7 WORDS
                 SUBOPT_0x7C:
002f34 93fa      	ST   -Y,R31
002f35 93ea      	ST   -Y,R30
002f36 cdf2      	RJMP SUBOPT_0x35
                 
                 ;OPTIMIZER ADDED SUBROUTINE, CALLED 5 TIMES, CODE SIZE REDUCTION:53 WORDS
                 SUBOPT_0x7D:
                +
002f37 eae0     +LDI R30 , LOW ( 2 * _0x0 + ( 0 ) )
002f38 e0f0     +LDI R31 , HIGH ( 2 * _0x0 + ( 0 ) )
                 	__POINTW1FN _0x0,0
002f39 93fa      	ST   -Y,R31
002f3a 93ea      	ST   -Y,R30
002f3b 91e0 0541 	LDS  R30,_adr3
002f3d 91f0 0542 	LDS  R31,_adr3+1
002f3f 93fa      	ST   -Y,R31
002f40 93ea      	ST   -Y,R30
002f41 91e0 0543 	LDS  R30,_adr4
002f43 91f0 0544 	LDS  R31,_adr4+1
002f45 cd0f      	RJMP SUBOPT_0x16
                 
                 ;OPTIMIZER ADDED SUBROUTINE, CALLED 4 TIMES, CODE SIZE REDUCTION:33 WORDS
                 SUBOPT_0x7E:
002f46 93fa      	ST   -Y,R31
002f47 93ea      	ST   -Y,R30
002f48 91e0 0541 	LDS  R30,_adr3
002f4a 91f0 0542 	LDS  R31,_adr3+1
002f4c 93fa      	ST   -Y,R31
002f4d 93ea      	ST   -Y,R30
002f4e 91e0 0543 	LDS  R30,_adr4
002f50 91f0 0544 	LDS  R31,_adr4+1
002f52 cd02      	RJMP SUBOPT_0x16
                 
                 ;OPTIMIZER ADDED SUBROUTINE, CALLED 12 TIMES, CODE SIZE REDUCTION:41 WORDS
                 SUBOPT_0x7F:
002f53 eee8      	LDI  R30,LOW(1000)
002f54 e0f3      	LDI  R31,HIGH(1000)
002f55 93fa      	ST   -Y,R31
002f56 93ea      	ST   -Y,R30
002f57 940c 333e 	JMP  _delay_ms
                 
                 ;OPTIMIZER ADDED SUBROUTINE, CALLED 3 TIMES, CODE SIZE REDUCTION:3 WORDS
                 SUBOPT_0x80:
002f59 940e 040d 	CALL _sprawdz_pin0
002f5b e0a1      	LDI  R26,LOW(1)
002f5c 940e 335c 	CALL __EQB12
002f5e 9508      	RET
                 
                 ;OPTIMIZER ADDED SUBROUTINE, CALLED 3 TIMES, CODE SIZE REDUCTION:3 WORDS
                 SUBOPT_0x81:
002f5f 940e 0410 	CALL _sprawdz_pin1
002f61 e0a1      	LDI  R26,LOW(1)
002f62 940e 335c 	CALL __EQB12
002f64 9508      	RET
                 
                 ;OPTIMIZER ADDED SUBROUTINE, CALLED 4 TIMES, CODE SIZE REDUCTION:6 WORDS
                 SUBOPT_0x82:
002f65 940e 0419 	CALL _sprawdz_pin3
002f67 e0a1      	LDI  R26,LOW(1)
002f68 940e 335c 	CALL __EQB12
002f6a 9508      	RET
                 
                 ;OPTIMIZER ADDED SUBROUTINE, CALLED 12 TIMES, CODE SIZE REDUCTION:63 WORDS
                 SUBOPT_0x83:
002f6b e0e5      	LDI  R30,LOW(_PORTLL)
002f6c e0f5      	LDI  R31,HIGH(_PORTLL)
002f6d e0a1      	LDI  R26,1
002f6e 940e 3391 	CALL __PUTPARL
002f70 e7e1      	LDI  R30,LOW(113)
002f71 e0f0      	LDI  R31,HIGH(113)
002f72 93fa      	ST   -Y,R31
002f73 93ea      	ST   -Y,R30
002f74 9508      	RET
                 
                 ;OPTIMIZER ADDED SUBROUTINE, CALLED 10 TIMES, CODE SIZE REDUCTION:51 WORDS
                 SUBOPT_0x84:
002f75 e0e4      	LDI  R30,LOW(_PORTKK)
002f76 e0f5      	LDI  R31,HIGH(_PORTKK)
002f77 e0a1      	LDI  R26,1
002f78 940e 3391 	CALL __PUTPARL
002f7a e7e5      	LDI  R30,LOW(117)
002f7b e0f0      	LDI  R31,HIGH(117)
002f7c 93fa      	ST   -Y,R31
002f7d 93ea      	ST   -Y,R30
002f7e 9508      	RET
                 
                 ;OPTIMIZER ADDED SUBROUTINE, CALLED 4 TIMES, CODE SIZE REDUCTION:6 WORDS
                 SUBOPT_0x85:
002f7f 940e 042e 	CALL _sprawdz_pin7
002f81 e0a1      	LDI  R26,LOW(1)
002f82 940e 335c 	CALL __EQB12
002f84 9508      	RET
                 
                 ;OPTIMIZER ADDED SUBROUTINE, CALLED 3 TIMES, CODE SIZE REDUCTION:3 WORDS
                 SUBOPT_0x86:
002f85 940e 0429 	CALL _sprawdz_pin6
002f87 e0a1      	LDI  R26,LOW(1)
002f88 940e 335c 	CALL __EQB12
002f8a 9508      	RET
                 
                 ;OPTIMIZER ADDED SUBROUTINE, CALLED 3 TIMES, CODE SIZE REDUCTION:3 WORDS
                 SUBOPT_0x87:
002f8b 940e 0423 	CALL _sprawdz_pin5
002f8d e0a1      	LDI  R26,LOW(1)
002f8e 940e 335c 	CALL __EQB12
002f90 9508      	RET
                 
                 ;OPTIMIZER ADDED SUBROUTINE, CALLED 5 TIMES, CODE SIZE REDUCTION:5 WORDS
                 SUBOPT_0x88:
002f91 e0e0      	LDI  R30,LOW(0)
002f92 e0f0      	LDI  R31,HIGH(0)
002f93 cc87      	RJMP SUBOPT_0xE
                 
                 ;OPTIMIZER ADDED SUBROUTINE, CALLED 2 TIMES, CODE SIZE REDUCTION:1 WORDS
                 SUBOPT_0x89:
002f94 23ea      	AND  R30,R26
002f95 2e0e      	MOV  R0,R30
002f96 91a0 0561 	LDS  R26,_czekaj_az_puszcze
002f98 91b0 0562 	LDS  R27,_czekaj_az_puszcze+1
002f9a 9508      	RET
                 
                 ;OPTIMIZER ADDED SUBROUTINE, CALLED 19 TIMES, CODE SIZE REDUCTION:33 WORDS
                 SUBOPT_0x8A:
002f9b e0e0      	LDI  R30,LOW(0)
002f9c e0f0      	LDI  R31,HIGH(0)
002f9d 940e 3361 	CALL __EQW12
002f9f 9508      	RET
                 
                 ;OPTIMIZER ADDED SUBROUTINE, CALLED 2 TIMES, CODE SIZE REDUCTION:7 WORDS
                 SUBOPT_0x8B:
002fa0 91a0 0561 	LDS  R26,_czekaj_az_puszcze
002fa2 91b0 0562 	LDS  R27,_czekaj_az_puszcze+1
002fa4 e0e2      	LDI  R30,LOW(2)
002fa5 e0f0      	LDI  R31,HIGH(2)
002fa6 940e 3361 	CALL __EQW12
002fa8 2e0e      	MOV  R0,R30
002fa9 e0a0      	LDI  R26,0
002faa 991e      	SBIC 0x3,6
002fab e0a1      	LDI  R26,1
002fac 9508      	RET
                 
                 ;OPTIMIZER ADDED SUBROUTINE, CALLED 2 TIMES, CODE SIZE REDUCTION:6 WORDS
                 SUBOPT_0x8C:
002fad e0e0      	LDI  R30,LOW(0)
002fae 93e0 0561 	STS  _czekaj_az_puszcze,R30
002fb0 93e0 0562 	STS  _czekaj_az_puszcze+1,R30
002fb2 e6e4      	LDI  R30,LOW(100)
002fb3 e0f0      	LDI  R31,HIGH(100)
002fb4 93fa      	ST   -Y,R31
002fb5 93ea      	ST   -Y,R30
002fb6 940c 333e 	JMP  _delay_ms
                 
                 ;OPTIMIZER ADDED SUBROUTINE, CALLED 2 TIMES, CODE SIZE REDUCTION:4 WORDS
                 SUBOPT_0x8D:
002fb8 e0e0      	LDI  R30,LOW(0)
002fb9 93e0 0521 	STS  _sek11,R30
002fbb 93e0 0522 	STS  _sek11+1,R30
002fbd 93e0 0523 	STS  _sek11+2,R30
002fbf 93e0 0524 	STS  _sek11+3,R30
002fc1 9508      	RET
                 
                 ;OPTIMIZER ADDED SUBROUTINE, CALLED 2 TIMES, CODE SIZE REDUCTION:1 WORDS
                 SUBOPT_0x8E:
002fc2 e8e0      	LDI  R30,LOW(128)
002fc3 e0f0      	LDI  R31,HIGH(128)
002fc4 93fa      	ST   -Y,R31
002fc5 93ea      	ST   -Y,R30
002fc6 940c 04c5 	JMP  _wartosc_parametru_panelu
                 
                 ;OPTIMIZER ADDED SUBROUTINE, CALLED 3 TIMES, CODE SIZE REDUCTION:11 WORDS
                 SUBOPT_0x8F:
002fc8 e0e0      	LDI  R30,LOW(0)
002fc9 93e0 0511 	STS  _sek1,R30
002fcb 93e0 0512 	STS  _sek1+1,R30
002fcd 93e0 0513 	STS  _sek1+2,R30
002fcf 93e0 0514 	STS  _sek1+3,R30
002fd1 9508      	RET
                 
                 ;OPTIMIZER ADDED SUBROUTINE, CALLED 4 TIMES, CODE SIZE REDUCTION:12 WORDS
                 SUBOPT_0x90:
                +
002fd2 30a2     +CPI R26 , LOW ( 0x2 )
002fd3 e0e0     +LDI R30 , HIGH ( 0x2 )
002fd4 07be     +CPC R27 , R30
002fd5 e0e0     +LDI R30 , BYTE3 ( 0x2 )
002fd6 078e     +CPC R24 , R30
002fd7 e0e0     +LDI R30 , BYTE4 ( 0x2 )
002fd8 079e     +CPC R25 , R30
                 	__CPD2N 0x2
002fd9 9508      	RET
                 
                 ;OPTIMIZER ADDED SUBROUTINE, CALLED 23 TIMES, CODE SIZE REDUCTION:41 WORDS
                 SUBOPT_0x91:
002fda 93e0 0535 	STS  _cykl_sterownik_1,R30
002fdc 93f0 0536 	STS  _cykl_sterownik_1+1,R31
002fde 9508      	RET
                 
                 ;OPTIMIZER ADDED SUBROUTINE, CALLED 3 TIMES, CODE SIZE REDUCTION:11 WORDS
                 SUBOPT_0x92:
002fdf e0e0      	LDI  R30,LOW(0)
002fe0 93e0 0519 	STS  _sek3,R30
002fe2 93e0 051a 	STS  _sek3+1,R30
002fe4 93e0 051b 	STS  _sek3+2,R30
002fe6 93e0 051c 	STS  _sek3+3,R30
002fe8 9508      	RET
                 
                 ;OPTIMIZER ADDED SUBROUTINE, CALLED 18 TIMES, CODE SIZE REDUCTION:31 WORDS
                 SUBOPT_0x93:
002fe9 93e0 0539 	STS  _cykl_sterownik_2,R30
002feb 93f0 053a 	STS  _cykl_sterownik_2+1,R31
002fed 9508      	RET
                 
                 ;OPTIMIZER ADDED SUBROUTINE, CALLED 4 TIMES, CODE SIZE REDUCTION:6 WORDS
                 SUBOPT_0x94:
002fee 29e0      	OR   R30,R0
002fef 93e0 0500 	STS  _PORT_F,R30
002ff1 91e0 0507 	LDS  R30,_PORT_STER3
002ff3 9508      	RET
                 
                 ;OPTIMIZER ADDED SUBROUTINE, CALLED 16 TIMES, CODE SIZE REDUCTION:57 WORDS
                 SUBOPT_0x95:
002ff4 93e0 0500 	STS  _PORT_F,R30
002ff6 93e0 0062 	STS  98,R30
002ff8 9508      	RET
                 
                 ;OPTIMIZER ADDED SUBROUTINE, CALLED 3 TIMES, CODE SIZE REDUCTION:11 WORDS
                 SUBOPT_0x96:
002ff9 e0e0      	LDI  R30,LOW(0)
002ffa 93e0 0515 	STS  _sek2,R30
002ffc 93e0 0516 	STS  _sek2+1,R30
002ffe 93e0 0517 	STS  _sek2+2,R30
003000 93e0 0518 	STS  _sek2+3,R30
003002 9508      	RET
                 
                 ;OPTIMIZER ADDED SUBROUTINE, CALLED 24 TIMES, CODE SIZE REDUCTION:43 WORDS
                 SUBOPT_0x97:
003003 93e0 0537 	STS  _cykl_sterownik_3,R30
003005 93f0 0538 	STS  _cykl_sterownik_3+1,R31
003007 9508      	RET
                 
                 ;OPTIMIZER ADDED SUBROUTINE, CALLED 4 TIMES, CODE SIZE REDUCTION:3 WORDS
                 SUBOPT_0x98:
003008 93e0 0500 	STS  _PORT_F,R30
00300a 9508      	RET
                 
                 ;OPTIMIZER ADDED SUBROUTINE, CALLED 3 TIMES, CODE SIZE REDUCTION:11 WORDS
                 SUBOPT_0x99:
00300b e0e0      	LDI  R30,LOW(0)
00300c 93e0 051d 	STS  _sek4,R30
00300e 93e0 051e 	STS  _sek4+1,R30
003010 93e0 051f 	STS  _sek4+2,R30
003012 93e0 0520 	STS  _sek4+3,R30
003014 9508      	RET
                 
                 ;OPTIMIZER ADDED SUBROUTINE, CALLED 25 TIMES, CODE SIZE REDUCTION:45 WORDS
                 SUBOPT_0x9A:
003015 93e0 053b 	STS  _cykl_sterownik_4,R30
003017 93f0 053c 	STS  _cykl_sterownik_4+1,R31
003019 9508      	RET
                 
                 ;OPTIMIZER ADDED SUBROUTINE, CALLED 3 TIMES, CODE SIZE REDUCTION:1 WORDS
                 SUBOPT_0x9B:
00301a 91a0 0585 	LDS  R26,_test_geometryczny_rzad_1
00301c 91b0 0586 	LDS  R27,_test_geometryczny_rzad_1+1
00301e 9508      	RET
                 
                 ;OPTIMIZER ADDED SUBROUTINE, CALLED 3 TIMES, CODE SIZE REDUCTION:1 WORDS
                 SUBOPT_0x9C:
00301f 91a0 0587 	LDS  R26,_test_geometryczny_rzad_2
003021 91b0 0588 	LDS  R27,_test_geometryczny_rzad_2+1
003023 9508      	RET
                 
                 ;OPTIMIZER ADDED SUBROUTINE, CALLED 2 TIMES, CODE SIZE REDUCTION:12 WORDS
                 SUBOPT_0x9D:
003024 220e      	AND  R0,R30
003025 e0a0      	LDI  R26,0
003026 9997      	SBIC 0x12,7
003027 e0a1      	LDI  R26,1
003028 e0e0      	LDI  R30,LOW(0)
003029 940e 335c 	CALL __EQB12
00302b 220e      	AND  R0,R30
00302c 91e0 0500 	LDS  R30,_PORT_F
00302e db93      	RCALL SUBOPT_0x1
00302f 70e1      	ANDI R30,LOW(0x1)
003030 e0a0      	LDI  R26,LOW(0)
003031 940e 335c 	CALL __EQB12
003033 220e      	AND  R0,R30
003034 9508      	RET
                 
                 ;OPTIMIZER ADDED SUBROUTINE, CALLED 6 TIMES, CODE SIZE REDUCTION:7 WORDS
                 SUBOPT_0x9E:
003035 91a0 0531 	LDS  R26,_il_zaciskow_rzad_1
003037 91b0 0532 	LDS  R27,_il_zaciskow_rzad_1+1
003039 9508      	RET
                 
                 ;OPTIMIZER ADDED SUBROUTINE, CALLED 4 TIMES, CODE SIZE REDUCTION:6 WORDS
                 SUBOPT_0x9F:
00303a e0e0      	LDI  R30,LOW(0)
00303b e0f0      	LDI  R31,HIGH(0)
00303c 940e 3379 	CALL __GTW12
00303e 220e      	AND  R0,R30
00303f 9508      	RET
                 
                 ;OPTIMIZER ADDED SUBROUTINE, CALLED 2 TIMES, CODE SIZE REDUCTION:4 WORDS
                 SUBOPT_0xA0:
                +
003040 91e0 050d+LDS R30 , _macierz_zaciskow + ( 2 )
003042 91f0 050e+LDS R31 , _macierz_zaciskow + ( 2 ) + 1
                 	__GETW1MN _macierz_zaciskow,2
003044 e0a0      	LDI  R26,LOW(0)
003045 e0b0      	LDI  R27,HIGH(0)
003046 940e 3367 	CALL __NEW12
003048 21e0      	AND  R30,R0
003049 9508      	RET
                 
                 ;OPTIMIZER ADDED SUBROUTINE, CALLED 17 TIMES, CODE SIZE REDUCTION:285 WORDS
                 SUBOPT_0xA1:
00304a e0e0      	LDI  R30,LOW(0)
00304b 93e0 0535 	STS  _cykl_sterownik_1,R30
00304d 93e0 0536 	STS  _cykl_sterownik_1+1,R30
00304f 93e0 0539 	STS  _cykl_sterownik_2,R30
003051 93e0 053a 	STS  _cykl_sterownik_2+1,R30
003053 93e0 0537 	STS  _cykl_sterownik_3,R30
003055 93e0 0538 	STS  _cykl_sterownik_3+1,R30
003057 93e0 053b 	STS  _cykl_sterownik_4,R30
003059 93e0 053c 	STS  _cykl_sterownik_4+1,R30
00305b 9508      	RET
                 
                 ;OPTIMIZER ADDED SUBROUTINE, CALLED 12 TIMES, CODE SIZE REDUCTION:19 WORDS
                 SUBOPT_0xA2:
00305c e0e1      	LDI  R30,LOW(1)
00305d e0f0      	LDI  R31,HIGH(1)
00305e 93fa      	ST   -Y,R31
00305f 93ea      	ST   -Y,R30
003060 9508      	RET
                 
                 ;OPTIMIZER ADDED SUBROUTINE, CALLED 35 TIMES, CODE SIZE REDUCTION:65 WORDS
                 SUBOPT_0xA3:
003061 91a0 0537 	LDS  R26,_cykl_sterownik_3
003063 91b0 0538 	LDS  R27,_cykl_sterownik_3+1
003065 9508      	RET
                 
                 ;OPTIMIZER ADDED SUBROUTINE, CALLED 19 TIMES, CODE SIZE REDUCTION:33 WORDS
                 SUBOPT_0xA4:
003066 940e 1cec 	CALL _sterownik_3_praca
003068 cf9a      	RJMP SUBOPT_0x97
                 
                 ;OPTIMIZER ADDED SUBROUTINE, CALLED 38 TIMES, CODE SIZE REDUCTION:71 WORDS
                 SUBOPT_0xA5:
003069 91a0 053b 	LDS  R26,_cykl_sterownik_4
00306b 91b0 053c 	LDS  R27,_cykl_sterownik_4+1
00306d 9508      	RET
                 
                 ;OPTIMIZER ADDED SUBROUTINE, CALLED 20 TIMES, CODE SIZE REDUCTION:35 WORDS
                 SUBOPT_0xA6:
00306e 940e 1dbd 	CALL _sterownik_4_praca
003070 cfa4      	RJMP SUBOPT_0x9A
                 
                 ;OPTIMIZER ADDED SUBROUTINE, CALLED 9 TIMES, CODE SIZE REDUCTION:93 WORDS
                 SUBOPT_0xA7:
003071 dfef      	RCALL SUBOPT_0xA3
003072 e0e5      	LDI  R30,LOW(5)
003073 e0f0      	LDI  R31,HIGH(5)
003074 940e 3361 	CALL __EQW12
003076 2e0e      	MOV  R0,R30
003077 dff1      	RCALL SUBOPT_0xA5
003078 e0e5      	LDI  R30,LOW(5)
003079 e0f0      	LDI  R31,HIGH(5)
00307a 940e 3361 	CALL __EQW12
00307c 21e0      	AND  R30,R0
00307d 9508      	RET
                 
                 ;OPTIMIZER ADDED SUBROUTINE, CALLED 9 TIMES, CODE SIZE REDUCTION:61 WORDS
                 SUBOPT_0xA8:
00307e e0e0      	LDI  R30,LOW(0)
00307f 93e0 0537 	STS  _cykl_sterownik_3,R30
003081 93e0 0538 	STS  _cykl_sterownik_3+1,R30
003083 93e0 053b 	STS  _cykl_sterownik_4,R30
003085 93e0 053c 	STS  _cykl_sterownik_4+1,R30
003087 9508      	RET
                 
                 ;OPTIMIZER ADDED SUBROUTINE, CALLED 37 TIMES, CODE SIZE REDUCTION:69 WORDS
                 SUBOPT_0xA9:
003088 91a0 0535 	LDS  R26,_cykl_sterownik_1
00308a 91b0 0536 	LDS  R27,_cykl_sterownik_1+1
00308c 9508      	RET
                 
                 ;OPTIMIZER ADDED SUBROUTINE, CALLED 20 TIMES, CODE SIZE REDUCTION:35 WORDS
                 SUBOPT_0xAA:
00308d 940e 1ba0 	CALL _sterownik_1_praca
00308f cf4a      	RJMP SUBOPT_0x91
                 
                 ;OPTIMIZER ADDED SUBROUTINE, CALLED 28 TIMES, CODE SIZE REDUCTION:51 WORDS
                 SUBOPT_0xAB:
003090 91a0 0539 	LDS  R26,_cykl_sterownik_2
003092 91b0 053a 	LDS  R27,_cykl_sterownik_2+1
003094 9508      	RET
                 
                 ;OPTIMIZER ADDED SUBROUTINE, CALLED 3 TIMES, CODE SIZE REDUCTION:9 WORDS
                 SUBOPT_0xAC:
003095 e0e8      	LDI  R30,LOW(8)
003096 e0f0      	LDI  R31,HIGH(8)
003097 93fa      	ST   -Y,R31
003098 93ea      	ST   -Y,R30
003099 940e 1c46 	CALL _sterownik_2_praca
00309b cf4d      	RJMP SUBOPT_0x93
                 
                 ;OPTIMIZER ADDED SUBROUTINE, CALLED 8 TIMES, CODE SIZE REDUCTION:81 WORDS
                 SUBOPT_0xAD:
00309c dfeb      	RCALL SUBOPT_0xA9
00309d e0e5      	LDI  R30,LOW(5)
00309e e0f0      	LDI  R31,HIGH(5)
00309f 940e 3361 	CALL __EQW12
0030a1 2e0e      	MOV  R0,R30
0030a2 dfed      	RCALL SUBOPT_0xAB
0030a3 e0e5      	LDI  R30,LOW(5)
0030a4 e0f0      	LDI  R31,HIGH(5)
0030a5 940e 3361 	CALL __EQW12
0030a7 21e0      	AND  R30,R0
0030a8 9508      	RET
                 
                 ;OPTIMIZER ADDED SUBROUTINE, CALLED 3 TIMES, CODE SIZE REDUCTION:1 WORDS
                 SUBOPT_0xAE:
0030a9 de42      	RCALL SUBOPT_0x71
0030aa 93fa      	ST   -Y,R31
0030ab 93ea      	ST   -Y,R30
0030ac 9508      	RET
                 
                 ;OPTIMIZER ADDED SUBROUTINE, CALLED 7 TIMES, CODE SIZE REDUCTION:9 WORDS
                 SUBOPT_0xAF:
0030ad 93fa      	ST   -Y,R31
0030ae 93ea      	ST   -Y,R30
0030af cfb6      	RJMP SUBOPT_0xA4
                 
                 ;OPTIMIZER ADDED SUBROUTINE, CALLED 10 TIMES, CODE SIZE REDUCTION:15 WORDS
                 SUBOPT_0xB0:
0030b0 91a0 0533 	LDS  R26,_il_zaciskow_rzad_2
0030b2 91b0 0534 	LDS  R27,_il_zaciskow_rzad_2+1
0030b4 9508      	RET
                 
                 ;OPTIMIZER ADDED SUBROUTINE, CALLED 3 TIMES, CODE SIZE REDUCTION:9 WORDS
                 SUBOPT_0xB1:
                +
0030b5 91e0 050f+LDS R30 , _macierz_zaciskow + ( 4 )
0030b7 91f0 0510+LDS R31 , _macierz_zaciskow + ( 4 ) + 1
                 	__GETW1MN _macierz_zaciskow,4
0030b9 e0a0      	LDI  R26,LOW(0)
0030ba e0b0      	LDI  R27,HIGH(0)
0030bb 940e 3367 	CALL __NEW12
0030bd 9508      	RET
                 
                 ;OPTIMIZER ADDED SUBROUTINE, CALLED 4 TIMES, CODE SIZE REDUCTION:3 WORDS
                 SUBOPT_0xB2:
0030be e0e2      	LDI  R30,LOW(2)
0030bf e0f0      	LDI  R31,HIGH(2)
0030c0 93fa      	ST   -Y,R31
0030c1 93ea      	ST   -Y,R30
0030c2 9508      	RET
                 
                 ;OPTIMIZER ADDED SUBROUTINE, CALLED 3 TIMES, CODE SIZE REDUCTION:5 WORDS
                 SUBOPT_0xB3:
                +
0030c3 91e0 0567+LDS R30 , _a + ( 2 )
0030c5 91f0 0568+LDS R31 , _a + ( 2 ) + 1
                 	__GETW1MN _a,2
0030c7 93fa      	ST   -Y,R31
0030c8 93ea      	ST   -Y,R30
0030c9 9508      	RET
                 
                 ;OPTIMIZER ADDED SUBROUTINE, CALLED 4 TIMES, CODE SIZE REDUCTION:3 WORDS
                 SUBOPT_0xB4:
                +
0030ca eae0     +LDI R30 , LOW ( 2 * _0x0 + ( 0 ) )
0030cb e0f0     +LDI R31 , HIGH ( 2 * _0x0 + ( 0 ) )
                 	__POINTW1FN _0x0,0
0030cc 93fa      	ST   -Y,R31
0030cd 93ea      	ST   -Y,R30
0030ce 9508      	RET
                 
                 ;OPTIMIZER ADDED SUBROUTINE, CALLED 3 TIMES, CODE SIZE REDUCTION:1 WORDS
                 SUBOPT_0xB5:
0030cf e5e0      	LDI  R30,LOW(80)
0030d0 e0f0      	LDI  R31,HIGH(80)
0030d1 cb49      	RJMP SUBOPT_0xE
                 
                 ;OPTIMIZER ADDED SUBROUTINE, CALLED 3 TIMES, CODE SIZE REDUCTION:1 WORDS
                 SUBOPT_0xB6:
0030d2 e4e0      	LDI  R30,LOW(64)
0030d3 e0f0      	LDI  R31,HIGH(64)
0030d4 cb46      	RJMP SUBOPT_0xE
                 
                 ;OPTIMIZER ADDED SUBROUTINE, CALLED 4 TIMES, CODE SIZE REDUCTION:3 WORDS
                 SUBOPT_0xB7:
0030d5 efe9      	LDI  R30,LOW(505)
0030d6 e0f1      	LDI  R31,HIGH(505)
0030d7 93fa      	ST   -Y,R31
0030d8 93ea      	ST   -Y,R30
0030d9 9508      	RET
                 
                 ;OPTIMIZER ADDED SUBROUTINE, CALLED 12 TIMES, CODE SIZE REDUCTION:19 WORDS
                 SUBOPT_0xB8:
0030da 940e 1c46 	CALL _sterownik_2_praca
0030dc cf0c      	RJMP SUBOPT_0x93
                 
                 ;OPTIMIZER ADDED SUBROUTINE, CALLED 3 TIMES, CODE SIZE REDUCTION:1 WORDS
                 SUBOPT_0xB9:
0030dd e0e3      	LDI  R30,LOW(3)
0030de e0f0      	LDI  R31,HIGH(3)
0030df 83ee      	STD  Y+6,R30
0030e0 83ff      	STD  Y+6+1,R31
0030e1 9508      	RET
                 
                 ;OPTIMIZER ADDED SUBROUTINE, CALLED 5 TIMES, CODE SIZE REDUCTION:13 WORDS
                 SUBOPT_0xBA:
0030e2 ede0      	LDI  R30,LOW(2000)
0030e3 e0f7      	LDI  R31,HIGH(2000)
0030e4 93fa      	ST   -Y,R31
0030e5 93ea      	ST   -Y,R30
0030e6 940c 333e 	JMP  _delay_ms
                 
                 ;OPTIMIZER ADDED SUBROUTINE, CALLED 4 TIMES, CODE SIZE REDUCTION:9 WORDS
                 SUBOPT_0xBB:
0030e8 e0e1      	LDI  R30,LOW(1)
0030e9 e0f0      	LDI  R31,HIGH(1)
0030ea 93e0 055b 	STS  _rzad_obrabiany,R30
0030ec 93f0 055c 	STS  _rzad_obrabiany+1,R31
0030ee 9508      	RET
                 
                 ;OPTIMIZER ADDED SUBROUTINE, CALLED 3 TIMES, CODE SIZE REDUCTION:3 WORDS
                 SUBOPT_0xBC:
0030ef e0e0      	LDI  R30,LOW(0)
0030f0 93e0 055f 	STS  _wykonalem_rzedow,R30
0030f2 93e0 0560 	STS  _wykonalem_rzedow+1,R30
0030f4 9508      	RET
                 
                 ;OPTIMIZER ADDED SUBROUTINE, CALLED 4 TIMES, CODE SIZE REDUCTION:6 WORDS
                 SUBOPT_0xBD:
0030f5 e0e0      	LDI  R30,LOW(0)
0030f6 93e0 0551 	STS  _cykl_ilosc_zaciskow,R30
0030f8 93e0 0552 	STS  _cykl_ilosc_zaciskow+1,R30
0030fa 9508      	RET
                 
                 ;OPTIMIZER ADDED SUBROUTINE, CALLED 3 TIMES, CODE SIZE REDUCTION:3 WORDS
                 SUBOPT_0xBE:
0030fb e0e0      	LDI  R30,LOW(0)
0030fc e0f0      	LDI  R31,HIGH(0)
0030fd 940e 3379 	CALL __GTW12
0030ff 2e0e      	MOV  R0,R30
003100 9508      	RET
                 
                 ;OPTIMIZER ADDED SUBROUTINE, CALLED 11 TIMES, CODE SIZE REDUCTION:17 WORDS
                 SUBOPT_0xBF:
003101 91e0 0533 	LDS  R30,_il_zaciskow_rzad_2
003103 91f0 0534 	LDS  R31,_il_zaciskow_rzad_2+1
003105 9508      	RET
                 
                 ;OPTIMIZER ADDED SUBROUTINE, CALLED 63 TIMES, CODE SIZE REDUCTION:121 WORDS
                 SUBOPT_0xC0:
003106 91a0 055b 	LDS  R26,_rzad_obrabiany
003108 91b0 055c 	LDS  R27,_rzad_obrabiany+1
00310a 9508      	RET
                 
                 ;OPTIMIZER ADDED SUBROUTINE, CALLED 3 TIMES, CODE SIZE REDUCTION:1 WORDS
                 SUBOPT_0xC1:
00310b e0e9      	LDI  R30,LOW(9)
00310c e0f0      	LDI  R31,HIGH(9)
00310d 93fa      	ST   -Y,R31
00310e 93ea      	ST   -Y,R30
00310f 9508      	RET
                 
                 ;OPTIMIZER ADDED SUBROUTINE, CALLED 8 TIMES, CODE SIZE REDUCTION:11 WORDS
                 SUBOPT_0xC2:
003110 93fa      	ST   -Y,R31
003111 93ea      	ST   -Y,R30
003112 cf7a      	RJMP SUBOPT_0xAA
                 
                 ;OPTIMIZER ADDED SUBROUTINE, CALLED 3 TIMES, CODE SIZE REDUCTION:3 WORDS
                 SUBOPT_0xC3:
003113 e0e0      	LDI  R30,LOW(0)
003114 93e0 0559 	STS  _koniec_rzedu_10,R30
003116 93e0 055a 	STS  _koniec_rzedu_10+1,R30
003118 9508      	RET
                 
                 ;OPTIMIZER ADDED SUBROUTINE, CALLED 2 TIMES, CODE SIZE REDUCTION:1 WORDS
                 SUBOPT_0xC4:
003119 e0e1      	LDI  R30,LOW(1)
00311a e0f0      	LDI  R31,HIGH(1)
00311b 93e0 0549 	STS  _cykl_glowny,R30
00311d 93f0 054a 	STS  _cykl_glowny+1,R31
00311f 9508      	RET
                 
                 ;OPTIMIZER ADDED SUBROUTINE, CALLED 2 TIMES, CODE SIZE REDUCTION:4 WORDS
                 SUBOPT_0xC5:
003120 df6f      	RCALL SUBOPT_0xAB
003121 e0e5      	LDI  R30,LOW(5)
003122 e0f0      	LDI  R31,HIGH(5)
003123 940e 3373 	CALL __LTW12
003125 2e0e      	MOV  R0,R30
003126 cfdf      	RJMP SUBOPT_0xC0
                 
                 ;OPTIMIZER ADDED SUBROUTINE, CALLED 8 TIMES, CODE SIZE REDUCTION:18 WORDS
                 SUBOPT_0xC6:
003127 e0e2      	LDI  R30,LOW(2)
003128 e0f0      	LDI  R31,HIGH(2)
003129 940e 3361 	CALL __EQW12
00312b 21e0      	AND  R30,R0
00312c 9508      	RET
                 
                 ;OPTIMIZER ADDED SUBROUTINE, CALLED 15 TIMES, CODE SIZE REDUCTION:25 WORDS
                 SUBOPT_0xC7:
00312d df3b      	RCALL SUBOPT_0xA5
00312e e0e5      	LDI  R30,LOW(5)
00312f e0f0      	LDI  R31,HIGH(5)
003130 9508      	RET
                 
                 ;OPTIMIZER ADDED SUBROUTINE, CALLED 3 TIMES, CODE SIZE REDUCTION:7 WORDS
                 SUBOPT_0xC8:
003131 2e0e      	MOV  R0,R30
003132 df5d      	RCALL SUBOPT_0xAB
003133 e0e5      	LDI  R30,LOW(5)
003134 e0f0      	LDI  R31,HIGH(5)
003135 940e 3361 	CALL __EQW12
003137 9508      	RET
                 
                 ;OPTIMIZER ADDED SUBROUTINE, CALLED 4 TIMES, CODE SIZE REDUCTION:3 WORDS
                 SUBOPT_0xC9:
003138 df57      	RCALL SUBOPT_0xAB
003139 e0e5      	LDI  R30,LOW(5)
00313a e0f0      	LDI  R31,HIGH(5)
00313b 9508      	RET
                 
                 ;OPTIMIZER ADDED SUBROUTINE, CALLED 9 TIMES, CODE SIZE REDUCTION:21 WORDS
                 SUBOPT_0xCA:
00313c e0e0      	LDI  R30,LOW(0)
00313d 93e0 0535 	STS  _cykl_sterownik_1,R30
00313f 93e0 0536 	STS  _cykl_sterownik_1+1,R30
003141 9508      	RET
                 
                 ;OPTIMIZER ADDED SUBROUTINE, CALLED 2 TIMES, CODE SIZE REDUCTION:6 WORDS
                 SUBOPT_0xCB:
003142 e0e0      	LDI  R30,LOW(0)
003143 93e0 0539 	STS  _cykl_sterownik_2,R30
003145 93e0 053a 	STS  _cykl_sterownik_2+1,R30
003147 93e0 053b 	STS  _cykl_sterownik_4,R30
003149 93e0 053c 	STS  _cykl_sterownik_4+1,R30
00314b 9508      	RET
                 
                 ;OPTIMIZER ADDED SUBROUTINE, CALLED 3 TIMES, CODE SIZE REDUCTION:1 WORDS
                 SUBOPT_0xCC:
00314c 93e0 0547 	STS  _szczotka_druc_cykl,R30
00314e 93e0 0548 	STS  _szczotka_druc_cykl+1,R30
003150 9508      	RET
                 
                 ;OPTIMIZER ADDED SUBROUTINE, CALLED 4 TIMES, CODE SIZE REDUCTION:9 WORDS
                 SUBOPT_0xCD:
003151 e0e2      	LDI  R30,LOW(2)
003152 e0f0      	LDI  R31,HIGH(2)
003153 93e0 0549 	STS  _cykl_glowny,R30
003155 93f0 054a 	STS  _cykl_glowny+1,R31
003157 9508      	RET
                 
                 ;OPTIMIZER ADDED SUBROUTINE, CALLED 3 TIMES, CODE SIZE REDUCTION:9 WORDS
                 SUBOPT_0xCE:
                +
003158 91e0 0569+LDS R30 , _a + ( 4 )
00315a 91f0 056a+LDS R31 , _a + ( 4 ) + 1
                 	__GETW1MN _a,4
00315c 93fa      	ST   -Y,R31
00315d 93ea      	ST   -Y,R30
00315e cf0f      	RJMP SUBOPT_0xA6
                 
                 ;OPTIMIZER ADDED SUBROUTINE, CALLED 6 TIMES, CODE SIZE REDUCTION:12 WORDS
                 SUBOPT_0xCF:
00315f e0e0      	LDI  R30,LOW(0)
003160 93e0 053b 	STS  _cykl_sterownik_4,R30
003162 93e0 053c 	STS  _cykl_sterownik_4+1,R30
003164 9508      	RET
                 
                 ;OPTIMIZER ADDED SUBROUTINE, CALLED 2 TIMES, CODE SIZE REDUCTION:1 WORDS
                 SUBOPT_0xD0:
003165 e0e3      	LDI  R30,LOW(3)
003166 e0f0      	LDI  R31,HIGH(3)
003167 93e0 0549 	STS  _cykl_glowny,R30
003169 93f0 054a 	STS  _cykl_glowny+1,R31
00316b 9508      	RET
                 
                 ;OPTIMIZER ADDED SUBROUTINE, CALLED 3 TIMES, CODE SIZE REDUCTION:3 WORDS
                 SUBOPT_0xD1:
00316c 940e 3361 	CALL __EQW12
00316e 2e0e      	MOV  R0,R30
00316f cb11      	RJMP SUBOPT_0x1D
                 
                 ;OPTIMIZER ADDED SUBROUTINE, CALLED 5 TIMES, CODE SIZE REDUCTION:5 WORDS
                 SUBOPT_0xD2:
003170 91a0 0547 	LDS  R26,_szczotka_druc_cykl
003172 91b0 0548 	LDS  R27,_szczotka_druc_cykl+1
003174 9508      	RET
                 
                 ;OPTIMIZER ADDED SUBROUTINE, CALLED 2 TIMES, CODE SIZE REDUCTION:2 WORDS
                 SUBOPT_0xD3:
003175 e4a7      	LDI  R26,LOW(_szczotka_druc_cykl)
003176 e0b5      	LDI  R27,HIGH(_szczotka_druc_cykl)
003177 91ed      	LD   R30,X+
003178 91fd      	LD   R31,X+
003179 9631      	ADIW R30,1
00317a 93fe      	ST   -X,R31
00317b 93ee      	ST   -X,R30
00317c 9508      	RET
                 
                 ;OPTIMIZER ADDED SUBROUTINE, CALLED 2 TIMES, CODE SIZE REDUCTION:1 WORDS
                 SUBOPT_0xD4:
00317d e0e4      	LDI  R30,LOW(4)
00317e e0f0      	LDI  R31,HIGH(4)
00317f 93e0 0549 	STS  _cykl_glowny,R30
003181 93f0 054a 	STS  _cykl_glowny+1,R31
003183 9508      	RET
                 
                 ;OPTIMIZER ADDED SUBROUTINE, CALLED 2 TIMES, CODE SIZE REDUCTION:6 WORDS
                 SUBOPT_0xD5:
003184 e0e0      	LDI  R30,LOW(0)
003185 93e0 054b 	STS  _ruch_zlozony,R30
003187 93e0 054c 	STS  _ruch_zlozony+1,R30
003189 e0e5      	LDI  R30,LOW(5)
00318a e0f0      	LDI  R31,HIGH(5)
00318b 93e0 0549 	STS  _cykl_glowny,R30
00318d 93f0 054a 	STS  _cykl_glowny+1,R31
00318f 9508      	RET
                 
                 ;OPTIMIZER ADDED SUBROUTINE, CALLED 2 TIMES, CODE SIZE REDUCTION:8 WORDS
                 SUBOPT_0xD6:
003190 def7      	RCALL SUBOPT_0xA9
003191 e0e5      	LDI  R30,LOW(5)
003192 e0f0      	LDI  R31,HIGH(5)
003193 940e 3373 	CALL __LTW12
003195 2e0e      	MOV  R0,R30
003196 91a0 054b 	LDS  R26,_ruch_zlozony
003198 91b0 054c 	LDS  R27,_ruch_zlozony+1
00319a ce00      	RJMP SUBOPT_0x8A
                 
                 ;OPTIMIZER ADDED SUBROUTINE, CALLED 3 TIMES, CODE SIZE REDUCTION:3 WORDS
                 SUBOPT_0xD7:
00319b 220e      	AND  R0,R30
00319c df69      	RCALL SUBOPT_0xC0
00319d cd85      	RJMP SUBOPT_0x79
                 
                 ;OPTIMIZER ADDED SUBROUTINE, CALLED 3 TIMES, CODE SIZE REDUCTION:3 WORDS
                 SUBOPT_0xD8:
00319e 220e      	AND  R0,R30
00319f df66      	RCALL SUBOPT_0xC0
0031a0 cf86      	RJMP SUBOPT_0xC6
                 
                 ;OPTIMIZER ADDED SUBROUTINE, CALLED 10 TIMES, CODE SIZE REDUCTION:15 WORDS
                 SUBOPT_0xD9:
0031a1 dee6      	RCALL SUBOPT_0xA9
0031a2 e0e5      	LDI  R30,LOW(5)
0031a3 e0f0      	LDI  R31,HIGH(5)
0031a4 9508      	RET
                 
                 ;OPTIMIZER ADDED SUBROUTINE, CALLED 4 TIMES, CODE SIZE REDUCTION:6 WORDS
                 SUBOPT_0xDA:
0031a5 2e0e      	MOV  R0,R30
0031a6 91a0 054b 	LDS  R26,_ruch_zlozony
0031a8 91b0 054c 	LDS  R27,_ruch_zlozony+1
0031aa 9508      	RET
                 
                 ;OPTIMIZER ADDED SUBROUTINE, CALLED 3 TIMES, CODE SIZE REDUCTION:1 WORDS
                 SUBOPT_0xDB:
0031ab 940e 3373 	CALL __LTW12
0031ad cff7      	RJMP SUBOPT_0xDA
                 
                 ;OPTIMIZER ADDED SUBROUTINE, CALLED 3 TIMES, CODE SIZE REDUCTION:7 WORDS
                 SUBOPT_0xDC:
0031ae 940e 3373 	CALL __LTW12
0031b0 2e0e      	MOV  R0,R30
0031b1 91a0 0559 	LDS  R26,_koniec_rzedu_10
0031b3 91b0 055a 	LDS  R27,_koniec_rzedu_10+1
0031b5 9508      	RET
                 
                 ;OPTIMIZER ADDED SUBROUTINE, CALLED 4 TIMES, CODE SIZE REDUCTION:3 WORDS
                 SUBOPT_0xDD:
0031b6 93fa      	ST   -Y,R31
0031b7 93ea      	ST   -Y,R30
0031b8 cf21      	RJMP SUBOPT_0xB8
                 
                 ;OPTIMIZER ADDED SUBROUTINE, CALLED 3 TIMES, CODE SIZE REDUCTION:1 WORDS
                 SUBOPT_0xDE:
0031b9 93e0 0537 	STS  _cykl_sterownik_3,R30
0031bb 93e0 0538 	STS  _cykl_sterownik_3+1,R30
0031bd 9508      	RET
                 
                 ;OPTIMIZER ADDED SUBROUTINE, CALLED 2 TIMES, CODE SIZE REDUCTION:1 WORDS
                 SUBOPT_0xDF:
0031be e0e6      	LDI  R30,LOW(6)
0031bf e0f0      	LDI  R31,HIGH(6)
0031c0 93e0 0549 	STS  _cykl_glowny,R30
0031c2 93f0 054a 	STS  _cykl_glowny+1,R31
0031c4 9508      	RET
                 
                 ;OPTIMIZER ADDED SUBROUTINE, CALLED 9 TIMES, CODE SIZE REDUCTION:13 WORDS
                 SUBOPT_0xE0:
0031c5 de9b      	RCALL SUBOPT_0xA3
0031c6 e0e5      	LDI  R30,LOW(5)
0031c7 e0f0      	LDI  R31,HIGH(5)
0031c8 9508      	RET
                 
                 ;OPTIMIZER ADDED SUBROUTINE, CALLED 2 TIMES, CODE SIZE REDUCTION:6 WORDS
                 SUBOPT_0xE1:
0031c9 91e0 0531 	LDS  R30,_il_zaciskow_rzad_1
0031cb 91f0 0532 	LDS  R31,_il_zaciskow_rzad_1+1
0031cd 9731      	SBIW R30,1
0031ce 91a0 0551 	LDS  R26,_cykl_ilosc_zaciskow
0031d0 91b0 0552 	LDS  R27,_cykl_ilosc_zaciskow+1
0031d2 940e 3367 	CALL __NEW12
0031d4 9508      	RET
                 
                 ;OPTIMIZER ADDED SUBROUTINE, CALLED 2 TIMES, CODE SIZE REDUCTION:4 WORDS
                 SUBOPT_0xE2:
0031d5 df2b      	RCALL SUBOPT_0xBF
0031d6 9731      	SBIW R30,1
0031d7 91a0 0551 	LDS  R26,_cykl_ilosc_zaciskow
0031d9 91b0 0552 	LDS  R27,_cykl_ilosc_zaciskow+1
0031db 940e 3367 	CALL __NEW12
0031dd 9508      	RET
                 
                 ;OPTIMIZER ADDED SUBROUTINE, CALLED 17 TIMES, CODE SIZE REDUCTION:29 WORDS
                 SUBOPT_0xE3:
0031de 91a0 0551 	LDS  R26,_cykl_ilosc_zaciskow
0031e0 91b0 0552 	LDS  R27,_cykl_ilosc_zaciskow+1
0031e2 9508      	RET
                 
                 ;OPTIMIZER ADDED SUBROUTINE, CALLED 2 TIMES, CODE SIZE REDUCTION:4 WORDS
                 SUBOPT_0xE4:
0031e3 e0e0      	LDI  R30,LOW(0)
0031e4 93e0 0525 	STS  _sek12,R30
0031e6 93e0 0526 	STS  _sek12+1,R30
0031e8 93e0 0527 	STS  _sek12+2,R30
0031ea 93e0 0528 	STS  _sek12+3,R30
0031ec 9508      	RET
                 
                 ;OPTIMIZER ADDED SUBROUTINE, CALLED 4 TIMES, CODE SIZE REDUCTION:6 WORDS
                 SUBOPT_0xE5:
0031ed 91e0 0500 	LDS  R30,_PORT_F
0031ef 61e0      	ORI  R30,0x10
0031f0 ce03      	RJMP SUBOPT_0x95
                 
                 ;OPTIMIZER ADDED SUBROUTINE, CALLED 2 TIMES, CODE SIZE REDUCTION:1 WORDS
                 SUBOPT_0xE6:
0031f1 e0e7      	LDI  R30,LOW(7)
0031f2 e0f0      	LDI  R31,HIGH(7)
0031f3 93e0 0549 	STS  _cykl_glowny,R30
0031f5 93f0 054a 	STS  _cykl_glowny+1,R31
0031f7 9508      	RET
                 
                 ;OPTIMIZER ADDED SUBROUTINE, CALLED 2 TIMES, CODE SIZE REDUCTION:1 WORDS
                 SUBOPT_0xE7:
0031f8 e0e8      	LDI  R30,LOW(8)
0031f9 e0f0      	LDI  R31,HIGH(8)
0031fa 93e0 0549 	STS  _cykl_glowny,R30
0031fc 93f0 054a 	STS  _cykl_glowny+1,R31
0031fe 9508      	RET
                 
                 ;OPTIMIZER ADDED SUBROUTINE, CALLED 2 TIMES, CODE SIZE REDUCTION:11 WORDS
                 SUBOPT_0xE8:
0031ff 91e0 0563 	LDS  R30,_czas_przedmuchu
003201 91f0 0564 	LDS  R31,_czas_przedmuchu+1
003203 91a0 0525 	LDS  R26,_sek12
003205 91b0 0526 	LDS  R27,_sek12+1
003207 9180 0527 	LDS  R24,_sek12+2
003209 9190 0528 	LDS  R25,_sek12+3
00320b 940e 3352 	CALL __CWD1
00320d 940e 33c6 	CALL __CPD12
00320f 9508      	RET
                 
                 ;OPTIMIZER ADDED SUBROUTINE, CALLED 4 TIMES, CODE SIZE REDUCTION:6 WORDS
                 SUBOPT_0xE9:
003210 91e0 0500 	LDS  R30,_PORT_F
003212 7eef      	ANDI R30,0xEF
003213 cde0      	RJMP SUBOPT_0x95
                 
                 ;OPTIMIZER ADDED SUBROUTINE, CALLED 2 TIMES, CODE SIZE REDUCTION:8 WORDS
                 SUBOPT_0xEA:
003214 91a0 054d 	LDS  R26,_krazek_scierny_cykl_po_okregu
003216 91b0 054e 	LDS  R27,_krazek_scierny_cykl_po_okregu+1
003218 940e 3373 	CALL __LTW12
00321a 220e      	AND  R0,R30
00321b 91a0 0553 	LDS  R26,_wykonalem_komplet_okregow
00321d 91b0 0554 	LDS  R27,_wykonalem_komplet_okregow+1
00321f cd7b      	RJMP SUBOPT_0x8A
                 
                 ;OPTIMIZER ADDED SUBROUTINE, CALLED 4 TIMES, CODE SIZE REDUCTION:6 WORDS
                 SUBOPT_0xEB:
003220 91ed      	LD   R30,X+
003221 91fd      	LD   R31,X+
003222 9631      	ADIW R30,1
003223 93fe      	ST   -X,R31
003224 93ee      	ST   -X,R30
003225 9508      	RET
                 
                 ;OPTIMIZER ADDED SUBROUTINE, CALLED 2 TIMES, CODE SIZE REDUCTION:2 WORDS
                 SUBOPT_0xEC:
003226 940e 3361 	CALL __EQW12
003228 2e0e      	MOV  R0,R30
003229 91a0 0553 	LDS  R26,_wykonalem_komplet_okregow
00322b 91b0 0554 	LDS  R27,_wykonalem_komplet_okregow+1
00322d 9508      	RET
                 
                 ;OPTIMIZER ADDED SUBROUTINE, CALLED 2 TIMES, CODE SIZE REDUCTION:2 WORDS
                 SUBOPT_0xED:
00322e 940e 3373 	CALL __LTW12
003230 2e0e      	MOV  R0,R30
003231 91a0 0557 	LDS  R26,_abs_ster4
003233 91b0 0558 	LDS  R27,_abs_ster4+1
003235 9508      	RET
                 
                 ;OPTIMIZER ADDED SUBROUTINE, CALLED 4 TIMES, CODE SIZE REDUCTION:12 WORDS
                 SUBOPT_0xEE:
003236 220e      	AND  R0,R30
003237 91a0 058d 	LDS  R26,_powrot_przedwczesny_druciak
003239 91b0 058e 	LDS  R27,_powrot_przedwczesny_druciak+1
00323b cd5f      	RJMP SUBOPT_0x8A
                 
                 ;OPTIMIZER ADDED SUBROUTINE, CALLED 2 TIMES, CODE SIZE REDUCTION:2 WORDS
                 SUBOPT_0xEF:
00323c 940e 3373 	CALL __LTW12
00323e 2e0e      	MOV  R0,R30
00323f 91a0 0555 	LDS  R26,_abs_ster3
003241 91b0 0556 	LDS  R27,_abs_ster3+1
003243 9508      	RET
                 
                 ;OPTIMIZER ADDED SUBROUTINE, CALLED 3 TIMES, CODE SIZE REDUCTION:1 WORDS
                 SUBOPT_0xF0:
003244 91a0 054f 	LDS  R26,_krazek_scierny_cykl
003246 91b0 0550 	LDS  R27,_krazek_scierny_cykl+1
003248 9508      	RET
                 
                 ;OPTIMIZER ADDED SUBROUTINE, CALLED 2 TIMES, CODE SIZE REDUCTION:1 WORDS
                 SUBOPT_0xF1:
003249 91a0 058d 	LDS  R26,_powrot_przedwczesny_druciak
00324b 91b0 058e 	LDS  R27,_powrot_przedwczesny_druciak+1
00324d ccd5      	RJMP SUBOPT_0x79
                 
                 ;OPTIMIZER ADDED SUBROUTINE, CALLED 2 TIMES, CODE SIZE REDUCTION:1 WORDS
                 SUBOPT_0xF2:
00324e e0e9      	LDI  R30,LOW(9)
00324f e0f0      	LDI  R31,HIGH(9)
003250 93e0 0549 	STS  _cykl_glowny,R30
003252 93f0 054a 	STS  _cykl_glowny+1,R31
003254 9508      	RET
                 
                 ;OPTIMIZER ADDED SUBROUTINE, CALLED 3 TIMES, CODE SIZE REDUCTION:7 WORDS
                 SUBOPT_0xF3:
003255 940e 3373 	CALL __LTW12
003257 2e0e      	MOV  R0,R30
003258 91e0 0531 	LDS  R30,_il_zaciskow_rzad_1
00325a 91f0 0532 	LDS  R31,_il_zaciskow_rzad_1+1
00325c 9508      	RET
                 
                 ;OPTIMIZER ADDED SUBROUTINE, CALLED 2 TIMES, CODE SIZE REDUCTION:1 WORDS
                 SUBOPT_0xF4:
00325d 9732      	SBIW R30,2
00325e df7f      	RCALL SUBOPT_0xE3
00325f 940e 3373 	CALL __LTW12
003261 21e0      	AND  R30,R0
003262 9508      	RET
                 
                 ;OPTIMIZER ADDED SUBROUTINE, CALLED 2 TIMES, CODE SIZE REDUCTION:1 WORDS
                 SUBOPT_0xF5:
003263 9731      	SBIW R30,1
003264 df79      	RCALL SUBOPT_0xE3
003265 940e 3361 	CALL __EQW12
003267 21e0      	AND  R30,R0
003268 9508      	RET
                 
                 ;OPTIMIZER ADDED SUBROUTINE, CALLED 2 TIMES, CODE SIZE REDUCTION:1 WORDS
                 SUBOPT_0xF6:
003269 9732      	SBIW R30,2
00326a df73      	RCALL SUBOPT_0xE3
00326b 940e 336d 	CALL __GEW12
00326d 21e0      	AND  R30,R0
00326e 9508      	RET
                 
                 ;OPTIMIZER ADDED SUBROUTINE, CALLED 3 TIMES, CODE SIZE REDUCTION:3 WORDS
                 SUBOPT_0xF7:
00326f 940e 3373 	CALL __LTW12
003271 2e0e      	MOV  R0,R30
003272 ce8e      	RJMP SUBOPT_0xBF
                 
                 ;OPTIMIZER ADDED SUBROUTINE, CALLED 2 TIMES, CODE SIZE REDUCTION:1 WORDS
                 SUBOPT_0xF8:
003273 e0ea      	LDI  R30,LOW(10)
003274 e0f0      	LDI  R31,HIGH(10)
003275 93e0 0549 	STS  _cykl_glowny,R30
003277 93f0 054a 	STS  _cykl_glowny+1,R31
003279 9508      	RET
                 
                 ;OPTIMIZER ADDED SUBROUTINE, CALLED 2 TIMES, CODE SIZE REDUCTION:5 WORDS
                 SUBOPT_0xF9:
00327a 2e0e      	MOV  R0,R30
00327b 91a0 0549 	LDS  R26,_cykl_glowny
00327d 91b0 054a 	LDS  R27,_cykl_glowny+1
00327f e0e0      	LDI  R30,LOW(0)
003280 e0f0      	LDI  R31,HIGH(0)
003281 940e 3367 	CALL __NEW12
003283 21e0      	AND  R30,R0
003284 9508      	RET
                 
                 ;OPTIMIZER ADDED SUBROUTINE, CALLED 2 TIMES, CODE SIZE REDUCTION:1 WORDS
                 SUBOPT_0xFA:
003285 91e0 0551 	LDS  R30,_cykl_ilosc_zaciskow
003287 91f0 0552 	LDS  R31,_cykl_ilosc_zaciskow+1
003289 c991      	RJMP SUBOPT_0xE
                 
                 ;OPTIMIZER ADDED SUBROUTINE, CALLED 2 TIMES, CODE SIZE REDUCTION:2 WORDS
                 SUBOPT_0xFB:
00328a 91e0 0531 	LDS  R30,_il_zaciskow_rzad_1
00328c 91f0 0532 	LDS  R31,_il_zaciskow_rzad_1+1
00328e 9731      	SBIW R30,1
00328f cf4e      	RJMP SUBOPT_0xE3
                 
                 ;OPTIMIZER ADDED SUBROUTINE, CALLED 4 TIMES, CODE SIZE REDUCTION:9 WORDS
                 SUBOPT_0xFC:
003290 e0e5      	LDI  R30,LOW(5)
003291 e0f0      	LDI  R31,HIGH(5)
003292 93e0 0549 	STS  _cykl_glowny,R30
003294 93f0 054a 	STS  _cykl_glowny+1,R31
003296 9508      	RET
                 
                 ;OPTIMIZER ADDED SUBROUTINE, CALLED 2 TIMES, CODE SIZE REDUCTION:1 WORDS
                 SUBOPT_0xFD:
003297 e0e1      	LDI  R30,LOW(1)
003298 e0f0      	LDI  R31,HIGH(1)
003299 93e0 0559 	STS  _koniec_rzedu_10,R30
00329b 93f0 055a 	STS  _koniec_rzedu_10+1,R31
00329d 9508      	RET
                 
                 ;OPTIMIZER ADDED SUBROUTINE, CALLED 2 TIMES, CODE SIZE REDUCTION:6 WORDS
                 SUBOPT_0xFE:
00329e 91e0 0531 	LDS  R30,_il_zaciskow_rzad_1
0032a0 91f0 0532 	LDS  R31,_il_zaciskow_rzad_1+1
0032a2 df3b      	RCALL SUBOPT_0xE3
0032a3 940e 3361 	CALL __EQW12
0032a5 2e0e      	MOV  R0,R30
0032a6 cd8e      	RJMP SUBOPT_0x9E
                 
                 ;OPTIMIZER ADDED SUBROUTINE, CALLED 16 TIMES, CODE SIZE REDUCTION:27 WORDS
                 SUBOPT_0xFF:
0032a7 93e0 0549 	STS  _cykl_glowny,R30
0032a9 93f0 054a 	STS  _cykl_glowny+1,R31
0032ab 9508      	RET
                 
                 ;OPTIMIZER ADDED SUBROUTINE, CALLED 3 TIMES, CODE SIZE REDUCTION:11 WORDS
                 SUBOPT_0x100:
0032ac de54      	RCALL SUBOPT_0xBF
0032ad df30      	RCALL SUBOPT_0xE3
0032ae 940e 3361 	CALL __EQW12
0032b0 2e0e      	MOV  R0,R30
0032b1 cdfe      	RJMP SUBOPT_0xB0
                 
                 ;OPTIMIZER ADDED SUBROUTINE, CALLED 3 TIMES, CODE SIZE REDUCTION:9 WORDS
                 SUBOPT_0x101:
0032b2 e0e0      	LDI  R30,LOW(0)
0032b3 93e0 0539 	STS  _cykl_sterownik_2,R30
0032b5 93e0 053a 	STS  _cykl_sterownik_2+1,R30
0032b7 de4e      	RCALL SUBOPT_0xC0
0032b8 9711      	SBIW R26,1
0032b9 9508      	RET
                 
                 ;OPTIMIZER ADDED SUBROUTINE, CALLED 4 TIMES, CODE SIZE REDUCTION:3 WORDS
                 SUBOPT_0x102:
0032ba e0ed      	LDI  R30,LOW(13)
0032bb e0f0      	LDI  R31,HIGH(13)
0032bc cfea      	RJMP SUBOPT_0xFF
                 
                 ;OPTIMIZER ADDED SUBROUTINE, CALLED 4 TIMES, CODE SIZE REDUCTION:3 WORDS
                 SUBOPT_0x103:
0032bd e1e0      	LDI  R30,LOW(16)
0032be e0f0      	LDI  R31,HIGH(16)
0032bf cfe7      	RJMP SUBOPT_0xFF
                 
                 ;OPTIMIZER ADDED SUBROUTINE, CALLED 4 TIMES, CODE SIZE REDUCTION:3 WORDS
                 SUBOPT_0x104:
0032c0 91a0 055f 	LDS  R26,_wykonalem_rzedow
0032c2 91b0 0560 	LDS  R27,_wykonalem_rzedow+1
0032c4 9508      	RET
                 
                 ;OPTIMIZER ADDED SUBROUTINE, CALLED 5 TIMES, CODE SIZE REDUCTION:21 WORDS
                 SUBOPT_0x105:
0032c5 932a      	ST   -Y,R18
0032c6 85ed      	LDD  R30,Y+13
0032c7 85fe      	LDD  R31,Y+13+1
0032c8 93fa      	ST   -Y,R31
0032c9 93ea      	ST   -Y,R30
0032ca 89e9      	LDD  R30,Y+17
0032cb 89fa      	LDD  R31,Y+17+1
0032cc 9509      	ICALL
0032cd 9508      	RET
                 
                 ;OPTIMIZER ADDED SUBROUTINE, CALLED 5 TIMES, CODE SIZE REDUCTION:9 WORDS
                 SUBOPT_0x106:
0032ce 89e8      	LDD  R30,Y+16
0032cf 89f9      	LDD  R31,Y+16+1
0032d0 9734      	SBIW R30,4
0032d1 8be8      	STD  Y+16,R30
0032d2 8bf9      	STD  Y+16+1,R31
0032d3 9508      	RET
                 
                 ;OPTIMIZER ADDED SUBROUTINE, CALLED 3 TIMES, CODE SIZE REDUCTION:7 WORDS
                 SUBOPT_0x107:
0032d4 85ed      	LDD  R30,Y+13
0032d5 85fe      	LDD  R31,Y+13+1
0032d6 93fa      	ST   -Y,R31
0032d7 93ea      	ST   -Y,R30
0032d8 89e9      	LDD  R30,Y+17
0032d9 89fa      	LDD  R31,Y+17+1
0032da 9509      	ICALL
0032db 9508      	RET
                 
                 ;OPTIMIZER ADDED SUBROUTINE, CALLED 2 TIMES, CODE SIZE REDUCTION:4 WORDS
                 SUBOPT_0x108:
0032dc 89a8      	LDD  R26,Y+16
0032dd 89b9      	LDD  R27,Y+16+1
0032de 9614      	ADIW R26,4
0032df 940e 337f 	CALL __GETW1P
0032e1 83ee      	STD  Y+6,R30
0032e2 83ff      	STD  Y+6+1,R31
0032e3 c92c      	RJMP SUBOPT_0xC
                 
                 ;OPTIMIZER ADDED SUBROUTINE, CALLED 2 TIMES, CODE SIZE REDUCTION:2 WORDS
                 SUBOPT_0x109:
0032e4 89a8      	LDD  R26,Y+16
0032e5 89b9      	LDD  R27,Y+16+1
0032e6 9614      	ADIW R26,4
0032e7 940e 337f 	CALL __GETW1P
0032e9 87ea      	STD  Y+10,R30
0032ea 87fb      	STD  Y+10+1,R31
0032eb 9508      	RET
                 
                 
                 	.CSEG
                 	.equ __i2c_dir=__i2c_port-1
                 	.equ __i2c_pin=__i2c_port-2
                 _i2c_init:
0032ec 9890      	cbi  __i2c_port,__scl_bit
0032ed 9891      	cbi  __i2c_port,__sda_bit
0032ee 9a88      	sbi  __i2c_dir,__scl_bit
0032ef 9889      	cbi  __i2c_dir,__sda_bit
0032f0 c015      	rjmp __i2c_delay2
                 _i2c_start:
0032f1 9889      	cbi  __i2c_dir,__sda_bit
0032f2 9888      	cbi  __i2c_dir,__scl_bit
0032f3 27ee      	clr  r30
0032f4 0000      	nop
0032f5 9b81      	sbis __i2c_pin,__sda_bit
0032f6 9508      	ret
0032f7 9b80      	sbis __i2c_pin,__scl_bit
0032f8 9508      	ret
0032f9 d004      	rcall __i2c_delay1
0032fa 9a89      	sbi  __i2c_dir,__sda_bit
0032fb d002      	rcall __i2c_delay1
0032fc 9a88      	sbi  __i2c_dir,__scl_bit
0032fd e0e1      	ldi  r30,1
                 __i2c_delay1:
0032fe e16b      	ldi  r22,27
0032ff c007      	rjmp __i2c_delay2l
                 _i2c_stop:
003300 9a89      	sbi  __i2c_dir,__sda_bit
003301 9a88      	sbi  __i2c_dir,__scl_bit
003302 d003      	rcall __i2c_delay2
003303 9888      	cbi  __i2c_dir,__scl_bit
003304 dff9      	rcall __i2c_delay1
003305 9889      	cbi  __i2c_dir,__sda_bit
                 __i2c_delay2:
003306 e365      	ldi  r22,53
                 __i2c_delay2l:
003307 956a      	dec  r22
003308 f7f1      	brne __i2c_delay2l
003309 9508      	ret
                 _i2c_read:
00330a e078      	ldi  r23,8
                 __i2c_read0:
00330b 9888      	cbi  __i2c_dir,__scl_bit
00330c dff1      	rcall __i2c_delay1
                 __i2c_read3:
00330d 9b80      	sbis __i2c_pin,__scl_bit
00330e cffe      	rjmp __i2c_read3
00330f dfee      	rcall __i2c_delay1
003310 9488      	clc
003311 9981      	sbic __i2c_pin,__sda_bit
003312 9408      	sec
003313 9a88      	sbi  __i2c_dir,__scl_bit
003314 dff1      	rcall __i2c_delay2
003315 1fee      	rol  r30
003316 957a      	dec  r23
003317 f799      	brne __i2c_read0
003318 9179      	ld   r23,y+
003319 2377      	tst  r23
00331a f411      	brne __i2c_read1
00331b 9889      	cbi  __i2c_dir,__sda_bit
00331c c001      	rjmp __i2c_read2
                 __i2c_read1:
00331d 9a89      	sbi  __i2c_dir,__sda_bit
                 __i2c_read2:
00331e dfdf      	rcall __i2c_delay1
00331f 9888      	cbi  __i2c_dir,__scl_bit
003320 dfe5      	rcall __i2c_delay2
003321 9a88      	sbi  __i2c_dir,__scl_bit
003322 dfdb      	rcall __i2c_delay1
003323 9889      	cbi  __i2c_dir,__sda_bit
003324 cfd9      	rjmp __i2c_delay1
                 
                 _i2c_write:
003325 91e9      	ld   r30,y+
003326 e078      	ldi  r23,8
                 __i2c_write0:
003327 0fee      	lsl  r30
003328 f410      	brcc __i2c_write1
003329 9889      	cbi  __i2c_dir,__sda_bit
00332a c001      	rjmp __i2c_write2
                 __i2c_write1:
00332b 9a89      	sbi  __i2c_dir,__sda_bit
                 __i2c_write2:
00332c dfd9      	rcall __i2c_delay2
00332d 9888      	cbi  __i2c_dir,__scl_bit
00332e dfcf      	rcall __i2c_delay1
                 __i2c_write3:
00332f 9b80      	sbis __i2c_pin,__scl_bit
003330 cffe      	rjmp __i2c_write3
003331 dfcc      	rcall __i2c_delay1
003332 9a88      	sbi  __i2c_dir,__scl_bit
003333 957a      	dec  r23
003334 f791      	brne __i2c_write0
003335 9889      	cbi  __i2c_dir,__sda_bit
003336 dfc7      	rcall __i2c_delay1
003337 9888      	cbi  __i2c_dir,__scl_bit
003338 dfcd      	rcall __i2c_delay2
003339 e0e1      	ldi  r30,1
00333a 9981      	sbic __i2c_pin,__sda_bit
00333b 27ee      	clr  r30
00333c 9a88      	sbi  __i2c_dir,__scl_bit
00333d cfc0      	rjmp __i2c_delay1
                 
                 _delay_ms:
00333e 91e9      	ld   r30,y+
00333f 91f9      	ld   r31,y+
003340 9630      	adiw r30,0
003341 f039      	breq __delay_ms1
                 __delay_ms0:
                +
003342 ea80     +LDI R24 , LOW ( 0xFA0 )
003343 e09f     +LDI R25 , HIGH ( 0xFA0 )
                +__DELAY_USW_LOOP :
003344 9701     +SBIW R24 , 1
003345 f7f1     +BRNE __DELAY_USW_LOOP
                 	__DELAY_USW 0xFA0
003346 95a8      	wdr
003347 9731      	sbiw r30,1
003348 f7c9      	brne __delay_ms0
                 __delay_ms1:
003349 9508      	ret
                 
                 __ADDW2R15:
00334a 2400      	CLR  R0
00334b 0daf      	ADD  R26,R15
00334c 1db0      	ADC  R27,R0
00334d 9508      	RET
                 
                 __ANEGW1:
00334e 95f1      	NEG  R31
00334f 95e1      	NEG  R30
003350 40f0      	SBCI R31,0
003351 9508      	RET
                 
                 __CWD1:
003352 2f6f      	MOV  R22,R31
003353 0f66      	ADD  R22,R22
003354 0b66      	SBC  R22,R22
003355 2f76      	MOV  R23,R22
003356 9508      	RET
                 
                 __CWD2:
003357 2f8b      	MOV  R24,R27
003358 0f88      	ADD  R24,R24
003359 0b88      	SBC  R24,R24
00335a 2f98      	MOV  R25,R24
00335b 9508      	RET
                 
                 __EQB12:
00335c 17ea      	CP   R30,R26
00335d e0e1      	LDI  R30,1
00335e f009      	BREQ __EQB12T
00335f 27ee      	CLR  R30
                 __EQB12T:
003360 9508      	RET
                 
                 __EQW12:
003361 17ea      	CP   R30,R26
003362 07fb      	CPC  R31,R27
003363 e0e1      	LDI  R30,1
003364 f009      	BREQ __EQW12T
003365 27ee      	CLR  R30
                 __EQW12T:
003366 9508      	RET
                 
                 __NEW12:
003367 17ea      	CP   R30,R26
003368 07fb      	CPC  R31,R27
003369 e0e1      	LDI  R30,1
00336a f409      	BRNE __NEW12T
00336b 27ee      	CLR  R30
                 __NEW12T:
00336c 9508      	RET
                 
                 __GEW12:
00336d 17ae      	CP   R26,R30
00336e 07bf      	CPC  R27,R31
00336f e0e1      	LDI  R30,1
003370 f40c      	BRGE __GEW12T
003371 27ee      	CLR  R30
                 __GEW12T:
003372 9508      	RET
                 
                 __LTW12:
003373 17ae      	CP   R26,R30
003374 07bf      	CPC  R27,R31
003375 e0e1      	LDI  R30,1
003376 f00c      	BRLT __LTW12T
003377 27ee      	CLR  R30
                 __LTW12T:
003378 9508      	RET
                 
                 __GTW12:
003379 17ea      	CP   R30,R26
00337a 07fb      	CPC  R31,R27
00337b e0e1      	LDI  R30,1
00337c f00c      	BRLT __GTW12T
00337d 27ee      	CLR  R30
                 __GTW12T:
00337e 9508      	RET
                 
                 __GETW1P:
00337f 91ed      	LD   R30,X+
003380 91fc      	LD   R31,X
003381 9711      	SBIW R26,1
003382 9508      	RET
                 
                 __GETD1P_INC:
003383 91ed      	LD   R30,X+
003384 91fd      	LD   R31,X+
003385 916d      	LD   R22,X+
003386 917d      	LD   R23,X+
003387 9508      	RET
                 
                 __PUTDP1_DEC:
003388 937e      	ST   -X,R23
003389 936e      	ST   -X,R22
00338a 93fe      	ST   -X,R31
00338b 93ee      	ST   -X,R30
00338c 9508      	RET
                 
                 __GETW1PF:
00338d 9005      	LPM  R0,Z+
00338e 91f4      	LPM  R31,Z
00338f 2de0      	MOV  R30,R0
003390 9508      	RET
                 
                 __PUTPARL:
003391 27bb      	CLR  R27
                 __PUTPAR:
003392 0fea      	ADD  R30,R26
003393 1ffb      	ADC  R31,R27
                 __PUTPAR0:
003394 9002      	LD   R0,-Z
003395 920a      	ST   -Y,R0
003396 9711      	SBIW R26,1
003397 f7e1      	BRNE __PUTPAR0
003398 9508      	RET
                 
                 __EEPROMRDW:
003399 9611      	ADIW R26,1
00339a d002      	RCALL __EEPROMRDB
00339b 2ffe      	MOV  R31,R30
00339c 9711      	SBIW R26,1
                 
                 __EEPROMRDB:
00339d 99e1      	SBIC EECR,EEWE
00339e cffe      	RJMP __EEPROMRDB
00339f 93ff      	PUSH R31
0033a0 b7ff      	IN   R31,SREG
0033a1 94f8      	CLI
0033a2 bbae      	OUT  EEARL,R26
0033a3 bbbf      	OUT  EEARH,R27
0033a4 9ae0      	SBI  EECR,EERE
0033a5 b3ed      	IN   R30,EEDR
0033a6 bfff      	OUT  SREG,R31
0033a7 91ff      	POP  R31
0033a8 9508      	RET
                 
                 __EEPROMWRW:
0033a9 d007      	RCALL __EEPROMWRB
0033aa 9611      	ADIW R26,1
0033ab 93ef      	PUSH R30
0033ac 2fef      	MOV  R30,R31
0033ad d003      	RCALL __EEPROMWRB
0033ae 91ef      	POP  R30
0033af 9711      	SBIW R26,1
0033b0 9508      	RET
                 
                 __EEPROMWRB:
0033b1 9be1      	SBIS EECR,EEWE
0033b2 c002      	RJMP __EEPROMWRB1
0033b3 95a8      	WDR
0033b4 cffc      	RJMP __EEPROMWRB
                 __EEPROMWRB1:
0033b5 b79f      	IN   R25,SREG
0033b6 94f8      	CLI
0033b7 bbae      	OUT  EEARL,R26
0033b8 bbbf      	OUT  EEARH,R27
0033b9 9ae0      	SBI  EECR,EERE
0033ba b38d      	IN   R24,EEDR
0033bb 17e8      	CP   R30,R24
0033bc f019      	BREQ __EEPROMWRB0
0033bd bbed      	OUT  EEDR,R30
0033be 9ae2      	SBI  EECR,EEMWE
0033bf 9ae1      	SBI  EECR,EEWE
                 __EEPROMWRB0:
0033c0 bf9f      	OUT  SREG,R25
0033c1 9508      	RET
                 
                 __CPW02:
0033c2 2400      	CLR  R0
0033c3 160a      	CP   R0,R26
0033c4 060b      	CPC  R0,R27
0033c5 9508      	RET
                 
                 __CPD12:
0033c6 17ea      	CP   R30,R26
0033c7 07fb      	CPC  R31,R27
0033c8 0768      	CPC  R22,R24
0033c9 0779      	CPC  R23,R25
0033ca 9508      	RET
                 
                 __SAVELOCR6:
0033cb 935a      	ST   -Y,R21
                 __SAVELOCR5:
0033cc 934a      	ST   -Y,R20
                 __SAVELOCR4:
0033cd 933a      	ST   -Y,R19
                 __SAVELOCR3:
0033ce 932a      	ST   -Y,R18
                 __SAVELOCR2:
0033cf 931a      	ST   -Y,R17
0033d0 930a      	ST   -Y,R16
0033d1 9508      	RET
                 
                 __LOADLOCR6:
0033d2 815d      	LDD  R21,Y+5
                 __LOADLOCR5:
0033d3 814c      	LDD  R20,Y+4
                 __LOADLOCR4:
0033d4 813b      	LDD  R19,Y+3
                 __LOADLOCR3:
0033d5 812a      	LDD  R18,Y+2
                 __LOADLOCR2:
0033d6 8119      	LDD  R17,Y+1
0033d7 8108      	LD   R16,Y
0033d8 9508      	RET
                 
                 ;END OF CODE MARKER
                 __END_OF_CODE:


RESOURCE USE INFORMATION
------------------------

Notice:
The register and instruction counts are symbol table hit counts,
and hence implicitly used resources are not counted, eg, the
'lpm' instruction without operands implicitly uses r0 and z,
none of which are counted.

x,y,z are separate entities in the symbol table and are
counted separately from r26..r31 here.

.dseg memory usage only counts static data declared with .byte

ATmega128 register use summary:
r0 : 166 r1 :  11 r2 :   3 r3 :   0 r4 :   0 r5 :   0 r6 :   0 r7 :   0 
r8 :   8 r9 :   3 r10:   4 r11:   1 r12:   7 r13:   4 r14:   0 r15:   4 
r16: 225 r17:  58 r18:  37 r19:  13 r20:  16 r21:  21 r22:  19 r23:  13 
r24:  33 r25:  18 r26:1198 r27: 306 r28:  22 r29:   1 r30:2337 r31:1315 
x  : 303 y  : 392 z  : 124 
Registers used: 29 out of 35 (82.9%)

ATmega128 instruction use summary:
.lds  :   0 .lds.l:   0 .sts  :   0 .sts.l:   0 adc   :   3 add   :   6 
adiw  :  40 and   :  74 andi  :  69 asr   :   0 bclr  :   0 bld   :   3 
brbc  :   0 brbs  :   0 brcc  :   1 brcs  :   0 break :   0 breq  : 153 
brge  :  56 brhc  :   0 brhs  :   0 brid  :   0 brie  :   0 brlo  :   6 
brlt  :  10 brmi  :   0 brne  : 509 brpl  :   1 brsh  :   2 brtc  :   0 
brts  :   0 brvc  :   0 brvs  :   0 bset  :   0 bst   :   0 call  :2360 
cbi   :  70 cbr   :   0 clc   :   1 clh   :   0 cli   :   3 cln   :   0 
clr   :  26 cls   :   0 clt   :   0 clv   :   0 clz   :   0 com   :   0 
cp    :  25 cpc   : 236 cpi   : 438 cpse  :   0 dec   :   4 des   :   0 
elpm  :   0 eor   :   0 fmul  :   0 fmuls :   0 fmulsu:   0 icall :   2 
ijmp  :   0 in    :   6 inc   :   0 jmp   :  83 ld    :  50 ldd   :  97 
ldi   :2131 lds   : 392 lpm   :  14 lsl   :  17 lsr   :  15 mov   :  82 
movw  : 182 mul   :   1 muls  :   0 mulsu :   0 neg   :   2 nop   :   1 
or    :  34 ori   :  10 out   :  56 pop   :  22 push  :  22 rcall : 113 
ret   : 238 reti  :   1 rjmp  : 375 rol   :   4 ror   :   4 sbc   :   3 
sbci  :   6 sbi   :  61 sbic  :   6 sbis  :   8 sbiw  : 163 sbr   :   0 
sbrc  :   2 sbrs  :  10 sec   :   1 seh   :   0 sei   :   1 sen   :   0 
ser   :   0 ses   :   0 set   :   1 sev   :   0 sez   :   0 sleep :   0 
spm   :   0 st    : 487 std   : 173 sts   : 261 sub   :   1 subi  :  16 
swap  :   7 tst   :   4 wdr   :   2 
Instructions used: 68 out of 117 (58.1%)

ATmega128 memory use summary [bytes]:
Segment   Begin    End      Code   Data   Used    Size   Use%
---------------------------------------------------------------
[.cseg] 0x000000 0x0067b2  24714   1832  26546  131072  20.3%
[.dseg] 0x000100 0x000593      0    147    147    4351   3.4%
[.eseg] 0x000000 0x00000e      0     14     14    4096   0.3%

Assembly complete, 0 errors, 7 warnings
