
AVRASM ver. 2.1.30  C:\cvavreval\BORG\v2\Master\List\Borg.asm Fri Feb 22 08:11:32 2019

C:\cvavreval\BORG\v2\Master\List\Borg.asm(1061): warning: Register r4 already defined by the .DEF directive
C:\cvavreval\BORG\v2\Master\List\Borg.asm(1062): warning: Register r6 already defined by the .DEF directive
C:\cvavreval\BORG\v2\Master\List\Borg.asm(1063): warning: Register r8 already defined by the .DEF directive
C:\cvavreval\BORG\v2\Master\List\Borg.asm(1064): warning: Register r10 already defined by the .DEF directive
C:\cvavreval\BORG\v2\Master\List\Borg.asm(1065): warning: Register r12 already defined by the .DEF directive
                 
                 
                 ;CodeVisionAVR C Compiler V2.05.0 Professional
                 ;(C) Copyright 1998-2010 Pavel Haiduc, HP InfoTech s.r.l.
                 ;http://www.hpinfotech.com
                 
                 ;Chip type                : ATmega128
                 ;Program type             : Application
                 ;Clock frequency          : 16.000000 MHz
                 ;Memory model             : Small
                 ;Optimize for             : Size
                 ;(s)printf features       : int, width
                 ;(s)scanf features        : int, width
                 ;External RAM size        : 0
                 ;Data Stack size          : 1024 byte(s)
                 ;Heap size                : 0 byte(s)
                 ;Promote 'char' to 'int'  : Yes
                 ;'char' is unsigned       : Yes
                 ;8 bit enums              : Yes
                 ;global 'const' stored in FLASH: No
                 ;Enhanced core instructions    : On
                 ;Smart register allocation     : On
                 ;Automatic register allocation : On
                 
                 	#pragma AVRPART ADMIN PART_NAME ATmega128
                 	#pragma AVRPART MEMORY PROG_FLASH 131072
                 	#pragma AVRPART MEMORY EEPROM 4096
                 	#pragma AVRPART MEMORY INT_SRAM SIZE 4351
                 	#pragma AVRPART MEMORY INT_SRAM START_ADDR 0x100
                 
                 	#define CALL_SUPPORTED 1
                 
                 	.LISTMAC
                 	.EQU UDRE=0x5
                 	.EQU RXC=0x7
                 	.EQU USR=0xB
                 	.EQU UDR=0xC
                 	.EQU SPSR=0xE
                 	.EQU SPDR=0xF
                 	.EQU EERE=0x0
                 	.EQU EEWE=0x1
                 	.EQU EEMWE=0x2
                 	.EQU EECR=0x1C
                 	.EQU EEDR=0x1D
                 	.EQU EEARL=0x1E
                 	.EQU EEARH=0x1F
                 	.EQU WDTCR=0x21
                 	.EQU MCUCR=0x35
                 	.EQU RAMPZ=0x3B
                 	.EQU SPL=0x3D
                 	.EQU SPH=0x3E
                 	.EQU SREG=0x3F
                 	.EQU XMCRA=0x6D
                 	.EQU XMCRB=0x6C
                 
                 	.DEF R0X0=R0
                 	.DEF R0X1=R1
                 	.DEF R0X2=R2
                 	.DEF R0X3=R3
                 	.DEF R0X4=R4
                 	.DEF R0X5=R5
                 	.DEF R0X6=R6
                 	.DEF R0X7=R7
                 	.DEF R0X8=R8
                 	.DEF R0X9=R9
                 	.DEF R0XA=R10
                 	.DEF R0XB=R11
                 	.DEF R0XC=R12
                 	.DEF R0XD=R13
                 	.DEF R0XE=R14
                 	.DEF R0XF=R15
                 	.DEF R0X10=R16
                 	.DEF R0X11=R17
                 	.DEF R0X12=R18
                 	.DEF R0X13=R19
                 	.DEF R0X14=R20
                 	.DEF R0X15=R21
                 	.DEF R0X16=R22
                 	.DEF R0X17=R23
                 	.DEF R0X18=R24
                 	.DEF R0X19=R25
                 	.DEF R0X1A=R26
                 	.DEF R0X1B=R27
                 	.DEF R0X1C=R28
                 	.DEF R0X1D=R29
                 	.DEF R0X1E=R30
                 	.DEF R0X1F=R31
                 
                 	.EQU __SRAM_START=0x0100
                 	.EQU __SRAM_END=0x10FF
                 	.EQU __DSTACK_SIZE=0x0400
                 	.EQU __HEAP_SIZE=0x0000
                 	.EQU __CLEAR_SRAM_SIZE=__SRAM_END-__SRAM_START+1
                 
                 	.MACRO __CPD1N
                 	CPI  R30,LOW(@0)
                 	LDI  R26,HIGH(@0)
                 	CPC  R31,R26
                 	LDI  R26,BYTE3(@0)
                 	CPC  R22,R26
                 	LDI  R26,BYTE4(@0)
                 	CPC  R23,R26
                 	.ENDM
                 
                 	.MACRO __CPD2N
                 	CPI  R26,LOW(@0)
                 	LDI  R30,HIGH(@0)
                 	CPC  R27,R30
                 	LDI  R30,BYTE3(@0)
                 	CPC  R24,R30
                 	LDI  R30,BYTE4(@0)
                 	CPC  R25,R30
                 	.ENDM
                 
                 	.MACRO __CPWRR
                 	CP   R@0,R@2
                 	CPC  R@1,R@3
                 	.ENDM
                 
                 	.MACRO __CPWRN
                 	CPI  R@0,LOW(@2)
                 	LDI  R30,HIGH(@2)
                 	CPC  R@1,R30
                 	.ENDM
                 
                 	.MACRO __ADDB1MN
                 	SUBI R30,LOW(-@0-(@1))
                 	.ENDM
                 
                 	.MACRO __ADDB2MN
                 	SUBI R26,LOW(-@0-(@1))
                 	.ENDM
                 
                 	.MACRO __ADDW1MN
                 	SUBI R30,LOW(-@0-(@1))
                 	SBCI R31,HIGH(-@0-(@1))
                 	.ENDM
                 
                 	.MACRO __ADDW2MN
                 	SUBI R26,LOW(-@0-(@1))
                 	SBCI R27,HIGH(-@0-(@1))
                 	.ENDM
                 
                 	.MACRO __ADDW1FN
                 	SUBI R30,LOW(-2*@0-(@1))
                 	SBCI R31,HIGH(-2*@0-(@1))
                 	.ENDM
                 
                 	.MACRO __ADDD1FN
                 	SUBI R30,LOW(-2*@0-(@1))
                 	SBCI R31,HIGH(-2*@0-(@1))
                 	SBCI R22,BYTE3(-2*@0-(@1))
                 	.ENDM
                 
                 	.MACRO __ADDD1N
                 	SUBI R30,LOW(-@0)
                 	SBCI R31,HIGH(-@0)
                 	SBCI R22,BYTE3(-@0)
                 	SBCI R23,BYTE4(-@0)
                 	.ENDM
                 
                 	.MACRO __ADDD2N
                 	SUBI R26,LOW(-@0)
                 	SBCI R27,HIGH(-@0)
                 	SBCI R24,BYTE3(-@0)
                 	SBCI R25,BYTE4(-@0)
                 	.ENDM
                 
                 	.MACRO __SUBD1N
                 	SUBI R30,LOW(@0)
                 	SBCI R31,HIGH(@0)
                 	SBCI R22,BYTE3(@0)
                 	SBCI R23,BYTE4(@0)
                 	.ENDM
                 
                 	.MACRO __SUBD2N
                 	SUBI R26,LOW(@0)
                 	SBCI R27,HIGH(@0)
                 	SBCI R24,BYTE3(@0)
                 	SBCI R25,BYTE4(@0)
                 	.ENDM
                 
                 	.MACRO __ANDBMNN
                 	LDS  R30,@0+(@1)
                 	ANDI R30,LOW(@2)
                 	STS  @0+(@1),R30
                 	.ENDM
                 
                 	.MACRO __ANDWMNN
                 	LDS  R30,@0+(@1)
                 	ANDI R30,LOW(@2)
                 	STS  @0+(@1),R30
                 	LDS  R30,@0+(@1)+1
                 	ANDI R30,HIGH(@2)
                 	STS  @0+(@1)+1,R30
                 	.ENDM
                 
                 	.MACRO __ANDD1N
                 	ANDI R30,LOW(@0)
                 	ANDI R31,HIGH(@0)
                 	ANDI R22,BYTE3(@0)
                 	ANDI R23,BYTE4(@0)
                 	.ENDM
                 
                 	.MACRO __ANDD2N
                 	ANDI R26,LOW(@0)
                 	ANDI R27,HIGH(@0)
                 	ANDI R24,BYTE3(@0)
                 	ANDI R25,BYTE4(@0)
                 	.ENDM
                 
                 	.MACRO __ORBMNN
                 	LDS  R30,@0+(@1)
                 	ORI  R30,LOW(@2)
                 	STS  @0+(@1),R30
                 	.ENDM
                 
                 	.MACRO __ORWMNN
                 	LDS  R30,@0+(@1)
                 	ORI  R30,LOW(@2)
                 	STS  @0+(@1),R30
                 	LDS  R30,@0+(@1)+1
                 	ORI  R30,HIGH(@2)
                 	STS  @0+(@1)+1,R30
                 	.ENDM
                 
                 	.MACRO __ORD1N
                 	ORI  R30,LOW(@0)
                 	ORI  R31,HIGH(@0)
                 	ORI  R22,BYTE3(@0)
                 	ORI  R23,BYTE4(@0)
                 	.ENDM
                 
                 	.MACRO __ORD2N
                 	ORI  R26,LOW(@0)
                 	ORI  R27,HIGH(@0)
                 	ORI  R24,BYTE3(@0)
                 	ORI  R25,BYTE4(@0)
                 	.ENDM
                 
                 	.MACRO __DELAY_USB
                 	LDI  R24,LOW(@0)
                 __DELAY_USB_LOOP:
                 	DEC  R24
                 	BRNE __DELAY_USB_LOOP
                 	.ENDM
                 
                 	.MACRO __DELAY_USW
                 	LDI  R24,LOW(@0)
                 	LDI  R25,HIGH(@0)
                 __DELAY_USW_LOOP:
                 	SBIW R24,1
                 	BRNE __DELAY_USW_LOOP
                 	.ENDM
                 
                 	.MACRO __GETD1S
                 	LDD  R30,Y+@0
                 	LDD  R31,Y+@0+1
                 	LDD  R22,Y+@0+2
                 	LDD  R23,Y+@0+3
                 	.ENDM
                 
                 	.MACRO __GETD2S
                 	LDD  R26,Y+@0
                 	LDD  R27,Y+@0+1
                 	LDD  R24,Y+@0+2
                 	LDD  R25,Y+@0+3
                 	.ENDM
                 
                 	.MACRO __PUTD1S
                 	STD  Y+@0,R30
                 	STD  Y+@0+1,R31
                 	STD  Y+@0+2,R22
                 	STD  Y+@0+3,R23
                 	.ENDM
                 
                 	.MACRO __PUTD2S
                 	STD  Y+@0,R26
                 	STD  Y+@0+1,R27
                 	STD  Y+@0+2,R24
                 	STD  Y+@0+3,R25
                 	.ENDM
                 
                 	.MACRO __PUTDZ2
                 	STD  Z+@0,R26
                 	STD  Z+@0+1,R27
                 	STD  Z+@0+2,R24
                 	STD  Z+@0+3,R25
                 	.ENDM
                 
                 	.MACRO __CLRD1S
                 	STD  Y+@0,R30
                 	STD  Y+@0+1,R30
                 	STD  Y+@0+2,R30
                 	STD  Y+@0+3,R30
                 	.ENDM
                 
                 	.MACRO __POINTB1MN
                 	LDI  R30,LOW(@0+(@1))
                 	.ENDM
                 
                 	.MACRO __POINTW1MN
                 	LDI  R30,LOW(@0+(@1))
                 	LDI  R31,HIGH(@0+(@1))
                 	.ENDM
                 
                 	.MACRO __POINTD1M
                 	LDI  R30,LOW(@0)
                 	LDI  R31,HIGH(@0)
                 	LDI  R22,BYTE3(@0)
                 	LDI  R23,BYTE4(@0)
                 	.ENDM
                 
                 	.MACRO __POINTW1FN
                 	LDI  R30,LOW(2*@0+(@1))
                 	LDI  R31,HIGH(2*@0+(@1))
                 	.ENDM
                 
                 	.MACRO __POINTD1FN
                 	LDI  R30,LOW(2*@0+(@1))
                 	LDI  R31,HIGH(2*@0+(@1))
                 	LDI  R22,BYTE3(2*@0+(@1))
                 	LDI  R23,BYTE4(2*@0+(@1))
                 	.ENDM
                 
                 	.MACRO __POINTB2MN
                 	LDI  R26,LOW(@0+(@1))
                 	.ENDM
                 
                 	.MACRO __POINTW2MN
                 	LDI  R26,LOW(@0+(@1))
                 	LDI  R27,HIGH(@0+(@1))
                 	.ENDM
                 
                 	.MACRO __POINTBRM
                 	LDI  R@0,LOW(@1)
                 	.ENDM
                 
                 	.MACRO __POINTWRM
                 	LDI  R@0,LOW(@2)
                 	LDI  R@1,HIGH(@2)
                 	.ENDM
                 
                 	.MACRO __POINTBRMN
                 	LDI  R@0,LOW(@1+(@2))
                 	.ENDM
                 
                 	.MACRO __POINTWRMN
                 	LDI  R@0,LOW(@2+(@3))
                 	LDI  R@1,HIGH(@2+(@3))
                 	.ENDM
                 
                 	.MACRO __POINTWRFN
                 	LDI  R@0,LOW(@2*2+(@3))
                 	LDI  R@1,HIGH(@2*2+(@3))
                 	.ENDM
                 
                 	.MACRO __GETD1N
                 	LDI  R30,LOW(@0)
                 	LDI  R31,HIGH(@0)
                 	LDI  R22,BYTE3(@0)
                 	LDI  R23,BYTE4(@0)
                 	.ENDM
                 
                 	.MACRO __GETD2N
                 	LDI  R26,LOW(@0)
                 	LDI  R27,HIGH(@0)
                 	LDI  R24,BYTE3(@0)
                 	LDI  R25,BYTE4(@0)
                 	.ENDM
                 
                 	.MACRO __GETB1MN
                 	LDS  R30,@0+(@1)
                 	.ENDM
                 
                 	.MACRO __GETB1HMN
                 	LDS  R31,@0+(@1)
                 	.ENDM
                 
                 	.MACRO __GETW1MN
                 	LDS  R30,@0+(@1)
                 	LDS  R31,@0+(@1)+1
                 	.ENDM
                 
                 	.MACRO __GETD1MN
                 	LDS  R30,@0+(@1)
                 	LDS  R31,@0+(@1)+1
                 	LDS  R22,@0+(@1)+2
                 	LDS  R23,@0+(@1)+3
                 	.ENDM
                 
                 	.MACRO __GETBRMN
                 	LDS  R@0,@1+(@2)
                 	.ENDM
                 
                 	.MACRO __GETWRMN
                 	LDS  R@0,@2+(@3)
                 	LDS  R@1,@2+(@3)+1
                 	.ENDM
                 
                 	.MACRO __GETWRZ
                 	LDD  R@0,Z+@2
                 	LDD  R@1,Z+@2+1
                 	.ENDM
                 
                 	.MACRO __GETD2Z
                 	LDD  R26,Z+@0
                 	LDD  R27,Z+@0+1
                 	LDD  R24,Z+@0+2
                 	LDD  R25,Z+@0+3
                 	.ENDM
                 
                 	.MACRO __GETB2MN
                 	LDS  R26,@0+(@1)
                 	.ENDM
                 
                 	.MACRO __GETW2MN
                 	LDS  R26,@0+(@1)
                 	LDS  R27,@0+(@1)+1
                 	.ENDM
                 
                 	.MACRO __GETD2MN
                 	LDS  R26,@0+(@1)
                 	LDS  R27,@0+(@1)+1
                 	LDS  R24,@0+(@1)+2
                 	LDS  R25,@0+(@1)+3
                 	.ENDM
                 
                 	.MACRO __PUTB1MN
                 	STS  @0+(@1),R30
                 	.ENDM
                 
                 	.MACRO __PUTW1MN
                 	STS  @0+(@1),R30
                 	STS  @0+(@1)+1,R31
                 	.ENDM
                 
                 	.MACRO __PUTD1MN
                 	STS  @0+(@1),R30
                 	STS  @0+(@1)+1,R31
                 	STS  @0+(@1)+2,R22
                 	STS  @0+(@1)+3,R23
                 	.ENDM
                 
                 	.MACRO __PUTB1EN
                 	LDI  R26,LOW(@0+(@1))
                 	LDI  R27,HIGH(@0+(@1))
                 	CALL __EEPROMWRB
                 	.ENDM
                 
                 	.MACRO __PUTW1EN
                 	LDI  R26,LOW(@0+(@1))
                 	LDI  R27,HIGH(@0+(@1))
                 	CALL __EEPROMWRW
                 	.ENDM
                 
                 	.MACRO __PUTD1EN
                 	LDI  R26,LOW(@0+(@1))
                 	LDI  R27,HIGH(@0+(@1))
                 	CALL __EEPROMWRD
                 	.ENDM
                 
                 	.MACRO __PUTBR0MN
                 	STS  @0+(@1),R0
                 	.ENDM
                 
                 	.MACRO __PUTBMRN
                 	STS  @0+(@1),R@2
                 	.ENDM
                 
                 	.MACRO __PUTWMRN
                 	STS  @0+(@1),R@2
                 	STS  @0+(@1)+1,R@3
                 	.ENDM
                 
                 	.MACRO __PUTBZR
                 	STD  Z+@1,R@0
                 	.ENDM
                 
                 	.MACRO __PUTWZR
                 	STD  Z+@2,R@0
                 	STD  Z+@2+1,R@1
                 	.ENDM
                 
                 	.MACRO __GETW1R
                 	MOV  R30,R@0
                 	MOV  R31,R@1
                 	.ENDM
                 
                 	.MACRO __GETW2R
                 	MOV  R26,R@0
                 	MOV  R27,R@1
                 	.ENDM
                 
                 	.MACRO __GETWRN
                 	LDI  R@0,LOW(@2)
                 	LDI  R@1,HIGH(@2)
                 	.ENDM
                 
                 	.MACRO __PUTW1R
                 	MOV  R@0,R30
                 	MOV  R@1,R31
                 	.ENDM
                 
                 	.MACRO __PUTW2R
                 	MOV  R@0,R26
                 	MOV  R@1,R27
                 	.ENDM
                 
                 	.MACRO __ADDWRN
                 	SUBI R@0,LOW(-@2)
                 	SBCI R@1,HIGH(-@2)
                 	.ENDM
                 
                 	.MACRO __ADDWRR
                 	ADD  R@0,R@2
                 	ADC  R@1,R@3
                 	.ENDM
                 
                 	.MACRO __SUBWRN
                 	SUBI R@0,LOW(@2)
                 	SBCI R@1,HIGH(@2)
                 	.ENDM
                 
                 	.MACRO __SUBWRR
                 	SUB  R@0,R@2
                 	SBC  R@1,R@3
                 	.ENDM
                 
                 	.MACRO __ANDWRN
                 	ANDI R@0,LOW(@2)
                 	ANDI R@1,HIGH(@2)
                 	.ENDM
                 
                 	.MACRO __ANDWRR
                 	AND  R@0,R@2
                 	AND  R@1,R@3
                 	.ENDM
                 
                 	.MACRO __ORWRN
                 	ORI  R@0,LOW(@2)
                 	ORI  R@1,HIGH(@2)
                 	.ENDM
                 
                 	.MACRO __ORWRR
                 	OR   R@0,R@2
                 	OR   R@1,R@3
                 	.ENDM
                 
                 	.MACRO __EORWRR
                 	EOR  R@0,R@2
                 	EOR  R@1,R@3
                 	.ENDM
                 
                 	.MACRO __GETWRS
                 	LDD  R@0,Y+@2
                 	LDD  R@1,Y+@2+1
                 	.ENDM
                 
                 	.MACRO __PUTBSR
                 	STD  Y+@1,R@0
                 	.ENDM
                 
                 	.MACRO __PUTWSR
                 	STD  Y+@2,R@0
                 	STD  Y+@2+1,R@1
                 	.ENDM
                 
                 	.MACRO __MOVEWRR
                 	MOV  R@0,R@2
                 	MOV  R@1,R@3
                 	.ENDM
                 
                 	.MACRO __INWR
                 	IN   R@0,@2
                 	IN   R@1,@2+1
                 	.ENDM
                 
                 	.MACRO __OUTWR
                 	OUT  @2+1,R@1
                 	OUT  @2,R@0
                 	.ENDM
                 
                 	.MACRO __CALL1MN
                 	LDS  R30,@0+(@1)
                 	LDS  R31,@0+(@1)+1
                 	ICALL
                 	.ENDM
                 
                 	.MACRO __CALL1FN
                 	LDI  R30,LOW(2*@0+(@1))
                 	LDI  R31,HIGH(2*@0+(@1))
                 	CALL __GETW1PF
                 	ICALL
                 	.ENDM
                 
                 	.MACRO __CALL2EN
                 	LDI  R26,LOW(@0+(@1))
                 	LDI  R27,HIGH(@0+(@1))
                 	CALL __EEPROMRDW
                 	ICALL
                 	.ENDM
                 
                 	.MACRO __GETW1STACK
                 	IN   R26,SPL
                 	IN   R27,SPH
                 	ADIW R26,@0+1
                 	LD   R30,X+
                 	LD   R31,X
                 	.ENDM
                 
                 	.MACRO __GETD1STACK
                 	IN   R26,SPL
                 	IN   R27,SPH
                 	ADIW R26,@0+1
                 	LD   R30,X+
                 	LD   R31,X+
                 	LD   R22,X
                 	.ENDM
                 
                 	.MACRO __NBST
                 	BST  R@0,@1
                 	IN   R30,SREG
                 	LDI  R31,0x40
                 	EOR  R30,R31
                 	OUT  SREG,R30
                 	.ENDM
                 
                 
                 	.MACRO __PUTB1SN
                 	LDD  R26,Y+@0
                 	LDD  R27,Y+@0+1
                 	SUBI R26,LOW(-@1)
                 	SBCI R27,HIGH(-@1)
                 	ST   X,R30
                 	.ENDM
                 
                 	.MACRO __PUTW1SN
                 	LDD  R26,Y+@0
                 	LDD  R27,Y+@0+1
                 	SUBI R26,LOW(-@1)
                 	SBCI R27,HIGH(-@1)
                 	ST   X+,R30
                 	ST   X,R31
                 	.ENDM
                 
                 	.MACRO __PUTD1SN
                 	LDD  R26,Y+@0
                 	LDD  R27,Y+@0+1
                 	SUBI R26,LOW(-@1)
                 	SBCI R27,HIGH(-@1)
                 	CALL __PUTDP1
                 	.ENDM
                 
                 	.MACRO __PUTB1SNS
                 	LDD  R26,Y+@0
                 	LDD  R27,Y+@0+1
                 	ADIW R26,@1
                 	ST   X,R30
                 	.ENDM
                 
                 	.MACRO __PUTW1SNS
                 	LDD  R26,Y+@0
                 	LDD  R27,Y+@0+1
                 	ADIW R26,@1
                 	ST   X+,R30
                 	ST   X,R31
                 	.ENDM
                 
                 	.MACRO __PUTD1SNS
                 	LDD  R26,Y+@0
                 	LDD  R27,Y+@0+1
                 	ADIW R26,@1
                 	CALL __PUTDP1
                 	.ENDM
                 
                 	.MACRO __PUTB1PMN
                 	LDS  R26,@0
                 	LDS  R27,@0+1
                 	SUBI R26,LOW(-@1)
                 	SBCI R27,HIGH(-@1)
                 	ST   X,R30
                 	.ENDM
                 
                 	.MACRO __PUTW1PMN
                 	LDS  R26,@0
                 	LDS  R27,@0+1
                 	SUBI R26,LOW(-@1)
                 	SBCI R27,HIGH(-@1)
                 	ST   X+,R30
                 	ST   X,R31
                 	.ENDM
                 
                 	.MACRO __PUTD1PMN
                 	LDS  R26,@0
                 	LDS  R27,@0+1
                 	SUBI R26,LOW(-@1)
                 	SBCI R27,HIGH(-@1)
                 	CALL __PUTDP1
                 	.ENDM
                 
                 	.MACRO __PUTB1PMNS
                 	LDS  R26,@0
                 	LDS  R27,@0+1
                 	ADIW R26,@1
                 	ST   X,R30
                 	.ENDM
                 
                 	.MACRO __PUTW1PMNS
                 	LDS  R26,@0
                 	LDS  R27,@0+1
                 	ADIW R26,@1
                 	ST   X+,R30
                 	ST   X,R31
                 	.ENDM
                 
                 	.MACRO __PUTD1PMNS
                 	LDS  R26,@0
                 	LDS  R27,@0+1
                 	ADIW R26,@1
                 	CALL __PUTDP1
                 	.ENDM
                 
                 	.MACRO __PUTB1RN
                 	MOVW R26,R@0
                 	SUBI R26,LOW(-@1)
                 	SBCI R27,HIGH(-@1)
                 	ST   X,R30
                 	.ENDM
                 
                 	.MACRO __PUTW1RN
                 	MOVW R26,R@0
                 	SUBI R26,LOW(-@1)
                 	SBCI R27,HIGH(-@1)
                 	ST   X+,R30
                 	ST   X,R31
                 	.ENDM
                 
                 	.MACRO __PUTD1RN
                 	MOVW R26,R@0
                 	SUBI R26,LOW(-@1)
                 	SBCI R27,HIGH(-@1)
                 	CALL __PUTDP1
                 	.ENDM
                 
                 	.MACRO __PUTB1RNS
                 	MOVW R26,R@0
                 	ADIW R26,@1
                 	ST   X,R30
                 	.ENDM
                 
                 	.MACRO __PUTW1RNS
                 	MOVW R26,R@0
                 	ADIW R26,@1
                 	ST   X+,R30
                 	ST   X,R31
                 	.ENDM
                 
                 	.MACRO __PUTD1RNS
                 	MOVW R26,R@0
                 	ADIW R26,@1
                 	CALL __PUTDP1
                 	.ENDM
                 
                 	.MACRO __PUTB1RON
                 	MOV  R26,R@0
                 	MOV  R27,R@1
                 	SUBI R26,LOW(-@2)
                 	SBCI R27,HIGH(-@2)
                 	ST   X,R30
                 	.ENDM
                 
                 	.MACRO __PUTW1RON
                 	MOV  R26,R@0
                 	MOV  R27,R@1
                 	SUBI R26,LOW(-@2)
                 	SBCI R27,HIGH(-@2)
                 	ST   X+,R30
                 	ST   X,R31
                 	.ENDM
                 
                 	.MACRO __PUTD1RON
                 	MOV  R26,R@0
                 	MOV  R27,R@1
                 	SUBI R26,LOW(-@2)
                 	SBCI R27,HIGH(-@2)
                 	CALL __PUTDP1
                 	.ENDM
                 
                 	.MACRO __PUTB1RONS
                 	MOV  R26,R@0
                 	MOV  R27,R@1
                 	ADIW R26,@2
                 	ST   X,R30
                 	.ENDM
                 
                 	.MACRO __PUTW1RONS
                 	MOV  R26,R@0
                 	MOV  R27,R@1
                 	ADIW R26,@2
                 	ST   X+,R30
                 	ST   X,R31
                 	.ENDM
                 
                 	.MACRO __PUTD1RONS
                 	MOV  R26,R@0
                 	MOV  R27,R@1
                 	ADIW R26,@2
                 	CALL __PUTDP1
                 	.ENDM
                 
                 
                 	.MACRO __GETB1SX
                 	MOVW R30,R28
                 	SUBI R30,LOW(-@0)
                 	SBCI R31,HIGH(-@0)
                 	LD   R30,Z
                 	.ENDM
                 
                 	.MACRO __GETB1HSX
                 	MOVW R30,R28
                 	SUBI R30,LOW(-@0)
                 	SBCI R31,HIGH(-@0)
                 	LD   R31,Z
                 	.ENDM
                 
                 	.MACRO __GETW1SX
                 	MOVW R30,R28
                 	SUBI R30,LOW(-@0)
                 	SBCI R31,HIGH(-@0)
                 	LD   R0,Z+
                 	LD   R31,Z
                 	MOV  R30,R0
                 	.ENDM
                 
                 	.MACRO __GETD1SX
                 	MOVW R30,R28
                 	SUBI R30,LOW(-@0)
                 	SBCI R31,HIGH(-@0)
                 	LD   R0,Z+
                 	LD   R1,Z+
                 	LD   R22,Z+
                 	LD   R23,Z
                 	MOVW R30,R0
                 	.ENDM
                 
                 	.MACRO __GETB2SX
                 	MOVW R26,R28
                 	SUBI R26,LOW(-@0)
                 	SBCI R27,HIGH(-@0)
                 	LD   R26,X
                 	.ENDM
                 
                 	.MACRO __GETW2SX
                 	MOVW R26,R28
                 	SUBI R26,LOW(-@0)
                 	SBCI R27,HIGH(-@0)
                 	LD   R0,X+
                 	LD   R27,X
                 	MOV  R26,R0
                 	.ENDM
                 
                 	.MACRO __GETD2SX
                 	MOVW R26,R28
                 	SUBI R26,LOW(-@0)
                 	SBCI R27,HIGH(-@0)
                 	LD   R0,X+
                 	LD   R1,X+
                 	LD   R24,X+
                 	LD   R25,X
                 	MOVW R26,R0
                 	.ENDM
                 
                 	.MACRO __GETBRSX
                 	MOVW R30,R28
                 	SUBI R30,LOW(-@1)
                 	SBCI R31,HIGH(-@1)
                 	LD   R@0,Z
                 	.ENDM
                 
                 	.MACRO __GETWRSX
                 	MOVW R30,R28
                 	SUBI R30,LOW(-@2)
                 	SBCI R31,HIGH(-@2)
                 	LD   R@0,Z+
                 	LD   R@1,Z
                 	.ENDM
                 
                 	.MACRO __GETBRSX2
                 	MOVW R26,R28
                 	SUBI R26,LOW(-@1)
                 	SBCI R27,HIGH(-@1)
                 	LD   R@0,X
                 	.ENDM
                 
                 	.MACRO __GETWRSX2
                 	MOVW R26,R28
                 	SUBI R26,LOW(-@2)
                 	SBCI R27,HIGH(-@2)
                 	LD   R@0,X+
                 	LD   R@1,X
                 	.ENDM
                 
                 	.MACRO __LSLW8SX
                 	MOVW R30,R28
                 	SUBI R30,LOW(-@0)
                 	SBCI R31,HIGH(-@0)
                 	LD   R31,Z
                 	CLR  R30
                 	.ENDM
                 
                 	.MACRO __PUTB1SX
                 	MOVW R26,R28
                 	SUBI R26,LOW(-@0)
                 	SBCI R27,HIGH(-@0)
                 	ST   X,R30
                 	.ENDM
                 
                 	.MACRO __PUTW1SX
                 	MOVW R26,R28
                 	SUBI R26,LOW(-@0)
                 	SBCI R27,HIGH(-@0)
                 	ST   X+,R30
                 	ST   X,R31
                 	.ENDM
                 
                 	.MACRO __PUTD1SX
                 	MOVW R26,R28
                 	SUBI R26,LOW(-@0)
                 	SBCI R27,HIGH(-@0)
                 	ST   X+,R30
                 	ST   X+,R31
                 	ST   X+,R22
                 	ST   X,R23
                 	.ENDM
                 
                 	.MACRO __CLRW1SX
                 	MOVW R26,R28
                 	SUBI R26,LOW(-@0)
                 	SBCI R27,HIGH(-@0)
                 	ST   X+,R30
                 	ST   X,R30
                 	.ENDM
                 
                 	.MACRO __CLRD1SX
                 	MOVW R26,R28
                 	SUBI R26,LOW(-@0)
                 	SBCI R27,HIGH(-@0)
                 	ST   X+,R30
                 	ST   X+,R30
                 	ST   X+,R30
                 	ST   X,R30
                 	.ENDM
                 
                 	.MACRO __PUTB2SX
                 	MOVW R30,R28
                 	SUBI R30,LOW(-@0)
                 	SBCI R31,HIGH(-@0)
                 	ST   Z,R26
                 	.ENDM
                 
                 	.MACRO __PUTW2SX
                 	MOVW R30,R28
                 	SUBI R30,LOW(-@0)
                 	SBCI R31,HIGH(-@0)
                 	ST   Z+,R26
                 	ST   Z,R27
                 	.ENDM
                 
                 	.MACRO __PUTD2SX
                 	MOVW R30,R28
                 	SUBI R30,LOW(-@0)
                 	SBCI R31,HIGH(-@0)
                 	ST   Z+,R26
                 	ST   Z+,R27
                 	ST   Z+,R24
                 	ST   Z,R25
                 	.ENDM
                 
                 	.MACRO __PUTBSRX
                 	MOVW R30,R28
                 	SUBI R30,LOW(-@1)
                 	SBCI R31,HIGH(-@1)
                 	ST   Z,R@0
                 	.ENDM
                 
                 	.MACRO __PUTWSRX
                 	MOVW R30,R28
                 	SUBI R30,LOW(-@2)
                 	SBCI R31,HIGH(-@2)
                 	ST   Z+,R@0
                 	ST   Z,R@1
                 	.ENDM
                 
                 	.MACRO __PUTB1SNX
                 	MOVW R26,R28
                 	SUBI R26,LOW(-@0)
                 	SBCI R27,HIGH(-@0)
                 	LD   R0,X+
                 	LD   R27,X
                 	MOV  R26,R0
                 	SUBI R26,LOW(-@1)
                 	SBCI R27,HIGH(-@1)
                 	ST   X,R30
                 	.ENDM
                 
                 	.MACRO __PUTW1SNX
                 	MOVW R26,R28
                 	SUBI R26,LOW(-@0)
                 	SBCI R27,HIGH(-@0)
                 	LD   R0,X+
                 	LD   R27,X
                 	MOV  R26,R0
                 	SUBI R26,LOW(-@1)
                 	SBCI R27,HIGH(-@1)
                 	ST   X+,R30
                 	ST   X,R31
                 	.ENDM
                 
                 	.MACRO __PUTD1SNX
                 	MOVW R26,R28
                 	SUBI R26,LOW(-@0)
                 	SBCI R27,HIGH(-@0)
                 	LD   R0,X+
                 	LD   R27,X
                 	MOV  R26,R0
                 	SUBI R26,LOW(-@1)
                 	SBCI R27,HIGH(-@1)
                 	ST   X+,R30
                 	ST   X+,R31
                 	ST   X+,R22
                 	ST   X,R23
                 	.ENDM
                 
                 	.MACRO __MULBRR
                 	MULS R@0,R@1
                 	MOVW R30,R0
                 	.ENDM
                 
                 	.MACRO __MULBRRU
                 	MUL  R@0,R@1
                 	MOVW R30,R0
                 	.ENDM
                 
                 	.MACRO __MULBRR0
                 	MULS R@0,R@1
                 	.ENDM
                 
                 	.MACRO __MULBRRU0
                 	MUL  R@0,R@1
                 	.ENDM
                 
                 	.MACRO __MULBNWRU
                 	LDI  R26,@2
                 	MUL  R26,R@0
                 	MOVW R30,R0
                 	MUL  R26,R@1
                 	ADD  R31,R0
                 	.ENDM
                 
                 ;NAME DEFINITIONS FOR GLOBAL VARIABLES ALLOCATED TO REGISTERS
                 	.DEF _xxx=R4
                 	.DEF _nr_zacisku=R6
                 	.DEF _odczytalem_zacisk=R8
                 	.DEF _il_prob_odczytu=R10
                 	.DEF _rzad=R12
                 
                 	.CSEG
                 	.ORG 0x00
                 
                 ;START OF CODE MARKER
                 __START_OF_CODE:
                 
                 ;INTERRUPT VECTORS
000000 940c 036c 	JMP  __RESET
000002 940c 0000 	JMP  0x00
000004 940c 0000 	JMP  0x00
000006 940c 0000 	JMP  0x00
000008 940c 0000 	JMP  0x00
00000a 940c 0000 	JMP  0x00
00000c 940c 0000 	JMP  0x00
00000e 940c 0000 	JMP  0x00
000010 940c 0000 	JMP  0x00
000012 940c 0000 	JMP  0x00
000014 940c 0000 	JMP  0x00
000016 940c 0000 	JMP  0x00
000018 940c 0000 	JMP  0x00
00001a 940c 0000 	JMP  0x00
00001c 940c 0000 	JMP  0x00
00001e 940c 0000 	JMP  0x00
000020 940c 03e7 	JMP  _timer0_ovf_isr
000022 940c 0000 	JMP  0x00
000024 940c 0000 	JMP  0x00
000026 940c 0000 	JMP  0x00
000028 940c 0000 	JMP  0x00
00002a 940c 0000 	JMP  0x00
00002c 940c 0000 	JMP  0x00
00002e 940c 0000 	JMP  0x00
000030 940c 0000 	JMP  0x00
000032 940c 0000 	JMP  0x00
000034 940c 0000 	JMP  0x00
000036 940c 0000 	JMP  0x00
000038 940c 0000 	JMP  0x00
00003a 940c 0000 	JMP  0x00
00003c 940c 0000 	JMP  0x00
00003e 940c 0000 	JMP  0x00
000040 940c 0000 	JMP  0x00
000042 940c 0000 	JMP  0x00
000044 940c 0000 	JMP  0x00
                 
                 _tbl10_G103:
000046 2710
000047 03e8
000048 0064
000049 000a      	.DB  0x10,0x27,0xE8,0x3,0x64,0x0,0xA,0x0
00004a 0001      	.DB  0x1,0x0
                 _tbl16_G103:
00004b 1000
00004c 0100
00004d 0010
00004e 0001      	.DB  0x0,0x10,0x0,0x1,0x10,0x0,0x1,0x0
                 
                 ;REGISTER BIT VARIABLES INITIALIZATION
                 __REG_BIT_VARS:
00004f 0000      	.DW  0x0000
                 
                 _0x0:
000050 2020
000051 2020
000052 2020
000053 2020      	.DB  0x20,0x20,0x20,0x20,0x20,0x20,0x20,0x20
000054 2020
000055 2020
000056 2020
000057 2020      	.DB  0x20,0x20,0x20,0x20,0x20,0x20,0x20,0x20
000058 2020
000059 2020
00005a 2020
00005b 2020      	.DB  0x20,0x20,0x20,0x20,0x20,0x20,0x20,0x20
00005c 2020
00005d 2020
00005e 2020
00005f 2020      	.DB  0x20,0x20,0x20,0x20,0x20,0x20,0x20,0x20
000060 2020
000061 2020
000062 2020
000063 2020      	.DB  0x20,0x20,0x20,0x20,0x20,0x20,0x20,0x20
000064 2020
000065 2020
000066 2020
000067 2020      	.DB  0x20,0x20,0x20,0x20,0x20,0x20,0x20,0x20
000068 5700
000069 7a63
00006a 7479
00006b 6e61      	.DB  0x0,0x57,0x63,0x7A,0x79,0x74,0x61,0x6E
00006c 206f
00006d 6f70
00006e 7270
00006f 7761      	.DB  0x6F,0x20,0x70,0x6F,0x70,0x72,0x61,0x77
000070 796e
000071 7a20
000072 6361
000073 7369      	.DB  0x6E,0x79,0x20,0x7A,0x61,0x63,0x69,0x73
000074 006b
000075 6943
000076 6e73
000077 6569      	.DB  0x6B,0x0,0x43,0x69,0x73,0x6E,0x69,0x65
000078 696e
000079 2065
00007a 617a
00007b 6d20      	.DB  0x6E,0x69,0x65,0x20,0x7A,0x61,0x20,0x6D
00007c 6c61
00007d 2065
00007e 202d
00007f 6e6d      	.DB  0x61,0x6C,0x65,0x20,0x2D,0x20,0x6D,0x6E
000080 6569
000081 736a
000082 657a
000083 6e20      	.DB  0x69,0x65,0x6A,0x73,0x7A,0x65,0x20,0x6E
000084 7a69
000085 3620
000086 6220
000087 7261      	.DB  0x69,0x7A,0x20,0x36,0x20,0x62,0x61,0x72
000088 3800
000089 2d36
00008a 3130
00008b 3037      	.DB  0x0,0x38,0x36,0x2D,0x30,0x31,0x37,0x30
00008c 3800
00008d 2d36
00008e 3031
00008f 3334      	.DB  0x0,0x38,0x36,0x2D,0x31,0x30,0x34,0x33
000090 3800
000091 2d36
000092 3631
000093 3537      	.DB  0x0,0x38,0x36,0x2D,0x31,0x36,0x37,0x35
000094 3800
000095 2d36
000096 3032
000097 3839      	.DB  0x0,0x38,0x36,0x2D,0x32,0x30,0x39,0x38
000098 3800
000099 2d37
00009a 3130
00009b 3037      	.DB  0x0,0x38,0x37,0x2D,0x30,0x31,0x37,0x30
00009c 3800
00009d 2d37
00009e 3031
00009f 3334      	.DB  0x0,0x38,0x37,0x2D,0x31,0x30,0x34,0x33
0000a0 3800
0000a1 2d37
0000a2 3631
0000a3 3537      	.DB  0x0,0x38,0x37,0x2D,0x31,0x36,0x37,0x35
0000a4 3800
0000a5 2d37
0000a6 3032
0000a7 3839      	.DB  0x0,0x38,0x37,0x2D,0x32,0x30,0x39,0x38
0000a8 3800
0000a9 2d36
0000aa 3130
0000ab 3239      	.DB  0x0,0x38,0x36,0x2D,0x30,0x31,0x39,0x32
0000ac 3800
0000ad 2d36
0000ae 3031
0000af 3435      	.DB  0x0,0x38,0x36,0x2D,0x31,0x30,0x35,0x34
0000b0 3800
0000b1 2d36
0000b2 3631
0000b3 3637      	.DB  0x0,0x38,0x36,0x2D,0x31,0x36,0x37,0x36
0000b4 3800
0000b5 2d36
0000b6 3132
0000b7 3233      	.DB  0x0,0x38,0x36,0x2D,0x32,0x31,0x33,0x32
0000b8 3800
0000b9 2d37
0000ba 3130
0000bb 3239      	.DB  0x0,0x38,0x37,0x2D,0x30,0x31,0x39,0x32
0000bc 3800
0000bd 2d37
0000be 3031
0000bf 3435      	.DB  0x0,0x38,0x37,0x2D,0x31,0x30,0x35,0x34
0000c0 3800
0000c1 2d37
0000c2 3631
0000c3 3637      	.DB  0x0,0x38,0x37,0x2D,0x31,0x36,0x37,0x36
0000c4 3800
0000c5 2d37
0000c6 3132
0000c7 3233      	.DB  0x0,0x38,0x37,0x2D,0x32,0x31,0x33,0x32
0000c8 3800
0000c9 2d36
0000ca 3130
0000cb 3339      	.DB  0x0,0x38,0x36,0x2D,0x30,0x31,0x39,0x33
0000cc 3800
0000cd 2d36
0000ce 3231
0000cf 3631      	.DB  0x0,0x38,0x36,0x2D,0x31,0x32,0x31,0x36
0000d0 3800
0000d1 2d36
0000d2 3831
0000d3 3233      	.DB  0x0,0x38,0x36,0x2D,0x31,0x38,0x33,0x32
0000d4 3800
0000d5 2d36
0000d6 3132
0000d7 3437      	.DB  0x0,0x38,0x36,0x2D,0x32,0x31,0x37,0x34
0000d8 3800
0000d9 2d37
0000da 3130
0000db 3339      	.DB  0x0,0x38,0x37,0x2D,0x30,0x31,0x39,0x33
0000dc 3800
0000dd 2d37
0000de 3231
0000df 3631      	.DB  0x0,0x38,0x37,0x2D,0x31,0x32,0x31,0x36
0000e0 3800
0000e1 2d37
0000e2 3831
0000e3 3233      	.DB  0x0,0x38,0x37,0x2D,0x31,0x38,0x33,0x32
0000e4 3800
0000e5 2d37
0000e6 3132
0000e7 3437      	.DB  0x0,0x38,0x37,0x2D,0x32,0x31,0x37,0x34
0000e8 3800
0000e9 2d36
0000ea 3130
0000eb 3439      	.DB  0x0,0x38,0x36,0x2D,0x30,0x31,0x39,0x34
0000ec 3800
0000ed 2d36
0000ee 3331
0000ef 3134      	.DB  0x0,0x38,0x36,0x2D,0x31,0x33,0x34,0x31
0000f0 3800
0000f1 2d36
0000f2 3831
0000f3 3333      	.DB  0x0,0x38,0x36,0x2D,0x31,0x38,0x33,0x33
0000f4 3800
0000f5 2d36
0000f6 3132
0000f7 3038      	.DB  0x0,0x38,0x36,0x2D,0x32,0x31,0x38,0x30
0000f8 3800
0000f9 2d37
0000fa 3130
0000fb 3439      	.DB  0x0,0x38,0x37,0x2D,0x30,0x31,0x39,0x34
0000fc 3800
0000fd 2d37
0000fe 3331
0000ff 3134      	.DB  0x0,0x38,0x37,0x2D,0x31,0x33,0x34,0x31
000100 3800
000101 2d37
000102 3831
000103 3333      	.DB  0x0,0x38,0x37,0x2D,0x31,0x38,0x33,0x33
000104 3800
000105 2d37
000106 3132
000107 3038      	.DB  0x0,0x38,0x37,0x2D,0x32,0x31,0x38,0x30
000108 3800
000109 2d36
00010a 3630
00010b 3336      	.DB  0x0,0x38,0x36,0x2D,0x30,0x36,0x36,0x33
00010c 3800
00010d 2d36
00010e 3331
00010f 3934      	.DB  0x0,0x38,0x36,0x2D,0x31,0x33,0x34,0x39
000110 3800
000111 2d36
000112 3831
000113 3433      	.DB  0x0,0x38,0x36,0x2D,0x31,0x38,0x33,0x34
000114 3800
000115 2d36
000116 3232
000117 3430      	.DB  0x0,0x38,0x36,0x2D,0x32,0x32,0x30,0x34
000118 3800
000119 2d37
00011a 3630
00011b 3336      	.DB  0x0,0x38,0x37,0x2D,0x30,0x36,0x36,0x33
00011c 3800
00011d 2d37
00011e 3331
00011f 3934      	.DB  0x0,0x38,0x37,0x2D,0x31,0x33,0x34,0x39
000120 3800
000121 2d37
000122 3831
000123 3433      	.DB  0x0,0x38,0x37,0x2D,0x31,0x38,0x33,0x34
000124 3800
000125 2d37
000126 3232
000127 3430      	.DB  0x0,0x38,0x37,0x2D,0x32,0x32,0x30,0x34
000128 3800
000129 2d36
00012a 3730
00012b 3836      	.DB  0x0,0x38,0x36,0x2D,0x30,0x37,0x36,0x38
00012c 3800
00012d 2d36
00012e 3331
00012f 3735      	.DB  0x0,0x38,0x36,0x2D,0x31,0x33,0x35,0x37
000130 3800
000131 2d36
000132 3831
000133 3834      	.DB  0x0,0x38,0x36,0x2D,0x31,0x38,0x34,0x38
000134 3800
000135 2d36
000136 3232
000137 3231      	.DB  0x0,0x38,0x36,0x2D,0x32,0x32,0x31,0x32
000138 3800
000139 2d37
00013a 3730
00013b 3836      	.DB  0x0,0x38,0x37,0x2D,0x30,0x37,0x36,0x38
00013c 3800
00013d 2d37
00013e 3331
00013f 3735      	.DB  0x0,0x38,0x37,0x2D,0x31,0x33,0x35,0x37
000140 3800
000141 2d37
000142 3831
000143 3834      	.DB  0x0,0x38,0x37,0x2D,0x31,0x38,0x34,0x38
000144 3800
000145 2d37
000146 3232
000147 3231      	.DB  0x0,0x38,0x37,0x2D,0x32,0x32,0x31,0x32
000148 3800
000149 2d36
00014a 3830
00014b 3030      	.DB  0x0,0x38,0x36,0x2D,0x30,0x38,0x30,0x30
00014c 3800
00014d 2d36
00014e 3331
00014f 3336      	.DB  0x0,0x38,0x36,0x2D,0x31,0x33,0x36,0x33
000150 3800
000151 2d36
000152 3931
000153 3430      	.DB  0x0,0x38,0x36,0x2D,0x31,0x39,0x30,0x34
000154 3800
000155 2d36
000156 3232
000157 3134      	.DB  0x0,0x38,0x36,0x2D,0x32,0x32,0x34,0x31
000158 3800
000159 2d37
00015a 3830
00015b 3030      	.DB  0x0,0x38,0x37,0x2D,0x30,0x38,0x30,0x30
00015c 3800
00015d 2d37
00015e 3331
00015f 3336      	.DB  0x0,0x38,0x37,0x2D,0x31,0x33,0x36,0x33
000160 3800
000161 2d37
000162 3931
000163 3430      	.DB  0x0,0x38,0x37,0x2D,0x31,0x39,0x30,0x34
000164 3800
000165 2d37
000166 3232
000167 3134      	.DB  0x0,0x38,0x37,0x2D,0x32,0x32,0x34,0x31
000168 3800
000169 2d36
00016a 3830
00016b 3131      	.DB  0x0,0x38,0x36,0x2D,0x30,0x38,0x31,0x31
00016c 3800
00016d 2d36
00016e 3531
00016f 3332      	.DB  0x0,0x38,0x36,0x2D,0x31,0x35,0x32,0x33
000170 3800
000171 2d36
000172 3931
000173 3932      	.DB  0x0,0x38,0x36,0x2D,0x31,0x39,0x32,0x39
000174 3800
000175 2d36
000176 3232
000177 3136      	.DB  0x0,0x38,0x36,0x2D,0x32,0x32,0x36,0x31
000178 3800
000179 2d37
00017a 3830
00017b 3131      	.DB  0x0,0x38,0x37,0x2D,0x30,0x38,0x31,0x31
00017c 3800
00017d 2d37
00017e 3531
00017f 3332      	.DB  0x0,0x38,0x37,0x2D,0x31,0x35,0x32,0x33
000180 3800
000181 2d37
000182 3931
000183 3932      	.DB  0x0,0x38,0x37,0x2D,0x31,0x39,0x32,0x39
000184 3800
000185 2d37
000186 3232
000187 3136      	.DB  0x0,0x38,0x37,0x2D,0x32,0x32,0x36,0x31
000188 3800
000189 2d36
00018a 3830
00018b 3431      	.DB  0x0,0x38,0x36,0x2D,0x30,0x38,0x31,0x34
00018c 3800
00018d 2d36
00018e 3531
00018f 3033      	.DB  0x0,0x38,0x36,0x2D,0x31,0x35,0x33,0x30
000190 3800
000191 2d36
000192 3931
000193 3633      	.DB  0x0,0x38,0x36,0x2D,0x31,0x39,0x33,0x36
000194 3800
000195 2d36
000196 3232
000197 3538      	.DB  0x0,0x38,0x36,0x2D,0x32,0x32,0x38,0x35
000198 3800
000199 2d37
00019a 3830
00019b 3431      	.DB  0x0,0x38,0x37,0x2D,0x30,0x38,0x31,0x34
00019c 3800
00019d 2d37
00019e 3531
00019f 3033      	.DB  0x0,0x38,0x37,0x2D,0x31,0x35,0x33,0x30
0001a0 3800
0001a1 2d37
0001a2 3931
0001a3 3633      	.DB  0x0,0x38,0x37,0x2D,0x31,0x39,0x33,0x36
0001a4 3800
0001a5 2d37
0001a6 3232
0001a7 3538      	.DB  0x0,0x38,0x37,0x2D,0x32,0x32,0x38,0x35
0001a8 3800
0001a9 2d36
0001aa 3830
0001ab 3531      	.DB  0x0,0x38,0x36,0x2D,0x30,0x38,0x31,0x35
0001ac 3800
0001ad 2d36
0001ae 3531
0001af 3135      	.DB  0x0,0x38,0x36,0x2D,0x31,0x35,0x35,0x31
0001b0 3800
0001b1 2d36
0001b2 3931
0001b3 3134      	.DB  0x0,0x38,0x36,0x2D,0x31,0x39,0x34,0x31
0001b4 3800
0001b5 2d36
0001b6 3232
0001b7 3638      	.DB  0x0,0x38,0x36,0x2D,0x32,0x32,0x38,0x36
0001b8 3800
0001b9 2d37
0001ba 3830
0001bb 3531      	.DB  0x0,0x38,0x37,0x2D,0x30,0x38,0x31,0x35
0001bc 3800
0001bd 2d37
0001be 3531
0001bf 3135      	.DB  0x0,0x38,0x37,0x2D,0x31,0x35,0x35,0x31
0001c0 3800
0001c1 2d37
0001c2 3931
0001c3 3134      	.DB  0x0,0x38,0x37,0x2D,0x31,0x39,0x34,0x31
0001c4 3800
0001c5 2d37
0001c6 3232
0001c7 3638      	.DB  0x0,0x38,0x37,0x2D,0x32,0x32,0x38,0x36
0001c8 3800
0001c9 2d36
0001ca 3830
0001cb 3631      	.DB  0x0,0x38,0x36,0x2D,0x30,0x38,0x31,0x36
0001cc 3800
0001cd 2d36
0001ce 3531
0001cf 3235      	.DB  0x0,0x38,0x36,0x2D,0x31,0x35,0x35,0x32
0001d0 3800
0001d1 2d36
0001d2 3032
0001d3 3730      	.DB  0x0,0x38,0x36,0x2D,0x32,0x30,0x30,0x37
0001d4 3800
0001d5 2d36
0001d6 3232
0001d7 3239      	.DB  0x0,0x38,0x36,0x2D,0x32,0x32,0x39,0x32
0001d8 3800
0001d9 2d37
0001da 3830
0001db 3631      	.DB  0x0,0x38,0x37,0x2D,0x30,0x38,0x31,0x36
0001dc 3800
0001dd 2d37
0001de 3531
0001df 3235      	.DB  0x0,0x38,0x37,0x2D,0x31,0x35,0x35,0x32
0001e0 3800
0001e1 2d37
0001e2 3032
0001e3 3730      	.DB  0x0,0x38,0x37,0x2D,0x32,0x30,0x30,0x37
0001e4 3800
0001e5 2d37
0001e6 3232
0001e7 3239      	.DB  0x0,0x38,0x37,0x2D,0x32,0x32,0x39,0x32
0001e8 3800
0001e9 2d36
0001ea 3830
0001eb 3731      	.DB  0x0,0x38,0x36,0x2D,0x30,0x38,0x31,0x37
0001ec 3800
0001ed 2d36
0001ee 3631
0001ef 3230      	.DB  0x0,0x38,0x36,0x2D,0x31,0x36,0x30,0x32
0001f0 3800
0001f1 2d36
0001f2 3032
0001f3 3731      	.DB  0x0,0x38,0x36,0x2D,0x32,0x30,0x31,0x37
0001f4 3800
0001f5 2d36
0001f6 3332
0001f7 3438      	.DB  0x0,0x38,0x36,0x2D,0x32,0x33,0x38,0x34
0001f8 3800
0001f9 2d37
0001fa 3830
0001fb 3731      	.DB  0x0,0x38,0x37,0x2D,0x30,0x38,0x31,0x37
0001fc 3800
0001fd 2d37
0001fe 3631
0001ff 3230      	.DB  0x0,0x38,0x37,0x2D,0x31,0x36,0x30,0x32
000200 3800
000201 2d37
000202 3032
000203 3731      	.DB  0x0,0x38,0x37,0x2D,0x32,0x30,0x31,0x37
000204 3800
000205 2d37
000206 3332
000207 3438      	.DB  0x0,0x38,0x37,0x2D,0x32,0x33,0x38,0x34
000208 3800
000209 2d36
00020a 3830
00020b 3734      	.DB  0x0,0x38,0x36,0x2D,0x30,0x38,0x34,0x37
00020c 3800
00020d 2d36
00020e 3631
00020f 3032      	.DB  0x0,0x38,0x36,0x2D,0x31,0x36,0x32,0x30
000210 3800
000211 2d36
000212 3032
000213 3931      	.DB  0x0,0x38,0x36,0x2D,0x32,0x30,0x31,0x39
000214 3800
000215 2d36
000216 3332
000217 3538      	.DB  0x0,0x38,0x36,0x2D,0x32,0x33,0x38,0x35
000218 3800
000219 2d37
00021a 3830
00021b 3734      	.DB  0x0,0x38,0x37,0x2D,0x30,0x38,0x34,0x37
00021c 3800
00021d 2d37
00021e 3631
00021f 3032      	.DB  0x0,0x38,0x37,0x2D,0x31,0x36,0x32,0x30
000220 3800
000221 2d37
000222 3032
000223 3931      	.DB  0x0,0x38,0x37,0x2D,0x32,0x30,0x31,0x39
000224 3800
000225 2d37
000226 3332
000227 3538      	.DB  0x0,0x38,0x37,0x2D,0x32,0x33,0x38,0x35
000228 3800
000229 2d36
00022a 3830
00022b 3435      	.DB  0x0,0x38,0x36,0x2D,0x30,0x38,0x35,0x34
00022c 3800
00022d 2d36
00022e 3631
00022f 3232      	.DB  0x0,0x38,0x36,0x2D,0x31,0x36,0x32,0x32
000230 3800
000231 2d36
000232 3032
000233 3832      	.DB  0x0,0x38,0x36,0x2D,0x32,0x30,0x32,0x38
000234 3800
000235 2d36
000236 3432
000237 3733      	.DB  0x0,0x38,0x36,0x2D,0x32,0x34,0x33,0x37
000238 3800
000239 2d37
00023a 3830
00023b 3435      	.DB  0x0,0x38,0x37,0x2D,0x30,0x38,0x35,0x34
00023c 3800
00023d 2d37
00023e 3631
00023f 3232      	.DB  0x0,0x38,0x37,0x2D,0x31,0x36,0x32,0x32
000240 3800
000241 2d37
000242 3032
000243 3832      	.DB  0x0,0x38,0x37,0x2D,0x32,0x30,0x32,0x38
000244 3800
000245 2d37
000246 3432
000247 3733      	.DB  0x0,0x38,0x37,0x2D,0x32,0x34,0x33,0x37
000248 3800
000249 2d36
00024a 3830
00024b 3236      	.DB  0x0,0x38,0x36,0x2D,0x30,0x38,0x36,0x32
00024c 3800
00024d 2d36
00024e 3631
00024f 3532      	.DB  0x0,0x38,0x36,0x2D,0x31,0x36,0x32,0x35
000250 3800
000251 2d36
000252 3032
000253 3235      	.DB  0x0,0x38,0x36,0x2D,0x32,0x30,0x35,0x32
000254 3800
000255 2d36
000256 3432
000257 3239      	.DB  0x0,0x38,0x36,0x2D,0x32,0x34,0x39,0x32
000258 3800
000259 2d37
00025a 3830
00025b 3236      	.DB  0x0,0x38,0x37,0x2D,0x30,0x38,0x36,0x32
00025c 3800
00025d 2d37
00025e 3631
00025f 3532      	.DB  0x0,0x38,0x37,0x2D,0x31,0x36,0x32,0x35
000260 3800
000261 2d37
000262 3032
000263 3235      	.DB  0x0,0x38,0x37,0x2D,0x32,0x30,0x35,0x32
000264 3800
000265 2d37
000266 3432
000267 3239      	.DB  0x0,0x38,0x37,0x2D,0x32,0x34,0x39,0x32
000268 3800
000269 2d36
00026a 3930
00026b 3533      	.DB  0x0,0x38,0x36,0x2D,0x30,0x39,0x33,0x35
00026c 3800
00026d 2d36
00026e 3631
00026f 3834      	.DB  0x0,0x38,0x36,0x2D,0x31,0x36,0x34,0x38
000270 3800
000271 2d36
000272 3032
000273 3238      	.DB  0x0,0x38,0x36,0x2D,0x32,0x30,0x38,0x32
000274 3800
000275 2d36
000276 3532
000277 3030      	.DB  0x0,0x38,0x36,0x2D,0x32,0x35,0x30,0x30
000278 3800
000279 2d37
00027a 3930
00027b 3533      	.DB  0x0,0x38,0x37,0x2D,0x30,0x39,0x33,0x35
00027c 3800
00027d 2d37
00027e 3631
00027f 3834      	.DB  0x0,0x38,0x37,0x2D,0x31,0x36,0x34,0x38
000280 3800
000281 2d37
000282 3032
000283 3238      	.DB  0x0,0x38,0x37,0x2D,0x32,0x30,0x38,0x32
000284 3800
000285 2d37
000286 3532
000287 3030      	.DB  0x0,0x38,0x37,0x2D,0x32,0x35,0x30,0x30
000288 3800
000289 2d36
00028a 3031
00028b 3931      	.DB  0x0,0x38,0x36,0x2D,0x31,0x30,0x31,0x39
00028c 3800
00028d 2d36
00028e 3631
00028f 3934      	.DB  0x0,0x38,0x36,0x2D,0x31,0x36,0x34,0x39
000290 3800
000291 2d36
000292 3032
000293 3338      	.DB  0x0,0x38,0x36,0x2D,0x32,0x30,0x38,0x33
000294 3800
000295 2d36
000296 3532
000297 3538      	.DB  0x0,0x38,0x36,0x2D,0x32,0x35,0x38,0x35
000298 3800
000299 2d37
00029a 3031
00029b 3931      	.DB  0x0,0x38,0x37,0x2D,0x31,0x30,0x31,0x39
00029c 3800
00029d 2d37
00029e 3631
00029f 3934      	.DB  0x0,0x38,0x37,0x2D,0x31,0x36,0x34,0x39
0002a0 3800
0002a1 2d37
0002a2 3032
0002a3 3338      	.DB  0x0,0x38,0x37,0x2D,0x32,0x30,0x38,0x33
0002a4 3800
0002a5 2d37
0002a6 3632
0002a7 3432      	.DB  0x0,0x38,0x37,0x2D,0x32,0x36,0x32,0x34
0002a8 3800
0002a9 2d36
0002aa 3031
0002ab 3732      	.DB  0x0,0x38,0x36,0x2D,0x31,0x30,0x32,0x37
0002ac 3800
0002ad 2d36
0002ae 3631
0002af 3936      	.DB  0x0,0x38,0x36,0x2D,0x31,0x36,0x36,0x39
0002b0 3800
0002b1 2d36
0002b2 3032
0002b3 3738      	.DB  0x0,0x38,0x36,0x2D,0x32,0x30,0x38,0x37
0002b4 3800
0002b5 2d36
0002b6 3632
0002b7 3432      	.DB  0x0,0x38,0x36,0x2D,0x32,0x36,0x32,0x34
0002b8 3800
0002b9 2d37
0002ba 3031
0002bb 3732      	.DB  0x0,0x38,0x37,0x2D,0x31,0x30,0x32,0x37
0002bc 3800
0002bd 2d37
0002be 3631
0002bf 3936      	.DB  0x0,0x38,0x37,0x2D,0x31,0x36,0x36,0x39
0002c0 3800
0002c1 2d37
0002c2 3032
0002c3 3738      	.DB  0x0,0x38,0x37,0x2D,0x32,0x30,0x38,0x37
0002c4 3800
0002c5 2d37
0002c6 3532
0002c7 3538      	.DB  0x0,0x38,0x37,0x2D,0x32,0x35,0x38,0x35
0002c8 4e00
0002c9 6569
0002ca 7720
0002cb 7a63      	.DB  0x0,0x4E,0x69,0x65,0x20,0x77,0x63,0x7A
0002cc 7479
0002cd 6e61
0002ce 206f
0002cf 617a      	.DB  0x79,0x74,0x61,0x6E,0x6F,0x20,0x7A,0x61
0002d0 6963
0002d1 6b73
0002d2 0075
0002d3 6f50      	.DB  0x63,0x69,0x73,0x6B,0x75,0x0,0x50,0x6F
0002d4 797a
0002d5 6a63
0002d6 6e6f
0002d7 6a75      	.DB  0x7A,0x79,0x63,0x6A,0x6F,0x6E,0x75,0x6A
0002d8 2065
0002d9 6b75
0002da 616c
0002db 7964      	.DB  0x65,0x20,0x75,0x6B,0x6C,0x61,0x64,0x79
0002dc 6c20
0002dd 6e69
0002de 6f69
0002df 6577      	.DB  0x20,0x6C,0x69,0x6E,0x69,0x6F,0x77,0x65
0002e0 5820
0002e1 5a59
0002e2 5300
0002e3 6574      	.DB  0x20,0x58,0x59,0x5A,0x0,0x53,0x74,0x65
0002e4 6f72
0002e5 6e77
0002e6 6b69
0002e7 3120      	.DB  0x72,0x6F,0x77,0x6E,0x69,0x6B,0x20,0x31
0002e8 2d20
0002e9 7720
0002ea 7079
0002eb 7a6f      	.DB  0x20,0x2D,0x20,0x77,0x79,0x70,0x6F,0x7A
0002ec 6379
0002ed 6f6a
0002ee 6f6e
0002ef 6177      	.DB  0x79,0x63,0x6A,0x6F,0x6E,0x6F,0x77,0x61
0002f0 656c
0002f1 006d
0002f2 7453
0002f3 7265      	.DB  0x6C,0x65,0x6D,0x0,0x53,0x74,0x65,0x72
0002f4 776f
0002f5 696e
0002f6 206b
0002f7 2032      	.DB  0x6F,0x77,0x6E,0x69,0x6B,0x20,0x32,0x20
0002f8 202d
0002f9 7977
0002fa 6f70
0002fb 797a      	.DB  0x2D,0x20,0x77,0x79,0x70,0x6F,0x7A,0x79
0002fc 6a63
0002fd 6e6f
0002fe 776f
0002ff 6c61      	.DB  0x63,0x6A,0x6F,0x6E,0x6F,0x77,0x61,0x6C
000300 6d65
000301 5300
000302 6574
000303 6f72      	.DB  0x65,0x6D,0x0,0x53,0x74,0x65,0x72,0x6F
000304 6e77
000305 6b69
000306 3320
000307 2d20      	.DB  0x77,0x6E,0x69,0x6B,0x20,0x33,0x20,0x2D
000308 7720
000309 7079
00030a 7a6f
00030b 6379      	.DB  0x20,0x77,0x79,0x70,0x6F,0x7A,0x79,0x63
00030c 6f6a
00030d 6f6e
00030e 6177
00030f 656c      	.DB  0x6A,0x6F,0x6E,0x6F,0x77,0x61,0x6C,0x65
000310 006d
000311 7453
000312 7265
000313 776f      	.DB  0x6D,0x0,0x53,0x74,0x65,0x72,0x6F,0x77
000314 696e
000315 206b
000316 2034
000317 202d      	.DB  0x6E,0x69,0x6B,0x20,0x34,0x20,0x2D,0x20
000318 7977
000319 6f70
00031a 797a
00031b 6a63      	.DB  0x77,0x79,0x70,0x6F,0x7A,0x79,0x63,0x6A
00031c 6e6f
00031d 776f
00031e 6c61
00031f 6d65      	.DB  0x6F,0x6E,0x6F,0x77,0x61,0x6C,0x65,0x6D
000320 5700
000321 7079
000322 7a6f
000323 6379      	.DB  0x0,0x57,0x79,0x70,0x6F,0x7A,0x79,0x63
000324 6f6a
000325 6f6e
000326 6177
000327 6f6e      	.DB  0x6A,0x6F,0x6E,0x6F,0x77,0x61,0x6E,0x6F
000328 7520
000329 6c6b
00032a 6461
00032b 2079      	.DB  0x20,0x75,0x6B,0x6C,0x61,0x64,0x79,0x20
00032c 696c
00032d 696e
00032e 776f
00032f 2065      	.DB  0x6C,0x69,0x6E,0x69,0x6F,0x77,0x65,0x20
000330 5958
000331 005a
000332 7250
000333 657a      	.DB  0x58,0x59,0x5A,0x0,0x50,0x72,0x7A,0x65
000334 6963
000335 7a61
000336 6e65
000337 6169      	.DB  0x63,0x69,0x61,0x7A,0x65,0x6E,0x69,0x61
000338 4c20
000339 4645
00033a 3353
00033b 5f32      	.DB  0x20,0x4C,0x45,0x46,0x53,0x33,0x32,0x5F
00033c 0031
00033d 7250
00033e 657a
00033f 6963      	.DB  0x31,0x0,0x50,0x72,0x7A,0x65,0x63,0x69
000340 7a61
000341 6e65
000342 6169
000343 4c20      	.DB  0x61,0x7A,0x65,0x6E,0x69,0x61,0x20,0x4C
000344 4645
000345 3353
000346 5f32
000347 0032      	.DB  0x45,0x46,0x53,0x33,0x32,0x5F,0x32,0x0
000348 7250
000349 657a
00034a 6963
00034b 7a61      	.DB  0x50,0x72,0x7A,0x65,0x63,0x69,0x61,0x7A
00034c 6e65
00034d 6169
00034e 4c20
00034f 4645      	.DB  0x65,0x6E,0x69,0x61,0x20,0x4C,0x45,0x46
000350 5f53
000351 5958
000352 325f
000353 5000      	.DB  0x53,0x5F,0x58,0x59,0x5F,0x32,0x0,0x50
000354 7a72
000355 6365
000356 6169
000357 657a      	.DB  0x72,0x7A,0x65,0x63,0x69,0x61,0x7A,0x65
000358 696e
000359 2061
00035a 454c
00035b 5346      	.DB  0x6E,0x69,0x61,0x20,0x4C,0x45,0x46,0x53
00035c 585f
00035d 5f59
00035e 0031      	.DB  0x5F,0x58,0x59,0x5F,0x31,0x0
                 _0x2020060:
C:\cvavreval\BORG\v2\Master\List\Borg.asm(1318): warning: .cseg .db misalignment - padding zero byte
00035f 0001      	.DB  0x1
                 _0x2020000:
000360 4e2d
000361 4e41
000362 4900
000363 464e      	.DB  0x2D,0x4E,0x41,0x4E,0x0,0x49,0x4E,0x46
C:\cvavreval\BORG\v2\Master\List\Borg.asm(1321): warning: .cseg .db misalignment - padding zero byte
000364 0000      	.DB  0x0
                 
                 __GLOBAL_INI_TBL:
000365 0001      	.DW  0x01
000366 0002      	.DW  0x02
000367 009e      	.DW  __REG_BIT_VARS*2
                 
000368 0001      	.DW  0x01
000369 057f      	.DW  __seed_G101
00036a 06be      	.DW  _0x2020060*2
                 
                 _0xFFFFFFFF:
00036b 0000      	.DW  0
                 
                 __RESET:
00036c 94f8      	CLI
00036d 27ee      	CLR  R30
00036e bbec      	OUT  EECR,R30
                 
                 ;INTERRUPT VECTORS ARE PLACED
                 ;AT THE START OF FLASH
00036f e0f1      	LDI  R31,1
000370 bff5      	OUT  MCUCR,R31
000371 bfe5      	OUT  MCUCR,R30
000372 93e0 006c 	STS  XMCRB,R30
                 
                 ;DISABLE WATCHDOG
000374 e1f8      	LDI  R31,0x18
000375 bdf1      	OUT  WDTCR,R31
000376 bde1      	OUT  WDTCR,R30
                 
                 ;CLEAR R2-R14
000377 e08d      	LDI  R24,(14-2)+1
000378 e0a2      	LDI  R26,2
000379 27bb      	CLR  R27
                 __CLEAR_REG:
00037a 93ed      	ST   X+,R30
00037b 958a      	DEC  R24
00037c f7e9      	BRNE __CLEAR_REG
                 
                 ;CLEAR SRAM
00037d e080      	LDI  R24,LOW(__CLEAR_SRAM_SIZE)
00037e e190      	LDI  R25,HIGH(__CLEAR_SRAM_SIZE)
00037f e0a0      	LDI  R26,LOW(__SRAM_START)
000380 e0b1      	LDI  R27,HIGH(__SRAM_START)
                 __CLEAR_SRAM:
000381 93ed      	ST   X+,R30
000382 9701      	SBIW R24,1
000383 f7e9      	BRNE __CLEAR_SRAM
                 
                 ;GLOBAL VARIABLES INITIALIZATION
000384 ecea      	LDI  R30,LOW(__GLOBAL_INI_TBL*2)
000385 e0f6      	LDI  R31,HIGH(__GLOBAL_INI_TBL*2)
                 __GLOBAL_INI_NEXT:
000386 9185      	LPM  R24,Z+
000387 9195      	LPM  R25,Z+
000388 9700      	SBIW R24,0
000389 f061      	BREQ __GLOBAL_INI_END
00038a 91a5      	LPM  R26,Z+
00038b 91b5      	LPM  R27,Z+
00038c 9005      	LPM  R0,Z+
00038d 9015      	LPM  R1,Z+
00038e 01bf      	MOVW R22,R30
00038f 01f0      	MOVW R30,R0
                 __GLOBAL_INI_LOOP:
000390 9005      	LPM  R0,Z+
000391 920d      	ST   X+,R0
000392 9701      	SBIW R24,1
000393 f7e1      	BRNE __GLOBAL_INI_LOOP
000394 01fb      	MOVW R30,R22
000395 cff0      	RJMP __GLOBAL_INI_NEXT
                 __GLOBAL_INI_END:
                 
000396 bf8b      	OUT  RAMPZ,R24
                 
                 ;HARDWARE STACK POINTER INITIALIZATION
000397 efef      	LDI  R30,LOW(__SRAM_END-__HEAP_SIZE)
000398 bfed      	OUT  SPL,R30
000399 e1e0      	LDI  R30,HIGH(__SRAM_END-__HEAP_SIZE)
00039a bfee      	OUT  SPH,R30
                 
                 ;DATA STACK POINTER INITIALIZATION
00039b e0c0      	LDI  R28,LOW(__SRAM_START+__DSTACK_SIZE)
00039c e0d5      	LDI  R29,HIGH(__SRAM_START+__DSTACK_SIZE)
                 
00039d 940c 0f91 	JMP  _main
                 
                 	.ESEG
                 	.ORG 0
                 
                 	.DSEG
                 	.ORG 0x500
                 
                 	.CSEG
                 ;/*****************************************************
                 ;This program was produced by the
                 ;CodeWizardAVR V2.05.0 Professional
                 ;Automatic Program Generator
                 ; Copyright 1998-2010 Pavel Haiduc, HP InfoTech s.r.l.
                 ;http://www.hpinfotech.com
                 ;
                 ;Project :
                 ;Version :
                 ;Date    : 2018-08-31
                 ;Author  :
                 ;Company :
                 ;Comments:
                 ;
                 ;
                 ;Chip type               : ATmega128
                 ;Program type            : Application
                 ;AVR Core Clock frequency: 16,000000 MHz
                 ;Memory model            : Small
                 ;External RAM size       : 0
                 ;Data Stack size         : 1024
                 ;*****************************************************/
                 ;
                 ;#include <io.h>
                 	#ifndef __SLEEP_DEFINED__
                 	#define __SLEEP_DEFINED__
                 	.EQU __se_bit=0x20
                 	.EQU __sm_mask=0x1C
                 	.EQU __sm_powerdown=0x10
                 	.EQU __sm_powersave=0x18
                 	.EQU __sm_standby=0x14
                 	.EQU __sm_ext_standby=0x1C
                 	.EQU __sm_adc_noise_red=0x08
                 	.SET power_ctrl_reg=mcucr
                 	#endif
                 ;
                 ;#define DATA_REGISTER_EMPTY (1<<UDRE0)
                 ;#define RX_COMPLETE (1<<RXC0)
                 ;#define FRAMING_ERROR (1<<FE0)
                 ;#define PARITY_ERROR (1<<UPE0)
                 ;#define DATA_OVERRUN (1<<DOR0)
                 ;
                 ;// Get a character from the USART1 Receiver
                 ;#pragma used+
                 ;char getchar1(void)
                 ; 0000 0023 {
                 
                 	.CSEG
                 ; 0000 0024 unsigned char status;
                 ; 0000 0025 char data;
                 ; 0000 0026 while (1)
                 ;	status -> R17
                 ;	data -> R16
                 ; 0000 0027       {
                 ; 0000 0028       while (((status=UCSR1A) & RX_COMPLETE)==0);
                 ; 0000 0029       data=UDR1;
                 ; 0000 002A       if ((status & (FRAMING_ERROR | PARITY_ERROR | DATA_OVERRUN))==0)
                 ; 0000 002B          return data;
                 ; 0000 002C       }
                 ; 0000 002D }
                 ;#pragma used-
                 ;
                 ;// Write a character to the USART1 Transmitter
                 ;#pragma used+
                 ;void putchar1(char c)
                 ; 0000 0033 {
                 ; 0000 0034 while ((UCSR1A & DATA_REGISTER_EMPTY)==0);
                 ;	c -> Y+0
                 ; 0000 0035 UDR1=c;
                 ; 0000 0036 }
                 ;#pragma used-
                 ;
                 ;
                 ;
                 ;#include <mega128.h>
                 ;#include <delay.h>
                 ;#include <string.h>
                 ;#include <stdlib.h>
                 ;#include <math.h>
                 ;#include <stdio.h>
                 ;
                 ;// I2C Bus functions
                 ;#asm
                    .equ __i2c_port=0x12 ;PORTD
                    .equ __sda_bit=1
                    .equ __scl_bit=0
                 ; 0000 0047 #endasm
                 ;#include <i2c.h>
                 ;
                 ;
                 ;typedef union{
                 ;   struct{
                 ;      unsigned char b0:1;
                 ;      unsigned char b1:1;
                 ;      unsigned char b2:1;
                 ;      unsigned char b3:1;
                 ;      unsigned char b4:1;
                 ;      unsigned char b5:1;
                 ;      unsigned char b6:1;
                 ;      unsigned char b7:1;
                 ;   }bits;
                 ;   unsigned char byte;
                 ;}BB;
                 ;
                 ;BB PORT_F;
                 ;BB PORTHH,PORT_CZYTNIK;
                 ;BB PORTJJ,PORTKK,PORTLL,PORTMM;
                 ;BB PORT_STER3,PORT_STER4;
                 ;int xxx;
                 ;
                 ;int nr_zacisku,odczytalem_zacisk,il_prob_odczytu;
                 ;int macierz_zaciskow[3];
                 ;long int sek1,sek2,sek3,sek4,sek5,sek6,sek7,sek8,sek9,sek10,sek11,sek12;
                 ;int rzad;
                 ;int start;
                 ;int cykl;
                 ;int aaa,bbb,ccc,ddd;
                 ;int pozycjonowanie_LEFS32_300_1;
                 ;int pozycjonowanie_LEFS32_300_2;
                 ;int il_zaciskow_rzad_1,il_zaciskow_rzad_2;
                 ;int cykl_sterownik_1,cykl_sterownik_3,cykl_sterownik_2,cykl_sterownik_4;
                 ;int adr1,adr2,adr3,adr4;
                 ;int cykl_sterownik_3_wykonalem;
                 ;int szczotka_druciana_ilosc_cykli;
                 ;int szczotka_druc_cykl;
                 ;int cykl_glowny;
                 ;int start_kontynuacja;
                 ;int ruch_zlozony;
                 ;int krazek_scierny_cykl_po_okregu;
                 ;int krazek_scierny_cykl_po_okregu_ilosc;
                 ;int krazek_scierny_cykl;
                 ;int krazek_scierny_ilosc_cykli;
                 ;int cykl_ilosc_zaciskow;
                 ;int wykonalem_komplet_okregow;
                 ;int abs_ster3,abs_ster4;
                 ;int koniec_rzedu_10;
                 ;int rzad_obrabiany;
                 ;int jestem_w_trakcie_czyszczenia_calosci;
                 ;int wykonalem_rzedow;
                 ;bit guzik1_przelaczania_zaciskow,guzik2_przelaczania_zaciskow;
                 ;bit zmienna_przelaczanie_zaciskow;
                 ;int czekaj_az_puszcze, czek1, czek2;
                 ;int czas_przedmuchu;
                 ;int a[10];
                 ;
                 ;char sprawdz_pin0(BB PORT, int numer_pcf)
                 ; 0000 0083 {
                 _sprawdz_pin0:
                 ; 0000 0084 i2c_start();
                 ;	PORT -> Y+2
                 ;	numer_pcf -> Y+0
00039f 940e 17b1 	CALL SUBOPT_0x0
                 ; 0000 0085 i2c_write(numer_pcf);
                 ; 0000 0086 PORT.byte = i2c_read(0);
                 ; 0000 0087 i2c_stop();
                 ; 0000 0088 
                 ; 0000 0089 
                 ; 0000 008A return PORT.bits.b0;
0003a1 c025      	RJMP _0x20A0004
                 ; 0000 008B }
                 ;
                 ;char sprawdz_pin1(BB PORT, int numer_pcf)
                 ; 0000 008E {
                 _sprawdz_pin1:
                 ; 0000 008F i2c_start();
                 ;	PORT -> Y+2
                 ;	numer_pcf -> Y+0
0003a2 940e 17b1 	CALL SUBOPT_0x0
                 ; 0000 0090 i2c_write(numer_pcf);
                 ; 0000 0091 PORT.byte = i2c_read(0);
                 ; 0000 0092 i2c_stop();
                 ; 0000 0093 
                 ; 0000 0094 
                 ; 0000 0095 return PORT.bits.b1;
0003a4 95e6      	LSR  R30
0003a5 c021      	RJMP _0x20A0004
                 ; 0000 0096 }
                 ;
                 ;
                 ;char sprawdz_pin2(BB PORT, int numer_pcf)
                 ; 0000 009A {
                 _sprawdz_pin2:
                 ; 0000 009B i2c_start();
                 ;	PORT -> Y+2
                 ;	numer_pcf -> Y+0
0003a6 940e 17b1 	CALL SUBOPT_0x0
                 ; 0000 009C i2c_write(numer_pcf);
                 ; 0000 009D PORT.byte = i2c_read(0);
                 ; 0000 009E i2c_stop();
                 ; 0000 009F 
                 ; 0000 00A0 
                 ; 0000 00A1 return PORT.bits.b2;
0003a8 95e6      	LSR  R30
0003a9 95e6      	LSR  R30
0003aa c01c      	RJMP _0x20A0004
                 ; 0000 00A2 }
                 ;
                 ;char sprawdz_pin3(BB PORT, int numer_pcf)
                 ; 0000 00A5 {
                 _sprawdz_pin3:
                 ; 0000 00A6 i2c_start();
                 ;	PORT -> Y+2
                 ;	numer_pcf -> Y+0
0003ab 940e 17b1 	CALL SUBOPT_0x0
                 ; 0000 00A7 i2c_write(numer_pcf);
                 ; 0000 00A8 PORT.byte = i2c_read(0);
                 ; 0000 00A9 i2c_stop();
                 ; 0000 00AA 
                 ; 0000 00AB 
                 ; 0000 00AC return PORT.bits.b3;
0003ad 95e6      	LSR  R30
0003ae 95e6      	LSR  R30
0003af 95e6      	LSR  R30
0003b0 c016      	RJMP _0x20A0004
                 ; 0000 00AD }
                 ;
                 ;char sprawdz_pin4(BB PORT, int numer_pcf)
                 ; 0000 00B0 {
                 _sprawdz_pin4:
                 ; 0000 00B1 i2c_start();
                 ;	PORT -> Y+2
                 ;	numer_pcf -> Y+0
0003b1 940e 17b1 	CALL SUBOPT_0x0
                 ; 0000 00B2 i2c_write(numer_pcf);
                 ; 0000 00B3 PORT.byte = i2c_read(0);
                 ; 0000 00B4 i2c_stop();
                 ; 0000 00B5 
                 ; 0000 00B6 
                 ; 0000 00B7 return PORT.bits.b4;
0003b3 95e2      	SWAP R30
0003b4 c012      	RJMP _0x20A0004
                 ; 0000 00B8 }
                 ;
                 ;char sprawdz_pin5(BB PORT, int numer_pcf)
                 ; 0000 00BB {
                 _sprawdz_pin5:
                 ; 0000 00BC i2c_start();
                 ;	PORT -> Y+2
                 ;	numer_pcf -> Y+0
0003b5 940e 17b1 	CALL SUBOPT_0x0
                 ; 0000 00BD i2c_write(numer_pcf);
                 ; 0000 00BE PORT.byte = i2c_read(0);
                 ; 0000 00BF i2c_stop();
                 ; 0000 00C0 
                 ; 0000 00C1 
                 ; 0000 00C2 return PORT.bits.b5;
0003b7 95e2      	SWAP R30
0003b8 70ef      	ANDI R30,0xF
0003b9 95e6      	LSR  R30
0003ba c00c      	RJMP _0x20A0004
                 ; 0000 00C3 }
                 ;
                 ;char sprawdz_pin6(BB PORT, int numer_pcf)
                 ; 0000 00C6 {
                 _sprawdz_pin6:
                 ; 0000 00C7 i2c_start();
                 ;	PORT -> Y+2
                 ;	numer_pcf -> Y+0
0003bb 940e 17b1 	CALL SUBOPT_0x0
                 ; 0000 00C8 i2c_write(numer_pcf);
                 ; 0000 00C9 PORT.byte = i2c_read(0);
                 ; 0000 00CA i2c_stop();
                 ; 0000 00CB 
                 ; 0000 00CC 
                 ; 0000 00CD return PORT.bits.b6;
0003bd 95e2      	SWAP R30
0003be 70ef      	ANDI R30,0xF
0003bf 95e6      	LSR  R30
0003c0 95e6      	LSR  R30
0003c1 c005      	RJMP _0x20A0004
                 ; 0000 00CE }
                 ;
                 ;char sprawdz_pin7(BB PORT, int numer_pcf)
                 ; 0000 00D1 {
                 _sprawdz_pin7:
                 ; 0000 00D2 i2c_start();
                 ;	PORT -> Y+2
                 ;	numer_pcf -> Y+0
0003c2 940e 17b1 	CALL SUBOPT_0x0
                 ; 0000 00D3 i2c_write(numer_pcf);
                 ; 0000 00D4 PORT.byte = i2c_read(0);
                 ; 0000 00D5 i2c_stop();
                 ; 0000 00D6 
                 ; 0000 00D7 
                 ; 0000 00D8 return PORT.bits.b7;
0003c4 1fee      	ROL  R30
0003c5 e0e0      	LDI  R30,0
0003c6 1fee      	ROL  R30
                 _0x20A0004:
0003c7 70e1      	ANDI R30,LOW(0x1)
0003c8 9623      	ADIW R28,3
0003c9 9508      	RET
                 ; 0000 00D9 }
                 ;
                 ;int odczytaj_parametr(int adres1, int adres2)
                 ; 0000 00DC {
                 _odczytaj_parametr:
                 ; 0000 00DD int z;
                 ; 0000 00DE z = 0;
0003ca 931a      	ST   -Y,R17
0003cb 930a      	ST   -Y,R16
                 ;	adres1 -> Y+4
                 ;	adres2 -> Y+2
                 ;	z -> R16,R17
                +
0003cc e000     +LDI R16 , LOW ( 0 )
0003cd e010     +LDI R17 , HIGH ( 0 )
                 	__GETWRN 16,17,0
                 ; 0000 00DF putchar(90);
0003ce 940e 17c0 	CALL SUBOPT_0x1
                 ; 0000 00E0 putchar(165);
                 ; 0000 00E1 putchar(4);
0003d0 e0e4      	LDI  R30,LOW(4)
0003d1 93ea      	ST   -Y,R30
0003d2 940e 1646 	CALL _putchar
                 ; 0000 00E2 putchar(131);
0003d4 e8e3      	LDI  R30,LOW(131)
0003d5 940e 17c8 	CALL SUBOPT_0x2
                 ; 0000 00E3 putchar(adres1);
                 ; 0000 00E4 putchar(adres2);
                 ; 0000 00E5 putchar(1);
0003d7 e0e1      	LDI  R30,LOW(1)
0003d8 93ea      	ST   -Y,R30
0003d9 940e 1646 	CALL _putchar
                 ; 0000 00E6 getchar();
0003db 940e 17d3 	CALL SUBOPT_0x3
                 ; 0000 00E7 getchar();
                 ; 0000 00E8 getchar();
                 ; 0000 00E9 getchar();
0003dd 940e 17d3 	CALL SUBOPT_0x3
                 ; 0000 00EA getchar();
                 ; 0000 00EB getchar();
                 ; 0000 00EC getchar();
0003df 940e 17d3 	CALL SUBOPT_0x3
                 ; 0000 00ED getchar();
                 ; 0000 00EE z = getchar();
0003e1 2f0e      	MOV  R16,R30
0003e2 2711      	CLR  R17
                 ; 0000 00EF 
                 ; 0000 00F0 
                 ; 0000 00F1 
                 ; 0000 00F2 
                 ; 0000 00F3 
                 ; 0000 00F4 
                 ; 0000 00F5 
                 ; 0000 00F6 
                 ; 0000 00F7 
                 ; 0000 00F8 
                 ; 0000 00F9 
                 ; 0000 00FA 
                 ; 0000 00FB return z;
0003e3 01f8      	MOVW R30,R16
0003e4 8119      	LDD  R17,Y+1
0003e5 8108      	LDD  R16,Y+0
0003e6 c05c      	RJMP _0x20A0003
                 ; 0000 00FC }
                 ;
                 ;
                 ;
                 ;int czekaj_na_guzik_start(int adres)
                 ; 0000 0101 {
                 ; 0000 0102 //48 to adres zmiennej 30
                 ; 0000 0103 //16 to adres zmiennj 10
                 ; 0000 0104 
                 ; 0000 0105 int z;
                 ; 0000 0106 z = 0;
                 ;	adres -> Y+2
                 ;	z -> R16,R17
                 ; 0000 0107 putchar(90);
                 ; 0000 0108 putchar(165);
                 ; 0000 0109 putchar(4);
                 ; 0000 010A putchar(131);
                 ; 0000 010B putchar(0);
                 ; 0000 010C putchar(adres);  //adres zmiennej - 30
                 ; 0000 010D putchar(1);
                 ; 0000 010E getchar();
                 ; 0000 010F getchar();
                 ; 0000 0110 getchar();
                 ; 0000 0111 getchar();
                 ; 0000 0112 getchar();
                 ; 0000 0113 getchar();
                 ; 0000 0114 getchar();
                 ; 0000 0115 getchar();
                 ; 0000 0116 z = getchar();
                 ; 0000 0117 //itoa(z,dupa1);
                 ; 0000 0118 //lcd_puts(dupa1);
                 ; 0000 0119 
                 ; 0000 011A return z;
                 ; 0000 011B }
                 ;
                 ;
                 ;
                 ;
                 ;// Timer 0 overflow interrupt service routine
                 ;interrupt [TIM0_OVF] void timer0_ovf_isr(void)
                 ; 0000 0122 {
                 _timer0_ovf_isr:
0003e7 936a      	ST   -Y,R22
0003e8 937a      	ST   -Y,R23
0003e9 93aa      	ST   -Y,R26
0003ea 93ba      	ST   -Y,R27
0003eb 93ea      	ST   -Y,R30
0003ec 93fa      	ST   -Y,R31
0003ed b7ef      	IN   R30,SREG
0003ee 93ea      	ST   -Y,R30
                 ; 0000 0123 // Place your code here
                 ; 0000 0124 //16,384 ms
                 ; 0000 0125 sek1++;     //Ster 1
0003ef e0ad      	LDI  R26,LOW(_sek1)
0003f0 e0b5      	LDI  R27,HIGH(_sek1)
0003f1 940e 17d9 	CALL SUBOPT_0x4
                 ; 0000 0126 sek2++;     //ster 3
0003f3 e1a1      	LDI  R26,LOW(_sek2)
0003f4 e0b5      	LDI  R27,HIGH(_sek2)
0003f5 940e 17d9 	CALL SUBOPT_0x4
                 ; 0000 0127 
                 ; 0000 0128 
                 ; 0000 0129 sek3++;     //ster 2
0003f7 e1a5      	LDI  R26,LOW(_sek3)
0003f8 e0b5      	LDI  R27,HIGH(_sek3)
0003f9 940e 17d9 	CALL SUBOPT_0x4
                 ; 0000 012A sek4++;     //ster 4
0003fb e1a9      	LDI  R26,LOW(_sek4)
0003fc e0b5      	LDI  R27,HIGH(_sek4)
0003fd 940e 17d9 	CALL SUBOPT_0x4
                 ; 0000 012B 
                 ; 0000 012C 
                 ; 0000 012D //sek10++;
                 ; 0000 012E 
                 ; 0000 012F sek11++;  //do wyboru zacisku
0003ff e1ad      	LDI  R26,LOW(_sek11)
000400 e0b5      	LDI  R27,HIGH(_sek11)
000401 940e 17d9 	CALL SUBOPT_0x4
                 ; 0000 0130 sek12++;  //do czasu przedmuchu
000403 e2a1      	LDI  R26,LOW(_sek12)
000404 e0b5      	LDI  R27,HIGH(_sek12)
000405 940e 17d9 	CALL SUBOPT_0x4
                 ; 0000 0131 }
000407 91e9      	LD   R30,Y+
000408 bfef      	OUT  SREG,R30
000409 91f9      	LD   R31,Y+
00040a 91e9      	LD   R30,Y+
00040b 91b9      	LD   R27,Y+
00040c 91a9      	LD   R26,Y+
00040d 9179      	LD   R23,Y+
00040e 9169      	LD   R22,Y+
00040f 9518      	RETI
                 ;
                 ;
                 ;
                 ;
                 ;
                 ;// Declare your global variables here
                 ;
                 ;void komunikat_na_panel(char flash *fmtstr,int adres2,int adres22)
                 ; 0000 013A {
                 _komunikat_na_panel:
                 ; 0000 013B int h;
                 ; 0000 013C 
                 ; 0000 013D h = 0;
000410 931a      	ST   -Y,R17
000411 930a      	ST   -Y,R16
                 ;	*fmtstr -> Y+6
                 ;	adres2 -> Y+4
                 ;	adres22 -> Y+2
                 ;	h -> R16,R17
                +
000412 e000     +LDI R16 , LOW ( 0 )
000413 e010     +LDI R17 , HIGH ( 0 )
                 	__GETWRN 16,17,0
                 ; 0000 013E h = strlenf(fmtstr);
000414 940e 17e2 	CALL SUBOPT_0x5
000416 940e 1637 	CALL _strlenf
000418 018f      	MOVW R16,R30
                 ; 0000 013F h = h + 3;
                +
000419 5f0d     +SUBI R16 , LOW ( - 3 )
00041a 4f1f     +SBCI R17 , HIGH ( - 3 )
                 	__ADDWRN 16,17,3
                 ; 0000 0140 
                 ; 0000 0141 putchar(90);
00041b 940e 17c0 	CALL SUBOPT_0x1
                 ; 0000 0142 putchar(165);
                 ; 0000 0143 putchar(h);       //ilosc liter 43 + 3
00041d 930a      	ST   -Y,R16
00041e 940e 1646 	CALL _putchar
                 ; 0000 0144 putchar(130);  //82
000420 e8e2      	LDI  R30,LOW(130)
000421 940e 17c8 	CALL SUBOPT_0x2
                 ; 0000 0145 putchar(adres2);    //
                 ; 0000 0146 putchar(adres22);  //
                 ; 0000 0147 printf(fmtstr);
000423 940e 17e2 	CALL SUBOPT_0x5
000425 e080      	LDI  R24,0
000426 940e 178a 	CALL _printf
000428 9622      	ADIW R28,2
                 ; 0000 0148 }
000429 8119      	LDD  R17,Y+1
00042a 8108      	LDD  R16,Y+0
00042b 9628      	ADIW R28,8
00042c 9508      	RET
                 ;
                 ;void wartosc_parametru_panelu(int wartosc, int adres1, int adres2)
                 ; 0000 014B {
                 _wartosc_parametru_panelu:
                 ; 0000 014C putchar(90);  //5A
                 ;	wartosc -> Y+4
                 ;	adres1 -> Y+2
                 ;	adres2 -> Y+0
00042d 940e 17c0 	CALL SUBOPT_0x1
                 ; 0000 014D putchar(165); //A5
                 ; 0000 014E putchar(5);//05
00042f e0e5      	LDI  R30,LOW(5)
000430 93ea      	ST   -Y,R30
000431 940e 17e7 	CALL SUBOPT_0x6
                 ; 0000 014F putchar(130);  //82    /
                 ; 0000 0150 putchar(adres1);    //00
000433 81ea      	LDD  R30,Y+2
000434 93ea      	ST   -Y,R30
000435 940e 1646 	CALL _putchar
                 ; 0000 0151 putchar(adres2);   //40
000437 81e8      	LD   R30,Y
000438 93ea      	ST   -Y,R30
000439 940e 1646 	CALL _putchar
                 ; 0000 0152 putchar(0);    //00
00043b e0e0      	LDI  R30,LOW(0)
00043c 93ea      	ST   -Y,R30
00043d 940e 1646 	CALL _putchar
                 ; 0000 0153 putchar(wartosc);   //80
00043f 81ec      	LDD  R30,Y+4
000440 93ea      	ST   -Y,R30
000441 940e 1646 	CALL _putchar
                 ; 0000 0154 }
                 _0x20A0003:
000443 9626      	ADIW R28,6
000444 9508      	RET
                 ;
                 ;void komunikat_z_czytnika_kodow(char flash *fmtstr,int rzad)
                 ; 0000 0157 {
                 _komunikat_z_czytnika_kodow:
                 ; 0000 0158 int h, adres1,adres11,adres2,adres22;
                 ; 0000 0159 
                 ; 0000 015A h = 0;
000445 9724      	SBIW R28,4
000446 940e 1c1e 	CALL __SAVELOCR6
                 ;	*fmtstr -> Y+12
                 ;	rzad -> Y+10
                 ;	h -> R16,R17
                 ;	adres1 -> R18,R19
                 ;	adres11 -> R20,R21
                 ;	adres2 -> Y+8
                 ;	adres22 -> Y+6
                +
000448 e000     +LDI R16 , LOW ( 0 )
000449 e010     +LDI R17 , HIGH ( 0 )
                 	__GETWRN 16,17,0
                 ; 0000 015B h = strlenf(fmtstr);
00044a 85ec      	LDD  R30,Y+12
00044b 85fd      	LDD  R31,Y+12+1
00044c 93fa      	ST   -Y,R31
00044d 93ea      	ST   -Y,R30
00044e 940e 1637 	CALL _strlenf
000450 018f      	MOVW R16,R30
                 ; 0000 015C h = h + 3;
                +
000451 5f0d     +SUBI R16 , LOW ( - 3 )
000452 4f1f     +SBCI R17 , HIGH ( - 3 )
                 	__ADDWRN 16,17,3
                 ; 0000 015D 
                 ; 0000 015E if(rzad == 1)
000453 85aa      	LDD  R26,Y+10
000454 85bb      	LDD  R27,Y+10+1
000455 9711      	SBIW R26,1
000456 f459      	BRNE _0xD
                 ; 0000 015F    {
                 ; 0000 0160    adres1 = 0;
                +
000457 e020     +LDI R18 , LOW ( 0 )
000458 e030     +LDI R19 , HIGH ( 0 )
                 	__GETWRN 18,19,0
                 ; 0000 0161    adres11 = 80;
                +
000459 e540     +LDI R20 , LOW ( 80 )
00045a e050     +LDI R21 , HIGH ( 80 )
                 	__GETWRN 20,21,80
                 ; 0000 0162    adres2 = 80;
00045b e5e0      	LDI  R30,LOW(80)
00045c e0f0      	LDI  R31,HIGH(80)
00045d 87e8      	STD  Y+8,R30
00045e 87f9      	STD  Y+8+1,R31
                 ; 0000 0163    adres22 = 0;
00045f e0e0      	LDI  R30,LOW(0)
000460 83ee      	STD  Y+6,R30
000461 83ef      	STD  Y+6+1,R30
                 ; 0000 0164    }
                 ; 0000 0165 if(rzad == 2)
                 _0xD:
000462 85aa      	LDD  R26,Y+10
000463 85bb      	LDD  R27,Y+10+1
000464 9712      	SBIW R26,2
000465 f459      	BRNE _0xE
                 ; 0000 0166    {
                 ; 0000 0167    adres1 = 0;
                +
000466 e020     +LDI R18 , LOW ( 0 )
000467 e030     +LDI R19 , HIGH ( 0 )
                 	__GETWRN 18,19,0
                 ; 0000 0168    adres11 = 32;
                +
000468 e240     +LDI R20 , LOW ( 32 )
000469 e050     +LDI R21 , HIGH ( 32 )
                 	__GETWRN 20,21,32
                 ; 0000 0169    adres2 = 64;
00046a e4e0      	LDI  R30,LOW(64)
00046b e0f0      	LDI  R31,HIGH(64)
00046c 87e8      	STD  Y+8,R30
00046d 87f9      	STD  Y+8+1,R31
                 ; 0000 016A    adres22 = 0;
00046e e0e0      	LDI  R30,LOW(0)
00046f 83ee      	STD  Y+6,R30
000470 83ef      	STD  Y+6+1,R30
                 ; 0000 016B    }
                 ; 0000 016C 
                 ; 0000 016D putchar(90);
                 _0xE:
000471 940e 17c0 	CALL SUBOPT_0x1
                 ; 0000 016E putchar(165);
                 ; 0000 016F putchar(h);       //ilosc liter 43 + 3
000473 930a      	ST   -Y,R16
000474 940e 17e7 	CALL SUBOPT_0x6
                 ; 0000 0170 putchar(130);  //82
                 ; 0000 0171 putchar(adres1);    //
000476 932a      	ST   -Y,R18
000477 940e 1646 	CALL _putchar
                 ; 0000 0172 putchar(adres11);  //
000479 934a      	ST   -Y,R20
00047a 940e 1646 	CALL _putchar
                 ; 0000 0173 printf(fmtstr);
00047c 85ec      	LDD  R30,Y+12
00047d 85fd      	LDD  R31,Y+12+1
00047e 93fa      	ST   -Y,R31
00047f 93ea      	ST   -Y,R30
000480 e080      	LDI  R24,0
000481 940e 178a 	CALL _printf
000483 9622      	ADIW R28,2
                 ; 0000 0174 
                 ; 0000 0175 komunikat_na_panel("                                                ",adres2,adres22);
000484 940e 17ed 	CALL SUBOPT_0x7
000486 940e 17f2 	CALL SUBOPT_0x8
000488 940e 17f2 	CALL SUBOPT_0x8
00048a df85      	RCALL _komunikat_na_panel
                 ; 0000 0176 komunikat_na_panel("Wczytano poprawny zacisk",adres2,adres22);
                +
00048b ede1     +LDI R30 , LOW ( 2 * _0x0 + ( 49 ) )
00048c e0f0     +LDI R31 , HIGH ( 2 * _0x0 + ( 49 ) )
                 	__POINTW1FN _0x0,49
00048d 93fa      	ST   -Y,R31
00048e 93ea      	ST   -Y,R30
00048f 940e 17f2 	CALL SUBOPT_0x8
000491 940e 17f2 	CALL SUBOPT_0x8
000493 df7c      	RCALL _komunikat_na_panel
                 ; 0000 0177 
                 ; 0000 0178 }
000494 940e 1c25 	CALL __LOADLOCR6
000496 962e      	ADIW R28,14
000497 9508      	RET
                 ;
                 ;
                 ;
                 ;
                 ;void wyrrrjscia_i_wejscia_opis()
                 ; 0000 017E {
                 ; 0000 017F 
                 ; 0000 0180 
                 ; 0000 0181 //IN0
                 ; 0000 0182 
                 ; 0000 0183 //komunikacja miedzy slave a master
                 ; 0000 0184 //sprawdz_pin0(PORTHH,0x73)
                 ; 0000 0185 //sprawdz_pin1(PORTHH,0x73)
                 ; 0000 0186 //sprawdz_pin2(PORTHH,0x73)
                 ; 0000 0187 //sprawdz_pin3(PORTHH,0x73)
                 ; 0000 0188 //sprawdz_pin4(PORTHH,0x73)
                 ; 0000 0189 //sprawdz_pin5(PORTHH,0x73)
                 ; 0000 018A //sprawdz_pin6(PORTHH,0x73)
                 ; 0000 018B //sprawdz_pin7(PORTHH,0x73)
                 ; 0000 018C 
                 ; 0000 018D //IN1
                 ; 0000 018E //sprawdz_pin0(PORTJJ,0x79)  BUSY   STEROWNIK1
                 ; 0000 018F //sprawdz_pin1(PORTJJ,0x79)  AREA   STEROWNIK1
                 ; 0000 0190 //sprawdz_pin2(PORTJJ,0x79)  SETON  STEROWNIK1
                 ; 0000 0191 //sprawdz_pin3(PORTJJ,0x79)  INP    STEROWNIK1
                 ; 0000 0192 //sprawdz_pin4(PORTJJ,0x79)  SVRE   STEROWNIK1
                 ; 0000 0193 //sprawdz_pin5(PORTJJ,0x79)  ALARM  STEROWNIK1
                 ; 0000 0194 //sprawdz_pin6(PORTJJ,0x79)  czujnik cisnienia
                 ; 0000 0195 //sprawdz_pin7(PORTJJ,0x79)
                 ; 0000 0196 
                 ; 0000 0197 //IN2
                 ; 0000 0198 //sprawdz_pin0(PORTKK,0x75)  B7 BUSY    LECCP STEROWNIK3
                 ; 0000 0199 //sprawdz_pin1(PORTKK,0x75)  B8 AREA    LECP6 STEROWNIK3
                 ; 0000 019A //sprawdz_pin2(PORTKK,0x75)  B9 SETON   LECP6 STEROWNIK3
                 ; 0000 019B //sprawdz_pin3(PORTKK,0x75)  B10 INP    LECP6 STEROWNIK3
                 ; 0000 019C //sprawdz_pin4(PORTKK,0x75)  B7 BUSY    LECCP STEROWNIK4
                 ; 0000 019D //sprawdz_pin5(PORTKK,0x75)  B8 AREA    LECP6 STEROWNIK4
                 ; 0000 019E //sprawdz_pin6(PORTKK,0x75)  B9 SETON   LECP6 STEROWNIK4
                 ; 0000 019F //sprawdz_pin7(PORTKK,0x75)  B10 INP    LECP6 STEROWNIK4
                 ; 0000 01A0 
                 ; 0000 01A1 //IN3
                 ; 0000 01A2 //sprawdz_pin0(PORTLL,0x71)  BUSY   STEROWNIK2
                 ; 0000 01A3 //sprawdz_pin1(PORTLL,0x71)  AREA   STEROWNIK2
                 ; 0000 01A4 //sprawdz_pin2(PORTLL,0x71)  SETON  STEROWNIK2
                 ; 0000 01A5 //sprawdz_pin3(PORTLL,0x71)  INP    STEROWNIK2
                 ; 0000 01A6 //sprawdz_pin4(PORTLL,0x71)  SVRE   STEROWNIK2
                 ; 0000 01A7 //sprawdz_pin5(PORTLL,0x71)  ALARM  STEROWNIK2
                 ; 0000 01A8 //sprawdz_pin6(PORTLL,0x71)  S6A przekadanie rzedow
                 ; 0000 01A9 //sprawdz_pin7(PORTLL,0x71)  S6B przekladanie rzedow
                 ; 0000 01AA 
                 ; 0000 01AB //IN4
                 ; 0000 01AC //sprawdz_pin0(PORTMM,0x77)
                 ; 0000 01AD //sprawdz_pin1(PORTMM,0x77)
                 ; 0000 01AE //sprawdz_pin2(PORTMM,0x77)
                 ; 0000 01AF //sprawdz_pin3(PORTMM,0x77)
                 ; 0000 01B0 //sprawdz_pin4(PORTMM,0x77)
                 ; 0000 01B1 //sprawdz_pin5(PORTMM,0x77)
                 ; 0000 01B2 //sprawdz_pin6(PORTMM,0x77) ALARM STEROWNIK4
                 ; 0000 01B3 //sprawdz_pin7(PORTMM,0x77) ALARM STEROWNIK3
                 ; 0000 01B4 
                 ; 0000 01B5 //KARTA IN4 PRZEPINAM Z PORTE NA PORTF (BO RS232)
                 ; 0000 01B6 
                 ; 0000 01B7 
                 ; 0000 01B8 //sterownik 1
                 ; 0000 01B9 //sterownik 3 - szczotka papierowa
                 ; 0000 01BA 
                 ; 0000 01BB //sterownik 2 - druciak
                 ; 0000 01BC ///sterownik 4 - druciak
                 ; 0000 01BD 
                 ; 0000 01BE 
                 ; 0000 01BF //OUT
                 ; 0000 01C0 //PORTA.0   IN0  STEROWNIK1        OUT 1
                 ; 0000 01C1 //PORTA.1   IN1  STEROWNIK1
                 ; 0000 01C2 //PORTA.2   IN2  STEROWNIK1
                 ; 0000 01C3 //PORTA.3   IN3  STEROWNIK1
                 ; 0000 01C4 //PORTA.4   IN4  STEROWNIK1
                 ; 0000 01C5 //PORTA.5   IN5  STEROWNIK1
                 ; 0000 01C6 //PORTA.6   IN6  STEROWNIK1
                 ; 0000 01C7 //PORTA.7   IN7  STEROWNIK1
                 ; 0000 01C8 
                 ; 0000 01C9 //str 83, pin 6 dodac do obu sterownikow
                 ; 0000 01CA 
                 ; 0000 01CB 
                 ; 0000 01CC //PORTB.0   IN0  STEROWNIK4        OUT 5
                 ; 0000 01CD //PORTB.1   IN1  STEROWNIK4
                 ; 0000 01CE //PORTB.2   IN2  STEROWNIK4
                 ; 0000 01CF //PORTB.3   IN3  STEROWNIK4
                 ; 0000 01D0 //PORTB.4   4B CEWKA
                 ; 0000 01D1 //PORTB.5   DRIVE  STEROWNIK4
                 ; 0000 01D2 //PORTB.6   ///////////////////////////////swiatlo zielone
                 ; 0000 01D3 //PORTB.7   IN5 STEROWNIK 3
                 ; 0000 01D4 
                 ; 0000 01D5 //PORTC.0   IN0  STEROWNIK2        OUT 3
                 ; 0000 01D6 //PORTC.1   IN1  STEROWNIK2
                 ; 0000 01D7 //PORTC.2   IN2  STEROWNIK2
                 ; 0000 01D8 //PORTC.3   IN3  STEROWNIK2
                 ; 0000 01D9 //PORTC.4   IN4  STEROWNIK2
                 ; 0000 01DA //PORTC.5   IN5  STEROWNIK2
                 ; 0000 01DB //PORTC.6   IN6  STEROWNIK2
                 ; 0000 01DC //PORTC.7   IN7  STEROWNIK2
                 ; 0000 01DD 
                 ; 0000 01DE //PORTD.0      SDA                 OUT 2
                 ; 0000 01DF //PORTD.1      SCL
                 ; 0000 01E0 //PORTD.2  SETUP   STEROWNIK1 STEROWNIK 2 STEROIWNIK 3 STEROWNIK 4
                 ; 0000 01E1 //PORTD.3  DRIVE   STEROWNIK1
                 ; 0000 01E2 //PORTD.4  IN8 STEROWNIK1
                 ; 0000 01E3 //PORTD.5  IN8 STEROWNIK2
                 ; 0000 01E4 //PORTD.6  DRIVE   STEROWNIK2
                 ; 0000 01E5 //PORTD.7  ///////////////////////////////swiatlo czerwone
                 ; 0000 01E6 
                 ; 0000 01E7 //PORTE.0
                 ; 0000 01E8 //PORTE.1
                 ; 0000 01E9 //PORTE.2  1A CEWKA                     OUT 6
                 ; 0000 01EA //PORTE.3  1B CEWKA
                 ; 0000 01EB //PORTE.4  IN4  STEROWNIK4
                 ; 0000 01EC //PORTE.5  IN5  STEROWNIK4
                 ; 0000 01ED //PORTE.6  2A CEWKA
                 ; 0000 01EE //PORTE.7  3A CEWKA
                 ; 0000 01EF 
                 ; 0000 01F0 //PORTF.0   IN0  STEROWNIK3             OUT 4
                 ; 0000 01F1 //PORTF.1   IN1  STEROWNIK3
                 ; 0000 01F2 //PORTF.2   IN2  STEROWNIK3
                 ; 0000 01F3 //PORTF.3   IN3  STEROWNIK3
                 ; 0000 01F4 //PORTF.4   4A CEWKA
                 ; 0000 01F5 //PORTF.5   DRIVE  STEROWNIK3
                 ; 0000 01F6 //PORTF.6   /////////////////////////////////swiatlo zolte
                 ; 0000 01F7 //PORTF.7   //IN4 STEROWNIK 3
                 ; 0000 01F8 
                 ; 0000 01F9 
                 ; 0000 01FA //POPRAWIC STEROWNIK PRACE ZGODNIE Z OPISEM ZE STRONY 59 - POWINIENEM SPRAWDZIC CZY INP JEST ON A DOPIERO POTEM BUSY
                 ; 0000 01FB //CZY SIE WYLACZYL
                 ; 0000 01FC //FAJNIE ROBIE Z TYM CZEKAIEM 1S
                 ; 0000 01FD 
                 ; 0000 01FE //PODPIAC JESZCZE HOLD WSZYSTKIE DO JEDNEGO
                 ; 0000 01FF 
                 ; 0000 0200 
                 ; 0000 0201 // macierz_zaciskow[rzad]=44; brak
                 ; 0000 0202 
                 ; 0000 0203 //macierz_zaciskow[rzad]=48; brak
                 ; 0000 0204 
                 ; 0000 0205 //macierz_zaciskow[rzad]=76  brak
                 ; 0000 0206 
                 ; 0000 0207 //komunikat_z_czytnika_kodow("87-2286",rzad); brak
                 ; 0000 0208 //macierz_zaciskow[rzad]=80;
                 ; 0000 0209 
                 ; 0000 020A // komunikat_z_czytnika_kodow("86-2384",rzad);
                 ; 0000 020B // macierz_zaciskow[rzad]=92;
                 ; 0000 020C 
                 ; 0000 020D //  komunikat_z_czytnika_kodow("87-2384",rzad);
                 ; 0000 020E //  macierz_zaciskow[rzad]=96;
                 ; 0000 020F 
                 ; 0000 0210 //      komunikat_z_czytnika_kodow("86-2028",rzad);
                 ; 0000 0211 //      macierz_zaciskow[rzad]=107;
                 ; 0000 0212 
                 ; 0000 0213 //      komunikat_z_czytnika_kodow("87-2028",rzad);
                 ; 0000 0214 //      macierz_zaciskow[rzad]=111;
                 ; 0000 0215 
                 ; 0000 0216 
                 ; 0000 0217 
                 ; 0000 0218 
                 ; 0000 0219 /*
                 ; 0000 021A 
                 ; 0000 021B //testy parzystych i nieparzystych IN0-IN8
                 ; 0000 021C //testy port/pin
                 ; 0000 021D //sterownik 3
                 ; 0000 021E //PORTF.0   IN0  STEROWNIK3
                 ; 0000 021F //PORTF.1   IN1  STEROWNIK3
                 ; 0000 0220 //PORTF.2   IN2  STEROWNIK3
                 ; 0000 0221 //PORTF.3   IN3  STEROWNIK3
                 ; 0000 0222 //PORTF.7   IN4 STEROWNIK 3
                 ; 0000 0223 //PORTB.7   IN5 STEROWNIK 3
                 ; 0000 0224 
                 ; 0000 0225 
                 ; 0000 0226 PORT_F.bits.b0 = 0;
                 ; 0000 0227 PORT_F.bits.b1 = 1;
                 ; 0000 0228 PORT_F.bits.b2 = 0;
                 ; 0000 0229 PORT_F.bits.b3 = 1;
                 ; 0000 022A PORT_F.bits.b7 = 0;
                 ; 0000 022B PORTF = PORT_F.byte;
                 ; 0000 022C PORTB.7 = 1;
                 ; 0000 022D 
                 ; 0000 022E //sterownik 4
                 ; 0000 022F 
                 ; 0000 0230 //PORTB.0   IN0  STEROWNIK4        OUT 5
                 ; 0000 0231 //PORTB.1   IN1  STEROWNIK4
                 ; 0000 0232 //PORTB.2   IN2  STEROWNIK4
                 ; 0000 0233 //PORTB.3   IN3  STEROWNIK4
                 ; 0000 0234 //PORTE.4  IN4  STEROWNIK4
                 ; 0000 0235 //PORTE.5  IN5  STEROWNIK4
                 ; 0000 0236 
                 ; 0000 0237 PORTB.0 = 0;
                 ; 0000 0238 PORTB.1 = 1;
                 ; 0000 0239 PORTB.2 = 0;
                 ; 0000 023A PORTB.3 = 1;
                 ; 0000 023B PORTE.4 = 0;
                 ; 0000 023C PORTE.5 = 1;
                 ; 0000 023D 
                 ; 0000 023E //ster 1
                 ; 0000 023F PORTA.0 = 0;   //IN0  STEROWNIK1        OUT 1
                 ; 0000 0240 PORTA.1 = 1;  //IN1  STEROWNIK1
                 ; 0000 0241 PORTA.2 = 0;  // IN2  STEROWNIK1
                 ; 0000 0242 PORTA.3 = 1;  //IN3  STEROWNIK1
                 ; 0000 0243 PORTA.4 = 0;  // IN4  STEROWNIK1
                 ; 0000 0244 PORTA.5 = 1;  //IN5  STEROWNIK1
                 ; 0000 0245 PORTA.6 = 0;   //IN6  STEROWNIK1
                 ; 0000 0246 PORTA.7 = 1;  //IN7  STEROWNIK1
                 ; 0000 0247 PORTD.4 = 0; //IN8 STEROWNIK1
                 ; 0000 0248 
                 ; 0000 0249 
                 ; 0000 024A 
                 ; 0000 024B //sterownik 2
                 ; 0000 024C PORTC.0 = 0;   //IN0  STEROWNIK2        OUT 3
                 ; 0000 024D PORTC.1  = 1;  //IN1  STEROWNIK2
                 ; 0000 024E PORTC.2 = 0;    //IN2  STEROWNIK2
                 ; 0000 024F PORTC.3= 1;   //IN3  STEROWNIK2
                 ; 0000 0250 PORTC.4 = 0;   // IN4  STEROWNIK2
                 ; 0000 0251 PORTC.5= 1;   //IN5  STEROWNIK2
                 ; 0000 0252 PORTC.6 = 0;   // IN6  STEROWNIK2
                 ; 0000 0253 PORTC.7= 1;   //IN7  STEROWNIK2
                 ; 0000 0254 PORTD.5 = 0;  //IN8 STEROWNIK2
                 ; 0000 0255 
                 ; 0000 0256 */
                 ; 0000 0257 
                 ; 0000 0258 }
                 ;
                 ;void sprawdz_cisnienie()
                 ; 0000 025B {
                 _sprawdz_cisnienie:
                 ; 0000 025C int i;
                 ; 0000 025D //i = 0;
                 ; 0000 025E i = 1;
000498 931a      	ST   -Y,R17
000499 930a      	ST   -Y,R16
                 ;	i -> R16,R17
                +
00049a e001     +LDI R16 , LOW ( 1 )
00049b e010     +LDI R17 , HIGH ( 1 )
                 	__GETWRN 16,17,1
                 ; 0000 025F 
                 ; 0000 0260 while(i == 0)
                 _0xF:
00049c 2e00      	MOV  R0,R16
00049d 2a01      	OR   R0,R17
00049e f4b9      	BRNE _0x11
                 ; 0000 0261     {
                 ; 0000 0262     if(sprawdz_pin6(PORTJJ,0x79) == 0)
00049f 940e 17f7 	CALL SUBOPT_0x9
0004a1 df19      	RCALL _sprawdz_pin6
0004a2 30e0      	CPI  R30,0
0004a3 f429      	BRNE _0x12
                 ; 0000 0263         {
                 ; 0000 0264         i = 1;
                +
0004a4 e001     +LDI R16 , LOW ( 1 )
0004a5 e010     +LDI R17 , HIGH ( 1 )
                 	__GETWRN 16,17,1
                 ; 0000 0265         komunikat_na_panel("                                                ",adr1,adr2);
                +
0004a6 eae0     +LDI R30 , LOW ( 2 * _0x0 + ( 0 ) )
0004a7 e0f0     +LDI R31 , HIGH ( 2 * _0x0 + ( 0 ) )
                 	__POINTW1FN _0x0,0
0004a8 c008      	RJMP _0x27E
                 ; 0000 0266         }
                 ; 0000 0267     else
                 _0x12:
                 ; 0000 0268         {
                 ; 0000 0269         i = 0;
                +
0004a9 e000     +LDI R16 , LOW ( 0 )
0004aa e010     +LDI R17 , HIGH ( 0 )
                 	__GETWRN 16,17,0
                 ; 0000 026A         komunikat_na_panel("                                                ",adr1,adr2);
0004ab 940e 17ed 	CALL SUBOPT_0x7
0004ad 940e 1801 	CALL SUBOPT_0xA
                 ; 0000 026B         komunikat_na_panel("Cisnienie za male - mniejsze niz 6 bar",adr1,adr2);
                +
0004af eeea     +LDI R30 , LOW ( 2 * _0x0 + ( 74 ) )
0004b0 e0f0     +LDI R31 , HIGH ( 2 * _0x0 + ( 74 ) )
                 	__POINTW1FN _0x0,74
                 _0x27E:
0004b1 93fa      	ST   -Y,R31
0004b2 93ea      	ST   -Y,R30
0004b3 940e 1801 	CALL SUBOPT_0xA
                 ; 0000 026C         }
                 ; 0000 026D     }
0004b5 cfe6      	RJMP _0xF
                 _0x11:
                 ; 0000 026E }
0004b6 9109      	LD   R16,Y+
0004b7 9119      	LD   R17,Y+
0004b8 9508      	RET
                 ;
                 ;void odczyt_wybranego_zacisku()
                 ; 0000 0271 {                         //11
                 _odczyt_wybranego_zacisku:
                 ; 0000 0272 
                 ; 0000 0273 
                 ; 0000 0274 PORT_CZYTNIK.bits.b0 = sprawdz_pin0(PORTHH,0x73);
0004b9 940e 180f 	CALL SUBOPT_0xB
0004bb dee3      	RCALL _sprawdz_pin0
0004bc 70e1      	ANDI R30,LOW(0x1)
0004bd 2e0e      	MOV  R0,R30
0004be 91e0 0502 	LDS  R30,_PORT_CZYTNIK
0004c0 7fee      	ANDI R30,0xFE
0004c1 940e 1819 	CALL SUBOPT_0xC
                 ; 0000 0275 PORT_CZYTNIK.bits.b1 = sprawdz_pin1(PORTHH,0x73);
0004c3 dede      	RCALL _sprawdz_pin1
0004c4 70e1      	ANDI R30,LOW(0x1)
0004c5 0fee      	LSL  R30
0004c6 2e0e      	MOV  R0,R30
0004c7 91e0 0502 	LDS  R30,_PORT_CZYTNIK
0004c9 7fed      	ANDI R30,0xFD
0004ca 940e 1819 	CALL SUBOPT_0xC
                 ; 0000 0276 PORT_CZYTNIK.bits.b2 = sprawdz_pin2(PORTHH,0x73);
0004cc ded9      	RCALL _sprawdz_pin2
0004cd 70e1      	ANDI R30,LOW(0x1)
0004ce 0fee      	LSL  R30
0004cf 0fee      	LSL  R30
0004d0 2e0e      	MOV  R0,R30
0004d1 91e0 0502 	LDS  R30,_PORT_CZYTNIK
0004d3 7feb      	ANDI R30,0xFB
0004d4 940e 1819 	CALL SUBOPT_0xC
                 ; 0000 0277 PORT_CZYTNIK.bits.b3 = sprawdz_pin3(PORTHH,0x73);
0004d6 ded4      	RCALL _sprawdz_pin3
0004d7 70e1      	ANDI R30,LOW(0x1)
0004d8 0fee      	LSL  R30
0004d9 0fee      	LSL  R30
0004da 0fee      	LSL  R30
0004db 2e0e      	MOV  R0,R30
0004dc 91e0 0502 	LDS  R30,_PORT_CZYTNIK
0004de 7fe7      	ANDI R30,0XF7
0004df 940e 1819 	CALL SUBOPT_0xC
                 ; 0000 0278 PORT_CZYTNIK.bits.b4 = sprawdz_pin4(PORTHH,0x73);
0004e1 decf      	RCALL _sprawdz_pin4
0004e2 70e1      	ANDI R30,LOW(0x1)
0004e3 95e2      	SWAP R30
0004e4 7fe0      	ANDI R30,0xF0
0004e5 2e0e      	MOV  R0,R30
0004e6 91e0 0502 	LDS  R30,_PORT_CZYTNIK
0004e8 7eef      	ANDI R30,0xEF
0004e9 940e 1819 	CALL SUBOPT_0xC
                 ; 0000 0279 PORT_CZYTNIK.bits.b5 = sprawdz_pin5(PORTHH,0x73);
0004eb dec9      	RCALL _sprawdz_pin5
0004ec 70e1      	ANDI R30,LOW(0x1)
0004ed 95e2      	SWAP R30
0004ee 7fe0      	ANDI R30,0xF0
0004ef 0fee      	LSL  R30
0004f0 2e0e      	MOV  R0,R30
0004f1 91e0 0502 	LDS  R30,_PORT_CZYTNIK
0004f3 7def      	ANDI R30,0xDF
0004f4 940e 1819 	CALL SUBOPT_0xC
                 ; 0000 027A PORT_CZYTNIK.bits.b6 = sprawdz_pin6(PORTHH,0x73);
0004f6 dec4      	RCALL _sprawdz_pin6
0004f7 70e1      	ANDI R30,LOW(0x1)
0004f8 95e2      	SWAP R30
0004f9 7fe0      	ANDI R30,0xF0
0004fa 0fee      	LSL  R30
0004fb 0fee      	LSL  R30
0004fc 2e0e      	MOV  R0,R30
0004fd 91e0 0502 	LDS  R30,_PORT_CZYTNIK
0004ff 7bef      	ANDI R30,0xBF
000500 940e 1819 	CALL SUBOPT_0xC
                 ; 0000 027B PORT_CZYTNIK.bits.b7 = sprawdz_pin7(PORTHH,0x73);
000502 debf      	RCALL _sprawdz_pin7
000503 70e1      	ANDI R30,LOW(0x1)
000504 95e7      	ROR  R30
000505 e0e0      	LDI  R30,0
000506 95e7      	ROR  R30
000507 2e0e      	MOV  R0,R30
000508 91e0 0502 	LDS  R30,_PORT_CZYTNIK
00050a 77ef      	ANDI R30,0x7F
00050b 29e0      	OR   R30,R0
00050c 93e0 0502 	STS  _PORT_CZYTNIK,R30
                 ; 0000 027C 
                 ; 0000 027D rzad = odczytaj_parametr(32,128);       //20,80
00050e 940e 181d 	CALL SUBOPT_0xD
000510 deb9      	RCALL _odczytaj_parametr
000511 016f      	MOVW R12,R30
                 ; 0000 027E 
                 ; 0000 027F if(PORT_CZYTNIK.byte == 0x01)
000512 91a0 0502 	LDS  R26,_PORT_CZYTNIK
000514 30a1      	CPI  R26,LOW(0x1)
000515 f441      	BRNE _0x14
                 ; 0000 0280     {
                 ; 0000 0281       komunikat_z_czytnika_kodow("86-0170",rzad);
                +
000516 e1e1     +LDI R30 , LOW ( 2 * _0x0 + ( 113 ) )
000517 e0f1     +LDI R31 , HIGH ( 2 * _0x0 + ( 113 ) )
                 	__POINTW1FN _0x0,113
000518 940e 1826 	CALL SUBOPT_0xE
                 ; 0000 0282       macierz_zaciskow[rzad]=1;
00051a e0e1      	LDI  R30,LOW(1)
00051b e0f0      	LDI  R31,HIGH(1)
00051c 93ed      	ST   X+,R30
00051d 93fc      	ST   X,R31
                 ; 0000 0283     }
                 ; 0000 0284 
                 ; 0000 0285 if(PORT_CZYTNIK.byte == 0x02)
                 _0x14:
00051e 91a0 0502 	LDS  R26,_PORT_CZYTNIK
000520 30a2      	CPI  R26,LOW(0x2)
000521 f441      	BRNE _0x15
                 ; 0000 0286     {
                 ; 0000 0287       komunikat_z_czytnika_kodow("86-1043",rzad);
                +
000522 e1e9     +LDI R30 , LOW ( 2 * _0x0 + ( 121 ) )
000523 e0f1     +LDI R31 , HIGH ( 2 * _0x0 + ( 121 ) )
                 	__POINTW1FN _0x0,121
000524 940e 1826 	CALL SUBOPT_0xE
                 ; 0000 0288       macierz_zaciskow[rzad]=2;
000526 e0e2      	LDI  R30,LOW(2)
000527 e0f0      	LDI  R31,HIGH(2)
000528 93ed      	ST   X+,R30
000529 93fc      	ST   X,R31
                 ; 0000 0289     }
                 ; 0000 028A 
                 ; 0000 028B if(PORT_CZYTNIK.byte == 0x03)
                 _0x15:
00052a 91a0 0502 	LDS  R26,_PORT_CZYTNIK
00052c 30a3      	CPI  R26,LOW(0x3)
00052d f441      	BRNE _0x16
                 ; 0000 028C     {
                 ; 0000 028D       komunikat_z_czytnika_kodow("86-1675",rzad);
                +
00052e e2e1     +LDI R30 , LOW ( 2 * _0x0 + ( 129 ) )
00052f e0f1     +LDI R31 , HIGH ( 2 * _0x0 + ( 129 ) )
                 	__POINTW1FN _0x0,129
000530 940e 1826 	CALL SUBOPT_0xE
                 ; 0000 028E       macierz_zaciskow[rzad]=3;
000532 e0e3      	LDI  R30,LOW(3)
000533 e0f0      	LDI  R31,HIGH(3)
000534 93ed      	ST   X+,R30
000535 93fc      	ST   X,R31
                 ; 0000 028F     }
                 ; 0000 0290 
                 ; 0000 0291 if(PORT_CZYTNIK.byte == 0x04)
                 _0x16:
000536 91a0 0502 	LDS  R26,_PORT_CZYTNIK
000538 30a4      	CPI  R26,LOW(0x4)
000539 f441      	BRNE _0x17
                 ; 0000 0292     {
                 ; 0000 0293       komunikat_z_czytnika_kodow("86-2098",rzad);
                +
00053a e2e9     +LDI R30 , LOW ( 2 * _0x0 + ( 137 ) )
00053b e0f1     +LDI R31 , HIGH ( 2 * _0x0 + ( 137 ) )
                 	__POINTW1FN _0x0,137
00053c 940e 1826 	CALL SUBOPT_0xE
                 ; 0000 0294       macierz_zaciskow[rzad]=4;
00053e e0e4      	LDI  R30,LOW(4)
00053f e0f0      	LDI  R31,HIGH(4)
000540 93ed      	ST   X+,R30
000541 93fc      	ST   X,R31
                 ; 0000 0295     }
                 ; 0000 0296 if(PORT_CZYTNIK.byte == 0x05)
                 _0x17:
000542 91a0 0502 	LDS  R26,_PORT_CZYTNIK
000544 30a5      	CPI  R26,LOW(0x5)
000545 f441      	BRNE _0x18
                 ; 0000 0297     {
                 ; 0000 0298       komunikat_z_czytnika_kodow("87-0170",rzad);
                +
000546 e3e1     +LDI R30 , LOW ( 2 * _0x0 + ( 145 ) )
000547 e0f1     +LDI R31 , HIGH ( 2 * _0x0 + ( 145 ) )
                 	__POINTW1FN _0x0,145
000548 940e 1826 	CALL SUBOPT_0xE
                 ; 0000 0299       macierz_zaciskow[rzad]=5;
00054a e0e5      	LDI  R30,LOW(5)
00054b e0f0      	LDI  R31,HIGH(5)
00054c 93ed      	ST   X+,R30
00054d 93fc      	ST   X,R31
                 ; 0000 029A     }
                 ; 0000 029B if(PORT_CZYTNIK.byte == 0x06)
                 _0x18:
00054e 91a0 0502 	LDS  R26,_PORT_CZYTNIK
000550 30a6      	CPI  R26,LOW(0x6)
000551 f441      	BRNE _0x19
                 ; 0000 029C     {
                 ; 0000 029D       komunikat_z_czytnika_kodow("87-1043",rzad);
                +
000552 e3e9     +LDI R30 , LOW ( 2 * _0x0 + ( 153 ) )
000553 e0f1     +LDI R31 , HIGH ( 2 * _0x0 + ( 153 ) )
                 	__POINTW1FN _0x0,153
000554 940e 1826 	CALL SUBOPT_0xE
                 ; 0000 029E       macierz_zaciskow[rzad]=6;
000556 e0e6      	LDI  R30,LOW(6)
000557 e0f0      	LDI  R31,HIGH(6)
000558 93ed      	ST   X+,R30
000559 93fc      	ST   X,R31
                 ; 0000 029F     }
                 ; 0000 02A0 
                 ; 0000 02A1 if(PORT_CZYTNIK.byte == 0x07)
                 _0x19:
00055a 91a0 0502 	LDS  R26,_PORT_CZYTNIK
00055c 30a7      	CPI  R26,LOW(0x7)
00055d f441      	BRNE _0x1A
                 ; 0000 02A2     {
                 ; 0000 02A3       komunikat_z_czytnika_kodow("87-1675",rzad);
                +
00055e e4e1     +LDI R30 , LOW ( 2 * _0x0 + ( 161 ) )
00055f e0f1     +LDI R31 , HIGH ( 2 * _0x0 + ( 161 ) )
                 	__POINTW1FN _0x0,161
000560 940e 1826 	CALL SUBOPT_0xE
                 ; 0000 02A4       macierz_zaciskow[rzad]=7;
000562 e0e7      	LDI  R30,LOW(7)
000563 e0f0      	LDI  R31,HIGH(7)
000564 93ed      	ST   X+,R30
000565 93fc      	ST   X,R31
                 ; 0000 02A5     }
                 ; 0000 02A6 
                 ; 0000 02A7 if(PORT_CZYTNIK.byte == 0x08)
                 _0x1A:
000566 91a0 0502 	LDS  R26,_PORT_CZYTNIK
000568 30a8      	CPI  R26,LOW(0x8)
000569 f441      	BRNE _0x1B
                 ; 0000 02A8     {
                 ; 0000 02A9       komunikat_z_czytnika_kodow("87-2098",rzad);
                +
00056a e4e9     +LDI R30 , LOW ( 2 * _0x0 + ( 169 ) )
00056b e0f1     +LDI R31 , HIGH ( 2 * _0x0 + ( 169 ) )
                 	__POINTW1FN _0x0,169
00056c 940e 1826 	CALL SUBOPT_0xE
                 ; 0000 02AA       macierz_zaciskow[rzad]=8;
00056e e0e8      	LDI  R30,LOW(8)
00056f e0f0      	LDI  R31,HIGH(8)
000570 93ed      	ST   X+,R30
000571 93fc      	ST   X,R31
                 ; 0000 02AB     }
                 ; 0000 02AC if(PORT_CZYTNIK.byte == 0x09)
                 _0x1B:
000572 91a0 0502 	LDS  R26,_PORT_CZYTNIK
000574 30a9      	CPI  R26,LOW(0x9)
000575 f441      	BRNE _0x1C
                 ; 0000 02AD     {
                 ; 0000 02AE       komunikat_z_czytnika_kodow("86-0192",rzad);
                +
000576 e5e1     +LDI R30 , LOW ( 2 * _0x0 + ( 177 ) )
000577 e0f1     +LDI R31 , HIGH ( 2 * _0x0 + ( 177 ) )
                 	__POINTW1FN _0x0,177
000578 940e 1826 	CALL SUBOPT_0xE
                 ; 0000 02AF       macierz_zaciskow[rzad]=9;
00057a e0e9      	LDI  R30,LOW(9)
00057b e0f0      	LDI  R31,HIGH(9)
00057c 93ed      	ST   X+,R30
00057d 93fc      	ST   X,R31
                 ; 0000 02B0     }
                 ; 0000 02B1 if(PORT_CZYTNIK.byte == 0x0A)
                 _0x1C:
00057e 91a0 0502 	LDS  R26,_PORT_CZYTNIK
000580 30aa      	CPI  R26,LOW(0xA)
000581 f441      	BRNE _0x1D
                 ; 0000 02B2     {
                 ; 0000 02B3       komunikat_z_czytnika_kodow("86-1054",rzad);
                +
000582 e5e9     +LDI R30 , LOW ( 2 * _0x0 + ( 185 ) )
000583 e0f1     +LDI R31 , HIGH ( 2 * _0x0 + ( 185 ) )
                 	__POINTW1FN _0x0,185
000584 940e 1826 	CALL SUBOPT_0xE
                 ; 0000 02B4       macierz_zaciskow[rzad]=10;
000586 e0ea      	LDI  R30,LOW(10)
000587 e0f0      	LDI  R31,HIGH(10)
000588 93ed      	ST   X+,R30
000589 93fc      	ST   X,R31
                 ; 0000 02B5     }
                 ; 0000 02B6 if(PORT_CZYTNIK.byte == 0x0B)
                 _0x1D:
00058a 91a0 0502 	LDS  R26,_PORT_CZYTNIK
00058c 30ab      	CPI  R26,LOW(0xB)
00058d f441      	BRNE _0x1E
                 ; 0000 02B7     {
                 ; 0000 02B8       komunikat_z_czytnika_kodow("86-1676",rzad);
                +
00058e e6e1     +LDI R30 , LOW ( 2 * _0x0 + ( 193 ) )
00058f e0f1     +LDI R31 , HIGH ( 2 * _0x0 + ( 193 ) )
                 	__POINTW1FN _0x0,193
000590 940e 1826 	CALL SUBOPT_0xE
                 ; 0000 02B9       macierz_zaciskow[rzad]=11;
000592 e0eb      	LDI  R30,LOW(11)
000593 e0f0      	LDI  R31,HIGH(11)
000594 93ed      	ST   X+,R30
000595 93fc      	ST   X,R31
                 ; 0000 02BA     }
                 ; 0000 02BB if(PORT_CZYTNIK.byte == 0x0C)
                 _0x1E:
000596 91a0 0502 	LDS  R26,_PORT_CZYTNIK
000598 30ac      	CPI  R26,LOW(0xC)
000599 f441      	BRNE _0x1F
                 ; 0000 02BC     {
                 ; 0000 02BD       komunikat_z_czytnika_kodow("86-2132",rzad);
                +
00059a e6e9     +LDI R30 , LOW ( 2 * _0x0 + ( 201 ) )
00059b e0f1     +LDI R31 , HIGH ( 2 * _0x0 + ( 201 ) )
                 	__POINTW1FN _0x0,201
00059c 940e 1826 	CALL SUBOPT_0xE
                 ; 0000 02BE       macierz_zaciskow[rzad]=12;
00059e e0ec      	LDI  R30,LOW(12)
00059f e0f0      	LDI  R31,HIGH(12)
0005a0 93ed      	ST   X+,R30
0005a1 93fc      	ST   X,R31
                 ; 0000 02BF     }
                 ; 0000 02C0 if(PORT_CZYTNIK.byte == 0x0D)
                 _0x1F:
0005a2 91a0 0502 	LDS  R26,_PORT_CZYTNIK
0005a4 30ad      	CPI  R26,LOW(0xD)
0005a5 f441      	BRNE _0x20
                 ; 0000 02C1     {
                 ; 0000 02C2       komunikat_z_czytnika_kodow("87-0192",rzad);
                +
0005a6 e7e1     +LDI R30 , LOW ( 2 * _0x0 + ( 209 ) )
0005a7 e0f1     +LDI R31 , HIGH ( 2 * _0x0 + ( 209 ) )
                 	__POINTW1FN _0x0,209
0005a8 940e 1826 	CALL SUBOPT_0xE
                 ; 0000 02C3       macierz_zaciskow[rzad]=13;
0005aa e0ed      	LDI  R30,LOW(13)
0005ab e0f0      	LDI  R31,HIGH(13)
0005ac 93ed      	ST   X+,R30
0005ad 93fc      	ST   X,R31
                 ; 0000 02C4     }
                 ; 0000 02C5 if(PORT_CZYTNIK.byte == 0x0E)
                 _0x20:
0005ae 91a0 0502 	LDS  R26,_PORT_CZYTNIK
0005b0 30ae      	CPI  R26,LOW(0xE)
0005b1 f441      	BRNE _0x21
                 ; 0000 02C6     {
                 ; 0000 02C7       komunikat_z_czytnika_kodow("87-1054",rzad);
                +
0005b2 e7e9     +LDI R30 , LOW ( 2 * _0x0 + ( 217 ) )
0005b3 e0f1     +LDI R31 , HIGH ( 2 * _0x0 + ( 217 ) )
                 	__POINTW1FN _0x0,217
0005b4 940e 1826 	CALL SUBOPT_0xE
                 ; 0000 02C8       macierz_zaciskow[rzad]=14;
0005b6 e0ee      	LDI  R30,LOW(14)
0005b7 e0f0      	LDI  R31,HIGH(14)
0005b8 93ed      	ST   X+,R30
0005b9 93fc      	ST   X,R31
                 ; 0000 02C9     }
                 ; 0000 02CA 
                 ; 0000 02CB if(PORT_CZYTNIK.byte == 0x0F)
                 _0x21:
0005ba 91a0 0502 	LDS  R26,_PORT_CZYTNIK
0005bc 30af      	CPI  R26,LOW(0xF)
0005bd f441      	BRNE _0x22
                 ; 0000 02CC     {
                 ; 0000 02CD       komunikat_z_czytnika_kodow("87-1676",rzad);
                +
0005be e8e1     +LDI R30 , LOW ( 2 * _0x0 + ( 225 ) )
0005bf e0f1     +LDI R31 , HIGH ( 2 * _0x0 + ( 225 ) )
                 	__POINTW1FN _0x0,225
0005c0 940e 1826 	CALL SUBOPT_0xE
                 ; 0000 02CE       macierz_zaciskow[rzad]=15;
0005c2 e0ef      	LDI  R30,LOW(15)
0005c3 e0f0      	LDI  R31,HIGH(15)
0005c4 93ed      	ST   X+,R30
0005c5 93fc      	ST   X,R31
                 ; 0000 02CF     }
                 ; 0000 02D0 if(PORT_CZYTNIK.byte == 0x10)
                 _0x22:
0005c6 91a0 0502 	LDS  R26,_PORT_CZYTNIK
0005c8 31a0      	CPI  R26,LOW(0x10)
0005c9 f441      	BRNE _0x23
                 ; 0000 02D1     {
                 ; 0000 02D2       komunikat_z_czytnika_kodow("87-2132",rzad);
                +
0005ca e8e9     +LDI R30 , LOW ( 2 * _0x0 + ( 233 ) )
0005cb e0f1     +LDI R31 , HIGH ( 2 * _0x0 + ( 233 ) )
                 	__POINTW1FN _0x0,233
0005cc 940e 1826 	CALL SUBOPT_0xE
                 ; 0000 02D3       macierz_zaciskow[rzad]=16;
0005ce e1e0      	LDI  R30,LOW(16)
0005cf e0f0      	LDI  R31,HIGH(16)
0005d0 93ed      	ST   X+,R30
0005d1 93fc      	ST   X,R31
                 ; 0000 02D4     }
                 ; 0000 02D5 
                 ; 0000 02D6 if(PORT_CZYTNIK.byte == 0x11)
                 _0x23:
0005d2 91a0 0502 	LDS  R26,_PORT_CZYTNIK
0005d4 31a1      	CPI  R26,LOW(0x11)
0005d5 f441      	BRNE _0x24
                 ; 0000 02D7     {
                 ; 0000 02D8       komunikat_z_czytnika_kodow("86-0193",rzad);
                +
0005d6 e9e1     +LDI R30 , LOW ( 2 * _0x0 + ( 241 ) )
0005d7 e0f1     +LDI R31 , HIGH ( 2 * _0x0 + ( 241 ) )
                 	__POINTW1FN _0x0,241
0005d8 940e 1826 	CALL SUBOPT_0xE
                 ; 0000 02D9       macierz_zaciskow[rzad]=17;
0005da e1e1      	LDI  R30,LOW(17)
0005db e0f0      	LDI  R31,HIGH(17)
0005dc 93ed      	ST   X+,R30
0005dd 93fc      	ST   X,R31
                 ; 0000 02DA     }
                 ; 0000 02DB 
                 ; 0000 02DC if(PORT_CZYTNIK.byte == 0x12)
                 _0x24:
0005de 91a0 0502 	LDS  R26,_PORT_CZYTNIK
0005e0 31a2      	CPI  R26,LOW(0x12)
0005e1 f441      	BRNE _0x25
                 ; 0000 02DD     {
                 ; 0000 02DE       komunikat_z_czytnika_kodow("86-1216",rzad);
                +
0005e2 e9e9     +LDI R30 , LOW ( 2 * _0x0 + ( 249 ) )
0005e3 e0f1     +LDI R31 , HIGH ( 2 * _0x0 + ( 249 ) )
                 	__POINTW1FN _0x0,249
0005e4 940e 1826 	CALL SUBOPT_0xE
                 ; 0000 02DF       macierz_zaciskow[rzad]=18;
0005e6 e1e2      	LDI  R30,LOW(18)
0005e7 e0f0      	LDI  R31,HIGH(18)
0005e8 93ed      	ST   X+,R30
0005e9 93fc      	ST   X,R31
                 ; 0000 02E0     }
                 ; 0000 02E1 if(PORT_CZYTNIK.byte == 0x13)
                 _0x25:
0005ea 91a0 0502 	LDS  R26,_PORT_CZYTNIK
0005ec 31a3      	CPI  R26,LOW(0x13)
0005ed f441      	BRNE _0x26
                 ; 0000 02E2     {
                 ; 0000 02E3       komunikat_z_czytnika_kodow("86-1832",rzad);
                +
0005ee eae1     +LDI R30 , LOW ( 2 * _0x0 + ( 257 ) )
0005ef e0f1     +LDI R31 , HIGH ( 2 * _0x0 + ( 257 ) )
                 	__POINTW1FN _0x0,257
0005f0 940e 1826 	CALL SUBOPT_0xE
                 ; 0000 02E4       macierz_zaciskow[rzad]=19;
0005f2 e1e3      	LDI  R30,LOW(19)
0005f3 e0f0      	LDI  R31,HIGH(19)
0005f4 93ed      	ST   X+,R30
0005f5 93fc      	ST   X,R31
                 ; 0000 02E5     }
                 ; 0000 02E6 
                 ; 0000 02E7 if(PORT_CZYTNIK.byte == 0x14)
                 _0x26:
0005f6 91a0 0502 	LDS  R26,_PORT_CZYTNIK
0005f8 31a4      	CPI  R26,LOW(0x14)
0005f9 f441      	BRNE _0x27
                 ; 0000 02E8     {
                 ; 0000 02E9       komunikat_z_czytnika_kodow("86-2174",rzad);
                +
0005fa eae9     +LDI R30 , LOW ( 2 * _0x0 + ( 265 ) )
0005fb e0f1     +LDI R31 , HIGH ( 2 * _0x0 + ( 265 ) )
                 	__POINTW1FN _0x0,265
0005fc 940e 1826 	CALL SUBOPT_0xE
                 ; 0000 02EA       macierz_zaciskow[rzad]=20;
0005fe e1e4      	LDI  R30,LOW(20)
0005ff e0f0      	LDI  R31,HIGH(20)
000600 93ed      	ST   X+,R30
000601 93fc      	ST   X,R31
                 ; 0000 02EB     }
                 ; 0000 02EC if(PORT_CZYTNIK.byte == 0x15)
                 _0x27:
000602 91a0 0502 	LDS  R26,_PORT_CZYTNIK
000604 31a5      	CPI  R26,LOW(0x15)
000605 f441      	BRNE _0x28
                 ; 0000 02ED     {
                 ; 0000 02EE       komunikat_z_czytnika_kodow("87-0193",rzad);
                +
000606 ebe1     +LDI R30 , LOW ( 2 * _0x0 + ( 273 ) )
000607 e0f1     +LDI R31 , HIGH ( 2 * _0x0 + ( 273 ) )
                 	__POINTW1FN _0x0,273
000608 940e 1826 	CALL SUBOPT_0xE
                 ; 0000 02EF       macierz_zaciskow[rzad]=21;
00060a e1e5      	LDI  R30,LOW(21)
00060b e0f0      	LDI  R31,HIGH(21)
00060c 93ed      	ST   X+,R30
00060d 93fc      	ST   X,R31
                 ; 0000 02F0     }
                 ; 0000 02F1 
                 ; 0000 02F2 if(PORT_CZYTNIK.byte == 0x16)
                 _0x28:
00060e 91a0 0502 	LDS  R26,_PORT_CZYTNIK
000610 31a6      	CPI  R26,LOW(0x16)
000611 f441      	BRNE _0x29
                 ; 0000 02F3     {
                 ; 0000 02F4       komunikat_z_czytnika_kodow("87-1216",rzad);
                +
000612 ebe9     +LDI R30 , LOW ( 2 * _0x0 + ( 281 ) )
000613 e0f1     +LDI R31 , HIGH ( 2 * _0x0 + ( 281 ) )
                 	__POINTW1FN _0x0,281
000614 940e 1826 	CALL SUBOPT_0xE
                 ; 0000 02F5       macierz_zaciskow[rzad]=22;
000616 e1e6      	LDI  R30,LOW(22)
000617 e0f0      	LDI  R31,HIGH(22)
000618 93ed      	ST   X+,R30
000619 93fc      	ST   X,R31
                 ; 0000 02F6     }
                 ; 0000 02F7 if(PORT_CZYTNIK.byte == 0x17)
                 _0x29:
00061a 91a0 0502 	LDS  R26,_PORT_CZYTNIK
00061c 31a7      	CPI  R26,LOW(0x17)
00061d f441      	BRNE _0x2A
                 ; 0000 02F8     {
                 ; 0000 02F9       komunikat_z_czytnika_kodow("87-1832",rzad);
                +
00061e ece1     +LDI R30 , LOW ( 2 * _0x0 + ( 289 ) )
00061f e0f1     +LDI R31 , HIGH ( 2 * _0x0 + ( 289 ) )
                 	__POINTW1FN _0x0,289
000620 940e 1826 	CALL SUBOPT_0xE
                 ; 0000 02FA       macierz_zaciskow[rzad]=23;
000622 e1e7      	LDI  R30,LOW(23)
000623 e0f0      	LDI  R31,HIGH(23)
000624 93ed      	ST   X+,R30
000625 93fc      	ST   X,R31
                 ; 0000 02FB     }
                 ; 0000 02FC 
                 ; 0000 02FD if(PORT_CZYTNIK.byte == 0x18)
                 _0x2A:
000626 91a0 0502 	LDS  R26,_PORT_CZYTNIK
000628 31a8      	CPI  R26,LOW(0x18)
000629 f441      	BRNE _0x2B
                 ; 0000 02FE     {
                 ; 0000 02FF       komunikat_z_czytnika_kodow("87-2174",rzad);
                +
00062a ece9     +LDI R30 , LOW ( 2 * _0x0 + ( 297 ) )
00062b e0f1     +LDI R31 , HIGH ( 2 * _0x0 + ( 297 ) )
                 	__POINTW1FN _0x0,297
00062c 940e 1826 	CALL SUBOPT_0xE
                 ; 0000 0300       macierz_zaciskow[rzad]=24;
00062e e1e8      	LDI  R30,LOW(24)
00062f e0f0      	LDI  R31,HIGH(24)
000630 93ed      	ST   X+,R30
000631 93fc      	ST   X,R31
                 ; 0000 0301     }
                 ; 0000 0302 if(PORT_CZYTNIK.byte == 0x19)
                 _0x2B:
000632 91a0 0502 	LDS  R26,_PORT_CZYTNIK
000634 31a9      	CPI  R26,LOW(0x19)
000635 f441      	BRNE _0x2C
                 ; 0000 0303     {
                 ; 0000 0304       komunikat_z_czytnika_kodow("86-0194",rzad);
                +
000636 ede1     +LDI R30 , LOW ( 2 * _0x0 + ( 305 ) )
000637 e0f1     +LDI R31 , HIGH ( 2 * _0x0 + ( 305 ) )
                 	__POINTW1FN _0x0,305
000638 940e 1826 	CALL SUBOPT_0xE
                 ; 0000 0305       macierz_zaciskow[rzad]=25;
00063a e1e9      	LDI  R30,LOW(25)
00063b e0f0      	LDI  R31,HIGH(25)
00063c 93ed      	ST   X+,R30
00063d 93fc      	ST   X,R31
                 ; 0000 0306     }
                 ; 0000 0307 
                 ; 0000 0308 if(PORT_CZYTNIK.byte == 0x1A)
                 _0x2C:
00063e 91a0 0502 	LDS  R26,_PORT_CZYTNIK
000640 31aa      	CPI  R26,LOW(0x1A)
000641 f441      	BRNE _0x2D
                 ; 0000 0309     {
                 ; 0000 030A       komunikat_z_czytnika_kodow("86-1341",rzad);
                +
000642 ede9     +LDI R30 , LOW ( 2 * _0x0 + ( 313 ) )
000643 e0f1     +LDI R31 , HIGH ( 2 * _0x0 + ( 313 ) )
                 	__POINTW1FN _0x0,313
000644 940e 1826 	CALL SUBOPT_0xE
                 ; 0000 030B       macierz_zaciskow[rzad]=26;
000646 e1ea      	LDI  R30,LOW(26)
000647 e0f0      	LDI  R31,HIGH(26)
000648 93ed      	ST   X+,R30
000649 93fc      	ST   X,R31
                 ; 0000 030C     }
                 ; 0000 030D if(PORT_CZYTNIK.byte == 0x1B)
                 _0x2D:
00064a 91a0 0502 	LDS  R26,_PORT_CZYTNIK
00064c 31ab      	CPI  R26,LOW(0x1B)
00064d f441      	BRNE _0x2E
                 ; 0000 030E     {
                 ; 0000 030F       komunikat_z_czytnika_kodow("86-1833",rzad);
                +
00064e eee1     +LDI R30 , LOW ( 2 * _0x0 + ( 321 ) )
00064f e0f1     +LDI R31 , HIGH ( 2 * _0x0 + ( 321 ) )
                 	__POINTW1FN _0x0,321
000650 940e 1826 	CALL SUBOPT_0xE
                 ; 0000 0310       macierz_zaciskow[rzad]=27;
000652 e1eb      	LDI  R30,LOW(27)
000653 e0f0      	LDI  R31,HIGH(27)
000654 93ed      	ST   X+,R30
000655 93fc      	ST   X,R31
                 ; 0000 0311     }
                 ; 0000 0312 if(PORT_CZYTNIK.byte == 0x1C)
                 _0x2E:
000656 91a0 0502 	LDS  R26,_PORT_CZYTNIK
000658 31ac      	CPI  R26,LOW(0x1C)
000659 f441      	BRNE _0x2F
                 ; 0000 0313     {
                 ; 0000 0314       komunikat_z_czytnika_kodow("86-2180",rzad);
                +
00065a eee9     +LDI R30 , LOW ( 2 * _0x0 + ( 329 ) )
00065b e0f1     +LDI R31 , HIGH ( 2 * _0x0 + ( 329 ) )
                 	__POINTW1FN _0x0,329
00065c 940e 1826 	CALL SUBOPT_0xE
                 ; 0000 0315       macierz_zaciskow[rzad]=28;
00065e e1ec      	LDI  R30,LOW(28)
00065f e0f0      	LDI  R31,HIGH(28)
000660 93ed      	ST   X+,R30
000661 93fc      	ST   X,R31
                 ; 0000 0316     }
                 ; 0000 0317 if(PORT_CZYTNIK.byte == 0x1D)
                 _0x2F:
000662 91a0 0502 	LDS  R26,_PORT_CZYTNIK
000664 31ad      	CPI  R26,LOW(0x1D)
000665 f441      	BRNE _0x30
                 ; 0000 0318     {
                 ; 0000 0319       komunikat_z_czytnika_kodow("87-0194",rzad);
                +
000666 efe1     +LDI R30 , LOW ( 2 * _0x0 + ( 337 ) )
000667 e0f1     +LDI R31 , HIGH ( 2 * _0x0 + ( 337 ) )
                 	__POINTW1FN _0x0,337
000668 940e 1826 	CALL SUBOPT_0xE
                 ; 0000 031A       macierz_zaciskow[rzad]=29;
00066a e1ed      	LDI  R30,LOW(29)
00066b e0f0      	LDI  R31,HIGH(29)
00066c 93ed      	ST   X+,R30
00066d 93fc      	ST   X,R31
                 ; 0000 031B     }
                 ; 0000 031C 
                 ; 0000 031D if(PORT_CZYTNIK.byte == 0x1E)
                 _0x30:
00066e 91a0 0502 	LDS  R26,_PORT_CZYTNIK
000670 31ae      	CPI  R26,LOW(0x1E)
000671 f441      	BRNE _0x31
                 ; 0000 031E     {
                 ; 0000 031F       komunikat_z_czytnika_kodow("87-1341",rzad);
                +
000672 efe9     +LDI R30 , LOW ( 2 * _0x0 + ( 345 ) )
000673 e0f1     +LDI R31 , HIGH ( 2 * _0x0 + ( 345 ) )
                 	__POINTW1FN _0x0,345
000674 940e 1826 	CALL SUBOPT_0xE
                 ; 0000 0320       macierz_zaciskow[rzad]=30;
000676 e1ee      	LDI  R30,LOW(30)
000677 e0f0      	LDI  R31,HIGH(30)
000678 93ed      	ST   X+,R30
000679 93fc      	ST   X,R31
                 ; 0000 0321     }
                 ; 0000 0322 if(PORT_CZYTNIK.byte == 0x1F)
                 _0x31:
00067a 91a0 0502 	LDS  R26,_PORT_CZYTNIK
00067c 31af      	CPI  R26,LOW(0x1F)
00067d f441      	BRNE _0x32
                 ; 0000 0323     {
                 ; 0000 0324       komunikat_z_czytnika_kodow("87-1833",rzad);
                +
00067e e0e1     +LDI R30 , LOW ( 2 * _0x0 + ( 353 ) )
00067f e0f2     +LDI R31 , HIGH ( 2 * _0x0 + ( 353 ) )
                 	__POINTW1FN _0x0,353
000680 940e 1826 	CALL SUBOPT_0xE
                 ; 0000 0325       macierz_zaciskow[rzad]=31;
000682 e1ef      	LDI  R30,LOW(31)
000683 e0f0      	LDI  R31,HIGH(31)
000684 93ed      	ST   X+,R30
000685 93fc      	ST   X,R31
                 ; 0000 0326     }
                 ; 0000 0327 
                 ; 0000 0328 if(PORT_CZYTNIK.byte == 0x20)
                 _0x32:
000686 91a0 0502 	LDS  R26,_PORT_CZYTNIK
000688 32a0      	CPI  R26,LOW(0x20)
000689 f441      	BRNE _0x33
                 ; 0000 0329     {
                 ; 0000 032A       komunikat_z_czytnika_kodow("87-2180",rzad);
                +
00068a e0e9     +LDI R30 , LOW ( 2 * _0x0 + ( 361 ) )
00068b e0f2     +LDI R31 , HIGH ( 2 * _0x0 + ( 361 ) )
                 	__POINTW1FN _0x0,361
00068c 940e 1826 	CALL SUBOPT_0xE
                 ; 0000 032B       macierz_zaciskow[rzad]=32;
00068e e2e0      	LDI  R30,LOW(32)
00068f e0f0      	LDI  R31,HIGH(32)
000690 93ed      	ST   X+,R30
000691 93fc      	ST   X,R31
                 ; 0000 032C     }
                 ; 0000 032D if(PORT_CZYTNIK.byte == 0x21)
                 _0x33:
000692 91a0 0502 	LDS  R26,_PORT_CZYTNIK
000694 32a1      	CPI  R26,LOW(0x21)
000695 f441      	BRNE _0x34
                 ; 0000 032E     {
                 ; 0000 032F       komunikat_z_czytnika_kodow("86-0663",rzad);
                +
000696 e1e1     +LDI R30 , LOW ( 2 * _0x0 + ( 369 ) )
000697 e0f2     +LDI R31 , HIGH ( 2 * _0x0 + ( 369 ) )
                 	__POINTW1FN _0x0,369
000698 940e 1826 	CALL SUBOPT_0xE
                 ; 0000 0330       macierz_zaciskow[rzad]=33;
00069a e2e1      	LDI  R30,LOW(33)
00069b e0f0      	LDI  R31,HIGH(33)
00069c 93ed      	ST   X+,R30
00069d 93fc      	ST   X,R31
                 ; 0000 0331     }
                 ; 0000 0332 
                 ; 0000 0333 if(PORT_CZYTNIK.byte == 0x22)
                 _0x34:
00069e 91a0 0502 	LDS  R26,_PORT_CZYTNIK
0006a0 32a2      	CPI  R26,LOW(0x22)
0006a1 f441      	BRNE _0x35
                 ; 0000 0334     {
                 ; 0000 0335       komunikat_z_czytnika_kodow("86-1349",rzad);
                +
0006a2 e1e9     +LDI R30 , LOW ( 2 * _0x0 + ( 377 ) )
0006a3 e0f2     +LDI R31 , HIGH ( 2 * _0x0 + ( 377 ) )
                 	__POINTW1FN _0x0,377
0006a4 940e 1826 	CALL SUBOPT_0xE
                 ; 0000 0336       macierz_zaciskow[rzad]=34;
0006a6 e2e2      	LDI  R30,LOW(34)
0006a7 e0f0      	LDI  R31,HIGH(34)
0006a8 93ed      	ST   X+,R30
0006a9 93fc      	ST   X,R31
                 ; 0000 0337     }
                 ; 0000 0338 if(PORT_CZYTNIK.byte == 0x23)
                 _0x35:
0006aa 91a0 0502 	LDS  R26,_PORT_CZYTNIK
0006ac 32a3      	CPI  R26,LOW(0x23)
0006ad f441      	BRNE _0x36
                 ; 0000 0339     {
                 ; 0000 033A       komunikat_z_czytnika_kodow("86-1834",rzad);
                +
0006ae e2e1     +LDI R30 , LOW ( 2 * _0x0 + ( 385 ) )
0006af e0f2     +LDI R31 , HIGH ( 2 * _0x0 + ( 385 ) )
                 	__POINTW1FN _0x0,385
0006b0 940e 1826 	CALL SUBOPT_0xE
                 ; 0000 033B       macierz_zaciskow[rzad]=35;
0006b2 e2e3      	LDI  R30,LOW(35)
0006b3 e0f0      	LDI  R31,HIGH(35)
0006b4 93ed      	ST   X+,R30
0006b5 93fc      	ST   X,R31
                 ; 0000 033C     }
                 ; 0000 033D if(PORT_CZYTNIK.byte == 0x24)
                 _0x36:
0006b6 91a0 0502 	LDS  R26,_PORT_CZYTNIK
0006b8 32a4      	CPI  R26,LOW(0x24)
0006b9 f441      	BRNE _0x37
                 ; 0000 033E     {
                 ; 0000 033F       komunikat_z_czytnika_kodow("86-2204",rzad);
                +
0006ba e2e9     +LDI R30 , LOW ( 2 * _0x0 + ( 393 ) )
0006bb e0f2     +LDI R31 , HIGH ( 2 * _0x0 + ( 393 ) )
                 	__POINTW1FN _0x0,393
0006bc 940e 1826 	CALL SUBOPT_0xE
                 ; 0000 0340       macierz_zaciskow[rzad]=36;
0006be e2e4      	LDI  R30,LOW(36)
0006bf e0f0      	LDI  R31,HIGH(36)
0006c0 93ed      	ST   X+,R30
0006c1 93fc      	ST   X,R31
                 ; 0000 0341     }
                 ; 0000 0342 if(PORT_CZYTNIK.byte == 0x25)
                 _0x37:
0006c2 91a0 0502 	LDS  R26,_PORT_CZYTNIK
0006c4 32a5      	CPI  R26,LOW(0x25)
0006c5 f441      	BRNE _0x38
                 ; 0000 0343     {
                 ; 0000 0344       komunikat_z_czytnika_kodow("87-0663",rzad);
                +
0006c6 e3e1     +LDI R30 , LOW ( 2 * _0x0 + ( 401 ) )
0006c7 e0f2     +LDI R31 , HIGH ( 2 * _0x0 + ( 401 ) )
                 	__POINTW1FN _0x0,401
0006c8 940e 1826 	CALL SUBOPT_0xE
                 ; 0000 0345       macierz_zaciskow[rzad]=37;
0006ca e2e5      	LDI  R30,LOW(37)
0006cb e0f0      	LDI  R31,HIGH(37)
0006cc 93ed      	ST   X+,R30
0006cd 93fc      	ST   X,R31
                 ; 0000 0346     }
                 ; 0000 0347 if(PORT_CZYTNIK.byte == 0x26)
                 _0x38:
0006ce 91a0 0502 	LDS  R26,_PORT_CZYTNIK
0006d0 32a6      	CPI  R26,LOW(0x26)
0006d1 f441      	BRNE _0x39
                 ; 0000 0348     {
                 ; 0000 0349       komunikat_z_czytnika_kodow("87-1349",rzad);
                +
0006d2 e3e9     +LDI R30 , LOW ( 2 * _0x0 + ( 409 ) )
0006d3 e0f2     +LDI R31 , HIGH ( 2 * _0x0 + ( 409 ) )
                 	__POINTW1FN _0x0,409
0006d4 940e 1826 	CALL SUBOPT_0xE
                 ; 0000 034A       macierz_zaciskow[rzad]=38;
0006d6 e2e6      	LDI  R30,LOW(38)
0006d7 e0f0      	LDI  R31,HIGH(38)
0006d8 93ed      	ST   X+,R30
0006d9 93fc      	ST   X,R31
                 ; 0000 034B     }
                 ; 0000 034C if(PORT_CZYTNIK.byte == 0x27)
                 _0x39:
0006da 91a0 0502 	LDS  R26,_PORT_CZYTNIK
0006dc 32a7      	CPI  R26,LOW(0x27)
0006dd f441      	BRNE _0x3A
                 ; 0000 034D     {
                 ; 0000 034E       komunikat_z_czytnika_kodow("87-1834",rzad);
                +
0006de e4e1     +LDI R30 , LOW ( 2 * _0x0 + ( 417 ) )
0006df e0f2     +LDI R31 , HIGH ( 2 * _0x0 + ( 417 ) )
                 	__POINTW1FN _0x0,417
0006e0 940e 1826 	CALL SUBOPT_0xE
                 ; 0000 034F       macierz_zaciskow[rzad]=39;
0006e2 e2e7      	LDI  R30,LOW(39)
0006e3 e0f0      	LDI  R31,HIGH(39)
0006e4 93ed      	ST   X+,R30
0006e5 93fc      	ST   X,R31
                 ; 0000 0350     }
                 ; 0000 0351 if(PORT_CZYTNIK.byte == 0x28)
                 _0x3A:
0006e6 91a0 0502 	LDS  R26,_PORT_CZYTNIK
0006e8 32a8      	CPI  R26,LOW(0x28)
0006e9 f441      	BRNE _0x3B
                 ; 0000 0352     {
                 ; 0000 0353       komunikat_z_czytnika_kodow("87-2204",rzad);
                +
0006ea e4e9     +LDI R30 , LOW ( 2 * _0x0 + ( 425 ) )
0006eb e0f2     +LDI R31 , HIGH ( 2 * _0x0 + ( 425 ) )
                 	__POINTW1FN _0x0,425
0006ec 940e 1826 	CALL SUBOPT_0xE
                 ; 0000 0354       macierz_zaciskow[rzad]=40;
0006ee e2e8      	LDI  R30,LOW(40)
0006ef e0f0      	LDI  R31,HIGH(40)
0006f0 93ed      	ST   X+,R30
0006f1 93fc      	ST   X,R31
                 ; 0000 0355     }
                 ; 0000 0356 if(PORT_CZYTNIK.byte == 0x29)
                 _0x3B:
0006f2 91a0 0502 	LDS  R26,_PORT_CZYTNIK
0006f4 32a9      	CPI  R26,LOW(0x29)
0006f5 f441      	BRNE _0x3C
                 ; 0000 0357     {
                 ; 0000 0358       komunikat_z_czytnika_kodow("86-0768",rzad);
                +
0006f6 e5e1     +LDI R30 , LOW ( 2 * _0x0 + ( 433 ) )
0006f7 e0f2     +LDI R31 , HIGH ( 2 * _0x0 + ( 433 ) )
                 	__POINTW1FN _0x0,433
0006f8 940e 1826 	CALL SUBOPT_0xE
                 ; 0000 0359       macierz_zaciskow[rzad]=41;
0006fa e2e9      	LDI  R30,LOW(41)
0006fb e0f0      	LDI  R31,HIGH(41)
0006fc 93ed      	ST   X+,R30
0006fd 93fc      	ST   X,R31
                 ; 0000 035A     }
                 ; 0000 035B if(PORT_CZYTNIK.byte == 0x2A)
                 _0x3C:
0006fe 91a0 0502 	LDS  R26,_PORT_CZYTNIK
000700 32aa      	CPI  R26,LOW(0x2A)
000701 f441      	BRNE _0x3D
                 ; 0000 035C     {
                 ; 0000 035D       komunikat_z_czytnika_kodow("86-1357",rzad);
                +
000702 e5e9     +LDI R30 , LOW ( 2 * _0x0 + ( 441 ) )
000703 e0f2     +LDI R31 , HIGH ( 2 * _0x0 + ( 441 ) )
                 	__POINTW1FN _0x0,441
000704 940e 1826 	CALL SUBOPT_0xE
                 ; 0000 035E       macierz_zaciskow[rzad]=42;
000706 e2ea      	LDI  R30,LOW(42)
000707 e0f0      	LDI  R31,HIGH(42)
000708 93ed      	ST   X+,R30
000709 93fc      	ST   X,R31
                 ; 0000 035F     }
                 ; 0000 0360 if(PORT_CZYTNIK.byte == 0x2B)
                 _0x3D:
00070a 91a0 0502 	LDS  R26,_PORT_CZYTNIK
00070c 32ab      	CPI  R26,LOW(0x2B)
00070d f441      	BRNE _0x3E
                 ; 0000 0361     {
                 ; 0000 0362       komunikat_z_czytnika_kodow("86-1848",rzad);
                +
00070e e6e1     +LDI R30 , LOW ( 2 * _0x0 + ( 449 ) )
00070f e0f2     +LDI R31 , HIGH ( 2 * _0x0 + ( 449 ) )
                 	__POINTW1FN _0x0,449
000710 940e 1826 	CALL SUBOPT_0xE
                 ; 0000 0363       macierz_zaciskow[rzad]=43;
000712 e2eb      	LDI  R30,LOW(43)
000713 e0f0      	LDI  R31,HIGH(43)
000714 93ed      	ST   X+,R30
000715 93fc      	ST   X,R31
                 ; 0000 0364     }
                 ; 0000 0365 if(PORT_CZYTNIK.byte == 0x2C)
                 _0x3E:
000716 91a0 0502 	LDS  R26,_PORT_CZYTNIK
000718 32ac      	CPI  R26,LOW(0x2C)
000719 f441      	BRNE _0x3F
                 ; 0000 0366     {
                 ; 0000 0367       komunikat_z_czytnika_kodow("86-2212",rzad);
                +
00071a e6e9     +LDI R30 , LOW ( 2 * _0x0 + ( 457 ) )
00071b e0f2     +LDI R31 , HIGH ( 2 * _0x0 + ( 457 ) )
                 	__POINTW1FN _0x0,457
00071c 940e 1826 	CALL SUBOPT_0xE
                 ; 0000 0368       macierz_zaciskow[rzad]=44;
00071e e2ec      	LDI  R30,LOW(44)
00071f e0f0      	LDI  R31,HIGH(44)
000720 93ed      	ST   X+,R30
000721 93fc      	ST   X,R31
                 ; 0000 0369     }
                 ; 0000 036A if(PORT_CZYTNIK.byte == 0x2D)
                 _0x3F:
000722 91a0 0502 	LDS  R26,_PORT_CZYTNIK
000724 32ad      	CPI  R26,LOW(0x2D)
000725 f441      	BRNE _0x40
                 ; 0000 036B     {
                 ; 0000 036C       komunikat_z_czytnika_kodow("87-0768",rzad);
                +
000726 e7e1     +LDI R30 , LOW ( 2 * _0x0 + ( 465 ) )
000727 e0f2     +LDI R31 , HIGH ( 2 * _0x0 + ( 465 ) )
                 	__POINTW1FN _0x0,465
000728 940e 1826 	CALL SUBOPT_0xE
                 ; 0000 036D       macierz_zaciskow[rzad]=45;
00072a e2ed      	LDI  R30,LOW(45)
00072b e0f0      	LDI  R31,HIGH(45)
00072c 93ed      	ST   X+,R30
00072d 93fc      	ST   X,R31
                 ; 0000 036E     }
                 ; 0000 036F if(PORT_CZYTNIK.byte == 0x2E)
                 _0x40:
00072e 91a0 0502 	LDS  R26,_PORT_CZYTNIK
000730 32ae      	CPI  R26,LOW(0x2E)
000731 f441      	BRNE _0x41
                 ; 0000 0370     {
                 ; 0000 0371       komunikat_z_czytnika_kodow("87-1357",rzad);
                +
000732 e7e9     +LDI R30 , LOW ( 2 * _0x0 + ( 473 ) )
000733 e0f2     +LDI R31 , HIGH ( 2 * _0x0 + ( 473 ) )
                 	__POINTW1FN _0x0,473
000734 940e 1826 	CALL SUBOPT_0xE
                 ; 0000 0372       macierz_zaciskow[rzad]=46;
000736 e2ee      	LDI  R30,LOW(46)
000737 e0f0      	LDI  R31,HIGH(46)
000738 93ed      	ST   X+,R30
000739 93fc      	ST   X,R31
                 ; 0000 0373     }
                 ; 0000 0374 if(PORT_CZYTNIK.byte == 0x2F)
                 _0x41:
00073a 91a0 0502 	LDS  R26,_PORT_CZYTNIK
00073c 32af      	CPI  R26,LOW(0x2F)
00073d f441      	BRNE _0x42
                 ; 0000 0375     {
                 ; 0000 0376       komunikat_z_czytnika_kodow("87-1848",rzad);
                +
00073e e8e1     +LDI R30 , LOW ( 2 * _0x0 + ( 481 ) )
00073f e0f2     +LDI R31 , HIGH ( 2 * _0x0 + ( 481 ) )
                 	__POINTW1FN _0x0,481
000740 940e 1826 	CALL SUBOPT_0xE
                 ; 0000 0377       macierz_zaciskow[rzad]=47;
000742 e2ef      	LDI  R30,LOW(47)
000743 e0f0      	LDI  R31,HIGH(47)
000744 93ed      	ST   X+,R30
000745 93fc      	ST   X,R31
                 ; 0000 0378     }
                 ; 0000 0379 if(PORT_CZYTNIK.byte == 0x30)
                 _0x42:
000746 91a0 0502 	LDS  R26,_PORT_CZYTNIK
000748 33a0      	CPI  R26,LOW(0x30)
000749 f441      	BRNE _0x43
                 ; 0000 037A     {
                 ; 0000 037B       komunikat_z_czytnika_kodow("87-2212",rzad);
                +
00074a e8e9     +LDI R30 , LOW ( 2 * _0x0 + ( 489 ) )
00074b e0f2     +LDI R31 , HIGH ( 2 * _0x0 + ( 489 ) )
                 	__POINTW1FN _0x0,489
00074c 940e 1826 	CALL SUBOPT_0xE
                 ; 0000 037C       macierz_zaciskow[rzad]=48;
00074e e3e0      	LDI  R30,LOW(48)
00074f e0f0      	LDI  R31,HIGH(48)
000750 93ed      	ST   X+,R30
000751 93fc      	ST   X,R31
                 ; 0000 037D     }
                 ; 0000 037E if(PORT_CZYTNIK.byte == 0x31)
                 _0x43:
000752 91a0 0502 	LDS  R26,_PORT_CZYTNIK
000754 33a1      	CPI  R26,LOW(0x31)
000755 f441      	BRNE _0x44
                 ; 0000 037F     {
                 ; 0000 0380       komunikat_z_czytnika_kodow("86-0800",rzad);
                +
000756 e9e1     +LDI R30 , LOW ( 2 * _0x0 + ( 497 ) )
000757 e0f2     +LDI R31 , HIGH ( 2 * _0x0 + ( 497 ) )
                 	__POINTW1FN _0x0,497
000758 940e 1826 	CALL SUBOPT_0xE
                 ; 0000 0381       macierz_zaciskow[rzad]=49;
00075a e3e1      	LDI  R30,LOW(49)
00075b e0f0      	LDI  R31,HIGH(49)
00075c 93ed      	ST   X+,R30
00075d 93fc      	ST   X,R31
                 ; 0000 0382     }
                 ; 0000 0383 if(PORT_CZYTNIK.byte == 0x32)
                 _0x44:
00075e 91a0 0502 	LDS  R26,_PORT_CZYTNIK
000760 33a2      	CPI  R26,LOW(0x32)
000761 f441      	BRNE _0x45
                 ; 0000 0384     {
                 ; 0000 0385       komunikat_z_czytnika_kodow("86-1363",rzad);
                +
000762 e9e9     +LDI R30 , LOW ( 2 * _0x0 + ( 505 ) )
000763 e0f2     +LDI R31 , HIGH ( 2 * _0x0 + ( 505 ) )
                 	__POINTW1FN _0x0,505
000764 940e 1826 	CALL SUBOPT_0xE
                 ; 0000 0386       macierz_zaciskow[rzad]=50;
000766 e3e2      	LDI  R30,LOW(50)
000767 e0f0      	LDI  R31,HIGH(50)
000768 93ed      	ST   X+,R30
000769 93fc      	ST   X,R31
                 ; 0000 0387     }
                 ; 0000 0388 if(PORT_CZYTNIK.byte == 0x33)
                 _0x45:
00076a 91a0 0502 	LDS  R26,_PORT_CZYTNIK
00076c 33a3      	CPI  R26,LOW(0x33)
00076d f441      	BRNE _0x46
                 ; 0000 0389     {
                 ; 0000 038A       komunikat_z_czytnika_kodow("86-1904",rzad);
                +
00076e eae1     +LDI R30 , LOW ( 2 * _0x0 + ( 513 ) )
00076f e0f2     +LDI R31 , HIGH ( 2 * _0x0 + ( 513 ) )
                 	__POINTW1FN _0x0,513
000770 940e 1826 	CALL SUBOPT_0xE
                 ; 0000 038B       macierz_zaciskow[rzad]=51;
000772 e3e3      	LDI  R30,LOW(51)
000773 e0f0      	LDI  R31,HIGH(51)
000774 93ed      	ST   X+,R30
000775 93fc      	ST   X,R31
                 ; 0000 038C     }
                 ; 0000 038D if(PORT_CZYTNIK.byte == 0x34)
                 _0x46:
000776 91a0 0502 	LDS  R26,_PORT_CZYTNIK
000778 33a4      	CPI  R26,LOW(0x34)
000779 f441      	BRNE _0x47
                 ; 0000 038E     {
                 ; 0000 038F       komunikat_z_czytnika_kodow("86-2241",rzad);
                +
00077a eae9     +LDI R30 , LOW ( 2 * _0x0 + ( 521 ) )
00077b e0f2     +LDI R31 , HIGH ( 2 * _0x0 + ( 521 ) )
                 	__POINTW1FN _0x0,521
00077c 940e 1826 	CALL SUBOPT_0xE
                 ; 0000 0390       macierz_zaciskow[rzad]=52;
00077e e3e4      	LDI  R30,LOW(52)
00077f e0f0      	LDI  R31,HIGH(52)
000780 93ed      	ST   X+,R30
000781 93fc      	ST   X,R31
                 ; 0000 0391     }
                 ; 0000 0392 if(PORT_CZYTNIK.byte == 0x35)
                 _0x47:
000782 91a0 0502 	LDS  R26,_PORT_CZYTNIK
000784 33a5      	CPI  R26,LOW(0x35)
000785 f441      	BRNE _0x48
                 ; 0000 0393     {
                 ; 0000 0394       komunikat_z_czytnika_kodow("87-0800",rzad);
                +
000786 ebe1     +LDI R30 , LOW ( 2 * _0x0 + ( 529 ) )
000787 e0f2     +LDI R31 , HIGH ( 2 * _0x0 + ( 529 ) )
                 	__POINTW1FN _0x0,529
000788 940e 1826 	CALL SUBOPT_0xE
                 ; 0000 0395       macierz_zaciskow[rzad]=53;
00078a e3e5      	LDI  R30,LOW(53)
00078b e0f0      	LDI  R31,HIGH(53)
00078c 93ed      	ST   X+,R30
00078d 93fc      	ST   X,R31
                 ; 0000 0396     }
                 ; 0000 0397 
                 ; 0000 0398 if(PORT_CZYTNIK.byte == 0x36)
                 _0x48:
00078e 91a0 0502 	LDS  R26,_PORT_CZYTNIK
000790 33a6      	CPI  R26,LOW(0x36)
000791 f441      	BRNE _0x49
                 ; 0000 0399     {
                 ; 0000 039A       komunikat_z_czytnika_kodow("87-1363",rzad);
                +
000792 ebe9     +LDI R30 , LOW ( 2 * _0x0 + ( 537 ) )
000793 e0f2     +LDI R31 , HIGH ( 2 * _0x0 + ( 537 ) )
                 	__POINTW1FN _0x0,537
000794 940e 1826 	CALL SUBOPT_0xE
                 ; 0000 039B       macierz_zaciskow[rzad]=54;
000796 e3e6      	LDI  R30,LOW(54)
000797 e0f0      	LDI  R31,HIGH(54)
000798 93ed      	ST   X+,R30
000799 93fc      	ST   X,R31
                 ; 0000 039C     }
                 ; 0000 039D if(PORT_CZYTNIK.byte == 0x37)
                 _0x49:
00079a 91a0 0502 	LDS  R26,_PORT_CZYTNIK
00079c 33a7      	CPI  R26,LOW(0x37)
00079d f441      	BRNE _0x4A
                 ; 0000 039E     {
                 ; 0000 039F       komunikat_z_czytnika_kodow("87-1904",rzad);
                +
00079e ece1     +LDI R30 , LOW ( 2 * _0x0 + ( 545 ) )
00079f e0f2     +LDI R31 , HIGH ( 2 * _0x0 + ( 545 ) )
                 	__POINTW1FN _0x0,545
0007a0 940e 1826 	CALL SUBOPT_0xE
                 ; 0000 03A0       macierz_zaciskow[rzad]=55;
0007a2 e3e7      	LDI  R30,LOW(55)
0007a3 e0f0      	LDI  R31,HIGH(55)
0007a4 93ed      	ST   X+,R30
0007a5 93fc      	ST   X,R31
                 ; 0000 03A1     }
                 ; 0000 03A2 if(PORT_CZYTNIK.byte == 0x38)
                 _0x4A:
0007a6 91a0 0502 	LDS  R26,_PORT_CZYTNIK
0007a8 33a8      	CPI  R26,LOW(0x38)
0007a9 f441      	BRNE _0x4B
                 ; 0000 03A3     {
                 ; 0000 03A4       komunikat_z_czytnika_kodow("87-2241",rzad);
                +
0007aa ece9     +LDI R30 , LOW ( 2 * _0x0 + ( 553 ) )
0007ab e0f2     +LDI R31 , HIGH ( 2 * _0x0 + ( 553 ) )
                 	__POINTW1FN _0x0,553
0007ac 940e 1826 	CALL SUBOPT_0xE
                 ; 0000 03A5       macierz_zaciskow[rzad]=56;
0007ae e3e8      	LDI  R30,LOW(56)
0007af e0f0      	LDI  R31,HIGH(56)
0007b0 93ed      	ST   X+,R30
0007b1 93fc      	ST   X,R31
                 ; 0000 03A6     }
                 ; 0000 03A7 if(PORT_CZYTNIK.byte == 0x39)
                 _0x4B:
0007b2 91a0 0502 	LDS  R26,_PORT_CZYTNIK
0007b4 33a9      	CPI  R26,LOW(0x39)
0007b5 f441      	BRNE _0x4C
                 ; 0000 03A8     {
                 ; 0000 03A9       komunikat_z_czytnika_kodow("86-0811",rzad);
                +
0007b6 ede1     +LDI R30 , LOW ( 2 * _0x0 + ( 561 ) )
0007b7 e0f2     +LDI R31 , HIGH ( 2 * _0x0 + ( 561 ) )
                 	__POINTW1FN _0x0,561
0007b8 940e 1826 	CALL SUBOPT_0xE
                 ; 0000 03AA       macierz_zaciskow[rzad]=57;
0007ba e3e9      	LDI  R30,LOW(57)
0007bb e0f0      	LDI  R31,HIGH(57)
0007bc 93ed      	ST   X+,R30
0007bd 93fc      	ST   X,R31
                 ; 0000 03AB     }
                 ; 0000 03AC if(PORT_CZYTNIK.byte == 0x3A)
                 _0x4C:
0007be 91a0 0502 	LDS  R26,_PORT_CZYTNIK
0007c0 33aa      	CPI  R26,LOW(0x3A)
0007c1 f441      	BRNE _0x4D
                 ; 0000 03AD     {
                 ; 0000 03AE       komunikat_z_czytnika_kodow("86-1523",rzad);
                +
0007c2 ede9     +LDI R30 , LOW ( 2 * _0x0 + ( 569 ) )
0007c3 e0f2     +LDI R31 , HIGH ( 2 * _0x0 + ( 569 ) )
                 	__POINTW1FN _0x0,569
0007c4 940e 1826 	CALL SUBOPT_0xE
                 ; 0000 03AF       macierz_zaciskow[rzad]=58;
0007c6 e3ea      	LDI  R30,LOW(58)
0007c7 e0f0      	LDI  R31,HIGH(58)
0007c8 93ed      	ST   X+,R30
0007c9 93fc      	ST   X,R31
                 ; 0000 03B0     }
                 ; 0000 03B1 if(PORT_CZYTNIK.byte == 0x3B)
                 _0x4D:
0007ca 91a0 0502 	LDS  R26,_PORT_CZYTNIK
0007cc 33ab      	CPI  R26,LOW(0x3B)
0007cd f441      	BRNE _0x4E
                 ; 0000 03B2     {
                 ; 0000 03B3       komunikat_z_czytnika_kodow("86-1929",rzad);
                +
0007ce eee1     +LDI R30 , LOW ( 2 * _0x0 + ( 577 ) )
0007cf e0f2     +LDI R31 , HIGH ( 2 * _0x0 + ( 577 ) )
                 	__POINTW1FN _0x0,577
0007d0 940e 1826 	CALL SUBOPT_0xE
                 ; 0000 03B4       macierz_zaciskow[rzad]=59;
0007d2 e3eb      	LDI  R30,LOW(59)
0007d3 e0f0      	LDI  R31,HIGH(59)
0007d4 93ed      	ST   X+,R30
0007d5 93fc      	ST   X,R31
                 ; 0000 03B5     }
                 ; 0000 03B6 if(PORT_CZYTNIK.byte == 0x3C)
                 _0x4E:
0007d6 91a0 0502 	LDS  R26,_PORT_CZYTNIK
0007d8 33ac      	CPI  R26,LOW(0x3C)
0007d9 f441      	BRNE _0x4F
                 ; 0000 03B7     {
                 ; 0000 03B8       komunikat_z_czytnika_kodow("86-2261",rzad);
                +
0007da eee9     +LDI R30 , LOW ( 2 * _0x0 + ( 585 ) )
0007db e0f2     +LDI R31 , HIGH ( 2 * _0x0 + ( 585 ) )
                 	__POINTW1FN _0x0,585
0007dc 940e 1826 	CALL SUBOPT_0xE
                 ; 0000 03B9       macierz_zaciskow[rzad]=60;
0007de e3ec      	LDI  R30,LOW(60)
0007df e0f0      	LDI  R31,HIGH(60)
0007e0 93ed      	ST   X+,R30
0007e1 93fc      	ST   X,R31
                 ; 0000 03BA     }
                 ; 0000 03BB if(PORT_CZYTNIK.byte == 0x3D)
                 _0x4F:
0007e2 91a0 0502 	LDS  R26,_PORT_CZYTNIK
0007e4 33ad      	CPI  R26,LOW(0x3D)
0007e5 f441      	BRNE _0x50
                 ; 0000 03BC     {
                 ; 0000 03BD       komunikat_z_czytnika_kodow("87-0811",rzad);
                +
0007e6 efe1     +LDI R30 , LOW ( 2 * _0x0 + ( 593 ) )
0007e7 e0f2     +LDI R31 , HIGH ( 2 * _0x0 + ( 593 ) )
                 	__POINTW1FN _0x0,593
0007e8 940e 1826 	CALL SUBOPT_0xE
                 ; 0000 03BE       macierz_zaciskow[rzad]=61;
0007ea e3ed      	LDI  R30,LOW(61)
0007eb e0f0      	LDI  R31,HIGH(61)
0007ec 93ed      	ST   X+,R30
0007ed 93fc      	ST   X,R31
                 ; 0000 03BF     }
                 ; 0000 03C0 if(PORT_CZYTNIK.byte == 0x3E)
                 _0x50:
0007ee 91a0 0502 	LDS  R26,_PORT_CZYTNIK
0007f0 33ae      	CPI  R26,LOW(0x3E)
0007f1 f441      	BRNE _0x51
                 ; 0000 03C1     {
                 ; 0000 03C2       komunikat_z_czytnika_kodow("87-1523",rzad);
                +
0007f2 efe9     +LDI R30 , LOW ( 2 * _0x0 + ( 601 ) )
0007f3 e0f2     +LDI R31 , HIGH ( 2 * _0x0 + ( 601 ) )
                 	__POINTW1FN _0x0,601
0007f4 940e 1826 	CALL SUBOPT_0xE
                 ; 0000 03C3       macierz_zaciskow[rzad]=62;
0007f6 e3ee      	LDI  R30,LOW(62)
0007f7 e0f0      	LDI  R31,HIGH(62)
0007f8 93ed      	ST   X+,R30
0007f9 93fc      	ST   X,R31
                 ; 0000 03C4     }
                 ; 0000 03C5 if(PORT_CZYTNIK.byte == 0x3F)
                 _0x51:
0007fa 91a0 0502 	LDS  R26,_PORT_CZYTNIK
0007fc 33af      	CPI  R26,LOW(0x3F)
0007fd f441      	BRNE _0x52
                 ; 0000 03C6     {
                 ; 0000 03C7       komunikat_z_czytnika_kodow("87-1929",rzad);
                +
0007fe e0e1     +LDI R30 , LOW ( 2 * _0x0 + ( 609 ) )
0007ff e0f3     +LDI R31 , HIGH ( 2 * _0x0 + ( 609 ) )
                 	__POINTW1FN _0x0,609
000800 940e 1826 	CALL SUBOPT_0xE
                 ; 0000 03C8       macierz_zaciskow[rzad]=63;
000802 e3ef      	LDI  R30,LOW(63)
000803 e0f0      	LDI  R31,HIGH(63)
000804 93ed      	ST   X+,R30
000805 93fc      	ST   X,R31
                 ; 0000 03C9     }
                 ; 0000 03CA if(PORT_CZYTNIK.byte == 0x40)
                 _0x52:
000806 91a0 0502 	LDS  R26,_PORT_CZYTNIK
000808 34a0      	CPI  R26,LOW(0x40)
000809 f441      	BRNE _0x53
                 ; 0000 03CB     {
                 ; 0000 03CC       komunikat_z_czytnika_kodow("87-2261",rzad);
                +
00080a e0e9     +LDI R30 , LOW ( 2 * _0x0 + ( 617 ) )
00080b e0f3     +LDI R31 , HIGH ( 2 * _0x0 + ( 617 ) )
                 	__POINTW1FN _0x0,617
00080c 940e 1826 	CALL SUBOPT_0xE
                 ; 0000 03CD       macierz_zaciskow[rzad]=64;
00080e e4e0      	LDI  R30,LOW(64)
00080f e0f0      	LDI  R31,HIGH(64)
000810 93ed      	ST   X+,R30
000811 93fc      	ST   X,R31
                 ; 0000 03CE     }
                 ; 0000 03CF if(PORT_CZYTNIK.byte == 0x41)
                 _0x53:
000812 91a0 0502 	LDS  R26,_PORT_CZYTNIK
000814 34a1      	CPI  R26,LOW(0x41)
000815 f441      	BRNE _0x54
                 ; 0000 03D0     {
                 ; 0000 03D1       komunikat_z_czytnika_kodow("86-0814",rzad);
                +
000816 e1e1     +LDI R30 , LOW ( 2 * _0x0 + ( 625 ) )
000817 e0f3     +LDI R31 , HIGH ( 2 * _0x0 + ( 625 ) )
                 	__POINTW1FN _0x0,625
000818 940e 1826 	CALL SUBOPT_0xE
                 ; 0000 03D2       macierz_zaciskow[rzad]=65;
00081a e4e1      	LDI  R30,LOW(65)
00081b e0f0      	LDI  R31,HIGH(65)
00081c 93ed      	ST   X+,R30
00081d 93fc      	ST   X,R31
                 ; 0000 03D3     }
                 ; 0000 03D4 if(PORT_CZYTNIK.byte == 0x42)
                 _0x54:
00081e 91a0 0502 	LDS  R26,_PORT_CZYTNIK
000820 34a2      	CPI  R26,LOW(0x42)
000821 f441      	BRNE _0x55
                 ; 0000 03D5     {
                 ; 0000 03D6       komunikat_z_czytnika_kodow("86-1530",rzad);
                +
000822 e1e9     +LDI R30 , LOW ( 2 * _0x0 + ( 633 ) )
000823 e0f3     +LDI R31 , HIGH ( 2 * _0x0 + ( 633 ) )
                 	__POINTW1FN _0x0,633
000824 940e 1826 	CALL SUBOPT_0xE
                 ; 0000 03D7       macierz_zaciskow[rzad]=66;
000826 e4e2      	LDI  R30,LOW(66)
000827 e0f0      	LDI  R31,HIGH(66)
000828 93ed      	ST   X+,R30
000829 93fc      	ST   X,R31
                 ; 0000 03D8     }
                 ; 0000 03D9 if(PORT_CZYTNIK.byte == 0x43)
                 _0x55:
00082a 91a0 0502 	LDS  R26,_PORT_CZYTNIK
00082c 34a3      	CPI  R26,LOW(0x43)
00082d f441      	BRNE _0x56
                 ; 0000 03DA     {
                 ; 0000 03DB       komunikat_z_czytnika_kodow("86-1936",rzad);
                +
00082e e2e1     +LDI R30 , LOW ( 2 * _0x0 + ( 641 ) )
00082f e0f3     +LDI R31 , HIGH ( 2 * _0x0 + ( 641 ) )
                 	__POINTW1FN _0x0,641
000830 940e 1826 	CALL SUBOPT_0xE
                 ; 0000 03DC       macierz_zaciskow[rzad]=67;
000832 e4e3      	LDI  R30,LOW(67)
000833 e0f0      	LDI  R31,HIGH(67)
000834 93ed      	ST   X+,R30
000835 93fc      	ST   X,R31
                 ; 0000 03DD     }
                 ; 0000 03DE if(PORT_CZYTNIK.byte == 0x44)
                 _0x56:
000836 91a0 0502 	LDS  R26,_PORT_CZYTNIK
000838 34a4      	CPI  R26,LOW(0x44)
000839 f441      	BRNE _0x57
                 ; 0000 03DF     {
                 ; 0000 03E0       komunikat_z_czytnika_kodow("86-2285",rzad);
                +
00083a e2e9     +LDI R30 , LOW ( 2 * _0x0 + ( 649 ) )
00083b e0f3     +LDI R31 , HIGH ( 2 * _0x0 + ( 649 ) )
                 	__POINTW1FN _0x0,649
00083c 940e 1826 	CALL SUBOPT_0xE
                 ; 0000 03E1       macierz_zaciskow[rzad]=68;
00083e e4e4      	LDI  R30,LOW(68)
00083f e0f0      	LDI  R31,HIGH(68)
000840 93ed      	ST   X+,R30
000841 93fc      	ST   X,R31
                 ; 0000 03E2     }
                 ; 0000 03E3 if(PORT_CZYTNIK.byte == 0x45)
                 _0x57:
000842 91a0 0502 	LDS  R26,_PORT_CZYTNIK
000844 34a5      	CPI  R26,LOW(0x45)
000845 f441      	BRNE _0x58
                 ; 0000 03E4     {
                 ; 0000 03E5       komunikat_z_czytnika_kodow("87-0814",rzad);
                +
000846 e3e1     +LDI R30 , LOW ( 2 * _0x0 + ( 657 ) )
000847 e0f3     +LDI R31 , HIGH ( 2 * _0x0 + ( 657 ) )
                 	__POINTW1FN _0x0,657
000848 940e 1826 	CALL SUBOPT_0xE
                 ; 0000 03E6       macierz_zaciskow[rzad]=69;
00084a e4e5      	LDI  R30,LOW(69)
00084b e0f0      	LDI  R31,HIGH(69)
00084c 93ed      	ST   X+,R30
00084d 93fc      	ST   X,R31
                 ; 0000 03E7     }
                 ; 0000 03E8 if(PORT_CZYTNIK.byte == 0x46)
                 _0x58:
00084e 91a0 0502 	LDS  R26,_PORT_CZYTNIK
000850 34a6      	CPI  R26,LOW(0x46)
000851 f441      	BRNE _0x59
                 ; 0000 03E9     {
                 ; 0000 03EA       komunikat_z_czytnika_kodow("87-1530",rzad);
                +
000852 e3e9     +LDI R30 , LOW ( 2 * _0x0 + ( 665 ) )
000853 e0f3     +LDI R31 , HIGH ( 2 * _0x0 + ( 665 ) )
                 	__POINTW1FN _0x0,665
000854 940e 1826 	CALL SUBOPT_0xE
                 ; 0000 03EB       macierz_zaciskow[rzad]=70;
000856 e4e6      	LDI  R30,LOW(70)
000857 e0f0      	LDI  R31,HIGH(70)
000858 93ed      	ST   X+,R30
000859 93fc      	ST   X,R31
                 ; 0000 03EC     }
                 ; 0000 03ED if(PORT_CZYTNIK.byte == 0x47)
                 _0x59:
00085a 91a0 0502 	LDS  R26,_PORT_CZYTNIK
00085c 34a7      	CPI  R26,LOW(0x47)
00085d f441      	BRNE _0x5A
                 ; 0000 03EE     {
                 ; 0000 03EF       komunikat_z_czytnika_kodow("87-1936",rzad);
                +
00085e e4e1     +LDI R30 , LOW ( 2 * _0x0 + ( 673 ) )
00085f e0f3     +LDI R31 , HIGH ( 2 * _0x0 + ( 673 ) )
                 	__POINTW1FN _0x0,673
000860 940e 1826 	CALL SUBOPT_0xE
                 ; 0000 03F0       macierz_zaciskow[rzad]=71;
000862 e4e7      	LDI  R30,LOW(71)
000863 e0f0      	LDI  R31,HIGH(71)
000864 93ed      	ST   X+,R30
000865 93fc      	ST   X,R31
                 ; 0000 03F1     }
                 ; 0000 03F2 if(PORT_CZYTNIK.byte == 0x48)
                 _0x5A:
000866 91a0 0502 	LDS  R26,_PORT_CZYTNIK
000868 34a8      	CPI  R26,LOW(0x48)
000869 f441      	BRNE _0x5B
                 ; 0000 03F3     {
                 ; 0000 03F4       komunikat_z_czytnika_kodow("87-2285",rzad);
                +
00086a e4e9     +LDI R30 , LOW ( 2 * _0x0 + ( 681 ) )
00086b e0f3     +LDI R31 , HIGH ( 2 * _0x0 + ( 681 ) )
                 	__POINTW1FN _0x0,681
00086c 940e 1826 	CALL SUBOPT_0xE
                 ; 0000 03F5       macierz_zaciskow[rzad]=72;
00086e e4e8      	LDI  R30,LOW(72)
00086f e0f0      	LDI  R31,HIGH(72)
000870 93ed      	ST   X+,R30
000871 93fc      	ST   X,R31
                 ; 0000 03F6     }
                 ; 0000 03F7 if(PORT_CZYTNIK.byte == 0x49)
                 _0x5B:
000872 91a0 0502 	LDS  R26,_PORT_CZYTNIK
000874 34a9      	CPI  R26,LOW(0x49)
000875 f441      	BRNE _0x5C
                 ; 0000 03F8     {
                 ; 0000 03F9       komunikat_z_czytnika_kodow("86-0815",rzad);
                +
000876 e5e1     +LDI R30 , LOW ( 2 * _0x0 + ( 689 ) )
000877 e0f3     +LDI R31 , HIGH ( 2 * _0x0 + ( 689 ) )
                 	__POINTW1FN _0x0,689
000878 940e 1826 	CALL SUBOPT_0xE
                 ; 0000 03FA       macierz_zaciskow[rzad]=73;
00087a e4e9      	LDI  R30,LOW(73)
00087b e0f0      	LDI  R31,HIGH(73)
00087c 93ed      	ST   X+,R30
00087d 93fc      	ST   X,R31
                 ; 0000 03FB     }
                 ; 0000 03FC 
                 ; 0000 03FD if(PORT_CZYTNIK.byte == 0x4A)
                 _0x5C:
00087e 91a0 0502 	LDS  R26,_PORT_CZYTNIK
000880 34aa      	CPI  R26,LOW(0x4A)
000881 f441      	BRNE _0x5D
                 ; 0000 03FE     {
                 ; 0000 03FF       komunikat_z_czytnika_kodow("86-1551",rzad);
                +
000882 e5e9     +LDI R30 , LOW ( 2 * _0x0 + ( 697 ) )
000883 e0f3     +LDI R31 , HIGH ( 2 * _0x0 + ( 697 ) )
                 	__POINTW1FN _0x0,697
000884 940e 1826 	CALL SUBOPT_0xE
                 ; 0000 0400       macierz_zaciskow[rzad]=74;
000886 e4ea      	LDI  R30,LOW(74)
000887 e0f0      	LDI  R31,HIGH(74)
000888 93ed      	ST   X+,R30
000889 93fc      	ST   X,R31
                 ; 0000 0401     }
                 ; 0000 0402 if(PORT_CZYTNIK.byte == 0x4B)
                 _0x5D:
00088a 91a0 0502 	LDS  R26,_PORT_CZYTNIK
00088c 34ab      	CPI  R26,LOW(0x4B)
00088d f441      	BRNE _0x5E
                 ; 0000 0403     {
                 ; 0000 0404       komunikat_z_czytnika_kodow("86-1941",rzad);
                +
00088e e6e1     +LDI R30 , LOW ( 2 * _0x0 + ( 705 ) )
00088f e0f3     +LDI R31 , HIGH ( 2 * _0x0 + ( 705 ) )
                 	__POINTW1FN _0x0,705
000890 940e 1826 	CALL SUBOPT_0xE
                 ; 0000 0405       macierz_zaciskow[rzad]=75;
000892 e4eb      	LDI  R30,LOW(75)
000893 e0f0      	LDI  R31,HIGH(75)
000894 93ed      	ST   X+,R30
000895 93fc      	ST   X,R31
                 ; 0000 0406     }
                 ; 0000 0407 if(PORT_CZYTNIK.byte == 0x4C)
                 _0x5E:
000896 91a0 0502 	LDS  R26,_PORT_CZYTNIK
000898 34ac      	CPI  R26,LOW(0x4C)
000899 f441      	BRNE _0x5F
                 ; 0000 0408     {
                 ; 0000 0409       komunikat_z_czytnika_kodow("86-2286",rzad);
                +
00089a e6e9     +LDI R30 , LOW ( 2 * _0x0 + ( 713 ) )
00089b e0f3     +LDI R31 , HIGH ( 2 * _0x0 + ( 713 ) )
                 	__POINTW1FN _0x0,713
00089c 940e 1826 	CALL SUBOPT_0xE
                 ; 0000 040A       macierz_zaciskow[rzad]=76;
00089e e4ec      	LDI  R30,LOW(76)
00089f e0f0      	LDI  R31,HIGH(76)
0008a0 93ed      	ST   X+,R30
0008a1 93fc      	ST   X,R31
                 ; 0000 040B     }
                 ; 0000 040C if(PORT_CZYTNIK.byte == 0x4D)
                 _0x5F:
0008a2 91a0 0502 	LDS  R26,_PORT_CZYTNIK
0008a4 34ad      	CPI  R26,LOW(0x4D)
0008a5 f441      	BRNE _0x60
                 ; 0000 040D     {
                 ; 0000 040E       komunikat_z_czytnika_kodow("87-0815",rzad);
                +
0008a6 e7e1     +LDI R30 , LOW ( 2 * _0x0 + ( 721 ) )
0008a7 e0f3     +LDI R31 , HIGH ( 2 * _0x0 + ( 721 ) )
                 	__POINTW1FN _0x0,721
0008a8 940e 1826 	CALL SUBOPT_0xE
                 ; 0000 040F       macierz_zaciskow[rzad]=77;
0008aa e4ed      	LDI  R30,LOW(77)
0008ab e0f0      	LDI  R31,HIGH(77)
0008ac 93ed      	ST   X+,R30
0008ad 93fc      	ST   X,R31
                 ; 0000 0410     }
                 ; 0000 0411 if(PORT_CZYTNIK.byte == 0x4E)
                 _0x60:
0008ae 91a0 0502 	LDS  R26,_PORT_CZYTNIK
0008b0 34ae      	CPI  R26,LOW(0x4E)
0008b1 f441      	BRNE _0x61
                 ; 0000 0412     {
                 ; 0000 0413       komunikat_z_czytnika_kodow("87-1551",rzad);
                +
0008b2 e7e9     +LDI R30 , LOW ( 2 * _0x0 + ( 729 ) )
0008b3 e0f3     +LDI R31 , HIGH ( 2 * _0x0 + ( 729 ) )
                 	__POINTW1FN _0x0,729
0008b4 940e 1826 	CALL SUBOPT_0xE
                 ; 0000 0414       macierz_zaciskow[rzad]=78;
0008b6 e4ee      	LDI  R30,LOW(78)
0008b7 e0f0      	LDI  R31,HIGH(78)
0008b8 93ed      	ST   X+,R30
0008b9 93fc      	ST   X,R31
                 ; 0000 0415     }
                 ; 0000 0416 if(PORT_CZYTNIK.byte == 0x4F)
                 _0x61:
0008ba 91a0 0502 	LDS  R26,_PORT_CZYTNIK
0008bc 34af      	CPI  R26,LOW(0x4F)
0008bd f441      	BRNE _0x62
                 ; 0000 0417     {
                 ; 0000 0418       komunikat_z_czytnika_kodow("87-1941",rzad);
                +
0008be e8e1     +LDI R30 , LOW ( 2 * _0x0 + ( 737 ) )
0008bf e0f3     +LDI R31 , HIGH ( 2 * _0x0 + ( 737 ) )
                 	__POINTW1FN _0x0,737
0008c0 940e 1826 	CALL SUBOPT_0xE
                 ; 0000 0419       macierz_zaciskow[rzad]=79;
0008c2 e4ef      	LDI  R30,LOW(79)
0008c3 e0f0      	LDI  R31,HIGH(79)
0008c4 93ed      	ST   X+,R30
0008c5 93fc      	ST   X,R31
                 ; 0000 041A     }
                 ; 0000 041B if(PORT_CZYTNIK.byte == 0x50)
                 _0x62:
0008c6 91a0 0502 	LDS  R26,_PORT_CZYTNIK
0008c8 35a0      	CPI  R26,LOW(0x50)
0008c9 f441      	BRNE _0x63
                 ; 0000 041C     {
                 ; 0000 041D       komunikat_z_czytnika_kodow("87-2286",rzad);
                +
0008ca e8e9     +LDI R30 , LOW ( 2 * _0x0 + ( 745 ) )
0008cb e0f3     +LDI R31 , HIGH ( 2 * _0x0 + ( 745 ) )
                 	__POINTW1FN _0x0,745
0008cc 940e 1826 	CALL SUBOPT_0xE
                 ; 0000 041E       macierz_zaciskow[rzad]=80;
0008ce e5e0      	LDI  R30,LOW(80)
0008cf e0f0      	LDI  R31,HIGH(80)
0008d0 93ed      	ST   X+,R30
0008d1 93fc      	ST   X,R31
                 ; 0000 041F     }
                 ; 0000 0420 if(PORT_CZYTNIK.byte == 0x51)
                 _0x63:
0008d2 91a0 0502 	LDS  R26,_PORT_CZYTNIK
0008d4 35a1      	CPI  R26,LOW(0x51)
0008d5 f441      	BRNE _0x64
                 ; 0000 0421     {
                 ; 0000 0422       komunikat_z_czytnika_kodow("86-0816",rzad);
                +
0008d6 e9e1     +LDI R30 , LOW ( 2 * _0x0 + ( 753 ) )
0008d7 e0f3     +LDI R31 , HIGH ( 2 * _0x0 + ( 753 ) )
                 	__POINTW1FN _0x0,753
0008d8 940e 1826 	CALL SUBOPT_0xE
                 ; 0000 0423       macierz_zaciskow[rzad]=81;
0008da e5e1      	LDI  R30,LOW(81)
0008db e0f0      	LDI  R31,HIGH(81)
0008dc 93ed      	ST   X+,R30
0008dd 93fc      	ST   X,R31
                 ; 0000 0424     }
                 ; 0000 0425 if(PORT_CZYTNIK.byte == 0x52)
                 _0x64:
0008de 91a0 0502 	LDS  R26,_PORT_CZYTNIK
0008e0 35a2      	CPI  R26,LOW(0x52)
0008e1 f441      	BRNE _0x65
                 ; 0000 0426     {
                 ; 0000 0427       komunikat_z_czytnika_kodow("86-1552",rzad);
                +
0008e2 e9e9     +LDI R30 , LOW ( 2 * _0x0 + ( 761 ) )
0008e3 e0f3     +LDI R31 , HIGH ( 2 * _0x0 + ( 761 ) )
                 	__POINTW1FN _0x0,761
0008e4 940e 1826 	CALL SUBOPT_0xE
                 ; 0000 0428       macierz_zaciskow[rzad]=82;
0008e6 e5e2      	LDI  R30,LOW(82)
0008e7 e0f0      	LDI  R31,HIGH(82)
0008e8 93ed      	ST   X+,R30
0008e9 93fc      	ST   X,R31
                 ; 0000 0429     }
                 ; 0000 042A if(PORT_CZYTNIK.byte == 0x53)
                 _0x65:
0008ea 91a0 0502 	LDS  R26,_PORT_CZYTNIK
0008ec 35a3      	CPI  R26,LOW(0x53)
0008ed f441      	BRNE _0x66
                 ; 0000 042B     {
                 ; 0000 042C       komunikat_z_czytnika_kodow("86-2007",rzad);
                +
0008ee eae1     +LDI R30 , LOW ( 2 * _0x0 + ( 769 ) )
0008ef e0f3     +LDI R31 , HIGH ( 2 * _0x0 + ( 769 ) )
                 	__POINTW1FN _0x0,769
0008f0 940e 1826 	CALL SUBOPT_0xE
                 ; 0000 042D       macierz_zaciskow[rzad]=83;
0008f2 e5e3      	LDI  R30,LOW(83)
0008f3 e0f0      	LDI  R31,HIGH(83)
0008f4 93ed      	ST   X+,R30
0008f5 93fc      	ST   X,R31
                 ; 0000 042E     }
                 ; 0000 042F if(PORT_CZYTNIK.byte == 0x54)
                 _0x66:
0008f6 91a0 0502 	LDS  R26,_PORT_CZYTNIK
0008f8 35a4      	CPI  R26,LOW(0x54)
0008f9 f441      	BRNE _0x67
                 ; 0000 0430     {
                 ; 0000 0431       komunikat_z_czytnika_kodow("86-2292",rzad);
                +
0008fa eae9     +LDI R30 , LOW ( 2 * _0x0 + ( 777 ) )
0008fb e0f3     +LDI R31 , HIGH ( 2 * _0x0 + ( 777 ) )
                 	__POINTW1FN _0x0,777
0008fc 940e 1826 	CALL SUBOPT_0xE
                 ; 0000 0432       macierz_zaciskow[rzad]=84;
0008fe e5e4      	LDI  R30,LOW(84)
0008ff e0f0      	LDI  R31,HIGH(84)
000900 93ed      	ST   X+,R30
000901 93fc      	ST   X,R31
                 ; 0000 0433     }
                 ; 0000 0434 if(PORT_CZYTNIK.byte == 0x55)
                 _0x67:
000902 91a0 0502 	LDS  R26,_PORT_CZYTNIK
000904 35a5      	CPI  R26,LOW(0x55)
000905 f441      	BRNE _0x68
                 ; 0000 0435     {
                 ; 0000 0436       komunikat_z_czytnika_kodow("87-0816",rzad);
                +
000906 ebe1     +LDI R30 , LOW ( 2 * _0x0 + ( 785 ) )
000907 e0f3     +LDI R31 , HIGH ( 2 * _0x0 + ( 785 ) )
                 	__POINTW1FN _0x0,785
000908 940e 1826 	CALL SUBOPT_0xE
                 ; 0000 0437       macierz_zaciskow[rzad]=85;
00090a e5e5      	LDI  R30,LOW(85)
00090b e0f0      	LDI  R31,HIGH(85)
00090c 93ed      	ST   X+,R30
00090d 93fc      	ST   X,R31
                 ; 0000 0438      }
                 ; 0000 0439 if(PORT_CZYTNIK.byte == 0x56)
                 _0x68:
00090e 91a0 0502 	LDS  R26,_PORT_CZYTNIK
000910 35a6      	CPI  R26,LOW(0x56)
000911 f441      	BRNE _0x69
                 ; 0000 043A     {
                 ; 0000 043B       komunikat_z_czytnika_kodow("87-1552",rzad);
                +
000912 ebe9     +LDI R30 , LOW ( 2 * _0x0 + ( 793 ) )
000913 e0f3     +LDI R31 , HIGH ( 2 * _0x0 + ( 793 ) )
                 	__POINTW1FN _0x0,793
000914 940e 1826 	CALL SUBOPT_0xE
                 ; 0000 043C       macierz_zaciskow[rzad]=86;
000916 e5e6      	LDI  R30,LOW(86)
000917 e0f0      	LDI  R31,HIGH(86)
000918 93ed      	ST   X+,R30
000919 93fc      	ST   X,R31
                 ; 0000 043D     }
                 ; 0000 043E if(PORT_CZYTNIK.byte == 0x57)
                 _0x69:
00091a 91a0 0502 	LDS  R26,_PORT_CZYTNIK
00091c 35a7      	CPI  R26,LOW(0x57)
00091d f441      	BRNE _0x6A
                 ; 0000 043F     {
                 ; 0000 0440       komunikat_z_czytnika_kodow("87-2007",rzad);
                +
00091e ece1     +LDI R30 , LOW ( 2 * _0x0 + ( 801 ) )
00091f e0f3     +LDI R31 , HIGH ( 2 * _0x0 + ( 801 ) )
                 	__POINTW1FN _0x0,801
000920 940e 1826 	CALL SUBOPT_0xE
                 ; 0000 0441       macierz_zaciskow[rzad]=87;
000922 e5e7      	LDI  R30,LOW(87)
000923 e0f0      	LDI  R31,HIGH(87)
000924 93ed      	ST   X+,R30
000925 93fc      	ST   X,R31
                 ; 0000 0442     }
                 ; 0000 0443 if(PORT_CZYTNIK.byte == 0x58)
                 _0x6A:
000926 91a0 0502 	LDS  R26,_PORT_CZYTNIK
000928 35a8      	CPI  R26,LOW(0x58)
000929 f441      	BRNE _0x6B
                 ; 0000 0444     {
                 ; 0000 0445       komunikat_z_czytnika_kodow("87-2292",rzad);
                +
00092a ece9     +LDI R30 , LOW ( 2 * _0x0 + ( 809 ) )
00092b e0f3     +LDI R31 , HIGH ( 2 * _0x0 + ( 809 ) )
                 	__POINTW1FN _0x0,809
00092c 940e 1826 	CALL SUBOPT_0xE
                 ; 0000 0446       macierz_zaciskow[rzad]=88;
00092e e5e8      	LDI  R30,LOW(88)
00092f e0f0      	LDI  R31,HIGH(88)
000930 93ed      	ST   X+,R30
000931 93fc      	ST   X,R31
                 ; 0000 0447     }
                 ; 0000 0448 if(PORT_CZYTNIK.byte == 0x59)
                 _0x6B:
000932 91a0 0502 	LDS  R26,_PORT_CZYTNIK
000934 35a9      	CPI  R26,LOW(0x59)
000935 f441      	BRNE _0x6C
                 ; 0000 0449     {
                 ; 0000 044A       komunikat_z_czytnika_kodow("86-0817",rzad);
                +
000936 ede1     +LDI R30 , LOW ( 2 * _0x0 + ( 817 ) )
000937 e0f3     +LDI R31 , HIGH ( 2 * _0x0 + ( 817 ) )
                 	__POINTW1FN _0x0,817
000938 940e 1826 	CALL SUBOPT_0xE
                 ; 0000 044B       macierz_zaciskow[rzad]=89;
00093a e5e9      	LDI  R30,LOW(89)
00093b e0f0      	LDI  R31,HIGH(89)
00093c 93ed      	ST   X+,R30
00093d 93fc      	ST   X,R31
                 ; 0000 044C     }
                 ; 0000 044D if(PORT_CZYTNIK.byte == 0x5A)
                 _0x6C:
00093e 91a0 0502 	LDS  R26,_PORT_CZYTNIK
000940 35aa      	CPI  R26,LOW(0x5A)
000941 f441      	BRNE _0x6D
                 ; 0000 044E     {
                 ; 0000 044F       komunikat_z_czytnika_kodow("86-1602",rzad);
                +
000942 ede9     +LDI R30 , LOW ( 2 * _0x0 + ( 825 ) )
000943 e0f3     +LDI R31 , HIGH ( 2 * _0x0 + ( 825 ) )
                 	__POINTW1FN _0x0,825
000944 940e 1826 	CALL SUBOPT_0xE
                 ; 0000 0450       macierz_zaciskow[rzad]=90;
000946 e5ea      	LDI  R30,LOW(90)
000947 e0f0      	LDI  R31,HIGH(90)
000948 93ed      	ST   X+,R30
000949 93fc      	ST   X,R31
                 ; 0000 0451     }
                 ; 0000 0452 if(PORT_CZYTNIK.byte == 0x5B)
                 _0x6D:
00094a 91a0 0502 	LDS  R26,_PORT_CZYTNIK
00094c 35ab      	CPI  R26,LOW(0x5B)
00094d f441      	BRNE _0x6E
                 ; 0000 0453     {
                 ; 0000 0454       komunikat_z_czytnika_kodow("86-2017",rzad);
                +
00094e eee1     +LDI R30 , LOW ( 2 * _0x0 + ( 833 ) )
00094f e0f3     +LDI R31 , HIGH ( 2 * _0x0 + ( 833 ) )
                 	__POINTW1FN _0x0,833
000950 940e 1826 	CALL SUBOPT_0xE
                 ; 0000 0455       macierz_zaciskow[rzad]=91;
000952 e5eb      	LDI  R30,LOW(91)
000953 e0f0      	LDI  R31,HIGH(91)
000954 93ed      	ST   X+,R30
000955 93fc      	ST   X,R31
                 ; 0000 0456     }
                 ; 0000 0457 if(PORT_CZYTNIK.byte == 0x5C)
                 _0x6E:
000956 91a0 0502 	LDS  R26,_PORT_CZYTNIK
000958 35ac      	CPI  R26,LOW(0x5C)
000959 f441      	BRNE _0x6F
                 ; 0000 0458     {
                 ; 0000 0459       komunikat_z_czytnika_kodow("86-2384",rzad);
                +
00095a eee9     +LDI R30 , LOW ( 2 * _0x0 + ( 841 ) )
00095b e0f3     +LDI R31 , HIGH ( 2 * _0x0 + ( 841 ) )
                 	__POINTW1FN _0x0,841
00095c 940e 1826 	CALL SUBOPT_0xE
                 ; 0000 045A       macierz_zaciskow[rzad]=92;
00095e e5ec      	LDI  R30,LOW(92)
00095f e0f0      	LDI  R31,HIGH(92)
000960 93ed      	ST   X+,R30
000961 93fc      	ST   X,R31
                 ; 0000 045B     }
                 ; 0000 045C if(PORT_CZYTNIK.byte == 0x5D)
                 _0x6F:
000962 91a0 0502 	LDS  R26,_PORT_CZYTNIK
000964 35ad      	CPI  R26,LOW(0x5D)
000965 f441      	BRNE _0x70
                 ; 0000 045D     {
                 ; 0000 045E       komunikat_z_czytnika_kodow("87-0817",rzad);
                +
000966 efe1     +LDI R30 , LOW ( 2 * _0x0 + ( 849 ) )
000967 e0f3     +LDI R31 , HIGH ( 2 * _0x0 + ( 849 ) )
                 	__POINTW1FN _0x0,849
000968 940e 1826 	CALL SUBOPT_0xE
                 ; 0000 045F       macierz_zaciskow[rzad]=93;
00096a e5ed      	LDI  R30,LOW(93)
00096b e0f0      	LDI  R31,HIGH(93)
00096c 93ed      	ST   X+,R30
00096d 93fc      	ST   X,R31
                 ; 0000 0460     }
                 ; 0000 0461 if(PORT_CZYTNIK.byte == 0x5E)
                 _0x70:
00096e 91a0 0502 	LDS  R26,_PORT_CZYTNIK
000970 35ae      	CPI  R26,LOW(0x5E)
000971 f441      	BRNE _0x71
                 ; 0000 0462     {
                 ; 0000 0463       komunikat_z_czytnika_kodow("87-1602",rzad);
                +
000972 efe9     +LDI R30 , LOW ( 2 * _0x0 + ( 857 ) )
000973 e0f3     +LDI R31 , HIGH ( 2 * _0x0 + ( 857 ) )
                 	__POINTW1FN _0x0,857
000974 940e 1826 	CALL SUBOPT_0xE
                 ; 0000 0464       macierz_zaciskow[rzad]=94;
000976 e5ee      	LDI  R30,LOW(94)
000977 e0f0      	LDI  R31,HIGH(94)
000978 93ed      	ST   X+,R30
000979 93fc      	ST   X,R31
                 ; 0000 0465     }
                 ; 0000 0466 if(PORT_CZYTNIK.byte == 0x5F)
                 _0x71:
00097a 91a0 0502 	LDS  R26,_PORT_CZYTNIK
00097c 35af      	CPI  R26,LOW(0x5F)
00097d f441      	BRNE _0x72
                 ; 0000 0467     {
                 ; 0000 0468       komunikat_z_czytnika_kodow("87-2017",rzad);
                +
00097e e0e1     +LDI R30 , LOW ( 2 * _0x0 + ( 865 ) )
00097f e0f4     +LDI R31 , HIGH ( 2 * _0x0 + ( 865 ) )
                 	__POINTW1FN _0x0,865
000980 940e 1826 	CALL SUBOPT_0xE
                 ; 0000 0469       macierz_zaciskow[rzad]=95;
000982 e5ef      	LDI  R30,LOW(95)
000983 e0f0      	LDI  R31,HIGH(95)
000984 93ed      	ST   X+,R30
000985 93fc      	ST   X,R31
                 ; 0000 046A     }
                 ; 0000 046B if(PORT_CZYTNIK.byte == 0x60)
                 _0x72:
000986 91a0 0502 	LDS  R26,_PORT_CZYTNIK
000988 36a0      	CPI  R26,LOW(0x60)
000989 f441      	BRNE _0x73
                 ; 0000 046C     {
                 ; 0000 046D       komunikat_z_czytnika_kodow("87-2384",rzad);
                +
00098a e0e9     +LDI R30 , LOW ( 2 * _0x0 + ( 873 ) )
00098b e0f4     +LDI R31 , HIGH ( 2 * _0x0 + ( 873 ) )
                 	__POINTW1FN _0x0,873
00098c 940e 1826 	CALL SUBOPT_0xE
                 ; 0000 046E       macierz_zaciskow[rzad]=96;
00098e e6e0      	LDI  R30,LOW(96)
00098f e0f0      	LDI  R31,HIGH(96)
000990 93ed      	ST   X+,R30
000991 93fc      	ST   X,R31
                 ; 0000 046F     }
                 ; 0000 0470 
                 ; 0000 0471 if(PORT_CZYTNIK.byte == 0x61)
                 _0x73:
000992 91a0 0502 	LDS  R26,_PORT_CZYTNIK
000994 36a1      	CPI  R26,LOW(0x61)
000995 f441      	BRNE _0x74
                 ; 0000 0472     {
                 ; 0000 0473       komunikat_z_czytnika_kodow("86-0847",rzad);
                +
000996 e1e1     +LDI R30 , LOW ( 2 * _0x0 + ( 881 ) )
000997 e0f4     +LDI R31 , HIGH ( 2 * _0x0 + ( 881 ) )
                 	__POINTW1FN _0x0,881
000998 940e 1826 	CALL SUBOPT_0xE
                 ; 0000 0474       macierz_zaciskow[rzad]=97;
00099a e6e1      	LDI  R30,LOW(97)
00099b e0f0      	LDI  R31,HIGH(97)
00099c 93ed      	ST   X+,R30
00099d 93fc      	ST   X,R31
                 ; 0000 0475     }
                 ; 0000 0476 
                 ; 0000 0477 if(PORT_CZYTNIK.byte == 0x62)
                 _0x74:
00099e 91a0 0502 	LDS  R26,_PORT_CZYTNIK
0009a0 36a2      	CPI  R26,LOW(0x62)
0009a1 f441      	BRNE _0x75
                 ; 0000 0478     {
                 ; 0000 0479       komunikat_z_czytnika_kodow("86-1620",rzad);
                +
0009a2 e1e9     +LDI R30 , LOW ( 2 * _0x0 + ( 889 ) )
0009a3 e0f4     +LDI R31 , HIGH ( 2 * _0x0 + ( 889 ) )
                 	__POINTW1FN _0x0,889
0009a4 940e 1826 	CALL SUBOPT_0xE
                 ; 0000 047A       macierz_zaciskow[rzad]=98;
0009a6 e6e2      	LDI  R30,LOW(98)
0009a7 e0f0      	LDI  R31,HIGH(98)
0009a8 93ed      	ST   X+,R30
0009a9 93fc      	ST   X,R31
                 ; 0000 047B     }
                 ; 0000 047C if(PORT_CZYTNIK.byte == 0x63)
                 _0x75:
0009aa 91a0 0502 	LDS  R26,_PORT_CZYTNIK
0009ac 36a3      	CPI  R26,LOW(0x63)
0009ad f441      	BRNE _0x76
                 ; 0000 047D     {
                 ; 0000 047E       komunikat_z_czytnika_kodow("86-2019",rzad);
                +
0009ae e2e1     +LDI R30 , LOW ( 2 * _0x0 + ( 897 ) )
0009af e0f4     +LDI R31 , HIGH ( 2 * _0x0 + ( 897 ) )
                 	__POINTW1FN _0x0,897
0009b0 940e 1826 	CALL SUBOPT_0xE
                 ; 0000 047F       macierz_zaciskow[rzad]=99;
0009b2 e6e3      	LDI  R30,LOW(99)
0009b3 e0f0      	LDI  R31,HIGH(99)
0009b4 93ed      	ST   X+,R30
0009b5 93fc      	ST   X,R31
                 ; 0000 0480     }
                 ; 0000 0481 if(PORT_CZYTNIK.byte == 0x64)
                 _0x76:
0009b6 91a0 0502 	LDS  R26,_PORT_CZYTNIK
0009b8 36a4      	CPI  R26,LOW(0x64)
0009b9 f441      	BRNE _0x77
                 ; 0000 0482     {
                 ; 0000 0483       komunikat_z_czytnika_kodow("86-2385",rzad);
                +
0009ba e2e9     +LDI R30 , LOW ( 2 * _0x0 + ( 905 ) )
0009bb e0f4     +LDI R31 , HIGH ( 2 * _0x0 + ( 905 ) )
                 	__POINTW1FN _0x0,905
0009bc 940e 1826 	CALL SUBOPT_0xE
                 ; 0000 0484       macierz_zaciskow[rzad]=100;
0009be e6e4      	LDI  R30,LOW(100)
0009bf e0f0      	LDI  R31,HIGH(100)
0009c0 93ed      	ST   X+,R30
0009c1 93fc      	ST   X,R31
                 ; 0000 0485     }
                 ; 0000 0486 if(PORT_CZYTNIK.byte == 0x65)
                 _0x77:
0009c2 91a0 0502 	LDS  R26,_PORT_CZYTNIK
0009c4 36a5      	CPI  R26,LOW(0x65)
0009c5 f441      	BRNE _0x78
                 ; 0000 0487     {
                 ; 0000 0488       komunikat_z_czytnika_kodow("87-0847",rzad);
                +
0009c6 e3e1     +LDI R30 , LOW ( 2 * _0x0 + ( 913 ) )
0009c7 e0f4     +LDI R31 , HIGH ( 2 * _0x0 + ( 913 ) )
                 	__POINTW1FN _0x0,913
0009c8 940e 1826 	CALL SUBOPT_0xE
                 ; 0000 0489       macierz_zaciskow[rzad]=101;
0009ca e6e5      	LDI  R30,LOW(101)
0009cb e0f0      	LDI  R31,HIGH(101)
0009cc 93ed      	ST   X+,R30
0009cd 93fc      	ST   X,R31
                 ; 0000 048A     }
                 ; 0000 048B if(PORT_CZYTNIK.byte == 0x66)
                 _0x78:
0009ce 91a0 0502 	LDS  R26,_PORT_CZYTNIK
0009d0 36a6      	CPI  R26,LOW(0x66)
0009d1 f441      	BRNE _0x79
                 ; 0000 048C     {
                 ; 0000 048D       komunikat_z_czytnika_kodow("87-1620",rzad);
                +
0009d2 e3e9     +LDI R30 , LOW ( 2 * _0x0 + ( 921 ) )
0009d3 e0f4     +LDI R31 , HIGH ( 2 * _0x0 + ( 921 ) )
                 	__POINTW1FN _0x0,921
0009d4 940e 1826 	CALL SUBOPT_0xE
                 ; 0000 048E       macierz_zaciskow[rzad]=102;
0009d6 e6e6      	LDI  R30,LOW(102)
0009d7 e0f0      	LDI  R31,HIGH(102)
0009d8 93ed      	ST   X+,R30
0009d9 93fc      	ST   X,R31
                 ; 0000 048F     }
                 ; 0000 0490 if(PORT_CZYTNIK.byte == 0x67)
                 _0x79:
0009da 91a0 0502 	LDS  R26,_PORT_CZYTNIK
0009dc 36a7      	CPI  R26,LOW(0x67)
0009dd f441      	BRNE _0x7A
                 ; 0000 0491     {
                 ; 0000 0492       komunikat_z_czytnika_kodow("87-2019",rzad);
                +
0009de e4e1     +LDI R30 , LOW ( 2 * _0x0 + ( 929 ) )
0009df e0f4     +LDI R31 , HIGH ( 2 * _0x0 + ( 929 ) )
                 	__POINTW1FN _0x0,929
0009e0 940e 1826 	CALL SUBOPT_0xE
                 ; 0000 0493       macierz_zaciskow[rzad]=103;
0009e2 e6e7      	LDI  R30,LOW(103)
0009e3 e0f0      	LDI  R31,HIGH(103)
0009e4 93ed      	ST   X+,R30
0009e5 93fc      	ST   X,R31
                 ; 0000 0494     }
                 ; 0000 0495 if(PORT_CZYTNIK.byte == 0x68)
                 _0x7A:
0009e6 91a0 0502 	LDS  R26,_PORT_CZYTNIK
0009e8 36a8      	CPI  R26,LOW(0x68)
0009e9 f441      	BRNE _0x7B
                 ; 0000 0496     {
                 ; 0000 0497       komunikat_z_czytnika_kodow("87-2385",rzad);
                +
0009ea e4e9     +LDI R30 , LOW ( 2 * _0x0 + ( 937 ) )
0009eb e0f4     +LDI R31 , HIGH ( 2 * _0x0 + ( 937 ) )
                 	__POINTW1FN _0x0,937
0009ec 940e 1826 	CALL SUBOPT_0xE
                 ; 0000 0498       macierz_zaciskow[rzad]=104;
0009ee e6e8      	LDI  R30,LOW(104)
0009ef e0f0      	LDI  R31,HIGH(104)
0009f0 93ed      	ST   X+,R30
0009f1 93fc      	ST   X,R31
                 ; 0000 0499     }
                 ; 0000 049A if(PORT_CZYTNIK.byte == 0x69)
                 _0x7B:
0009f2 91a0 0502 	LDS  R26,_PORT_CZYTNIK
0009f4 36a9      	CPI  R26,LOW(0x69)
0009f5 f441      	BRNE _0x7C
                 ; 0000 049B     {
                 ; 0000 049C       komunikat_z_czytnika_kodow("86-0854",rzad);
                +
0009f6 e5e1     +LDI R30 , LOW ( 2 * _0x0 + ( 945 ) )
0009f7 e0f4     +LDI R31 , HIGH ( 2 * _0x0 + ( 945 ) )
                 	__POINTW1FN _0x0,945
0009f8 940e 1826 	CALL SUBOPT_0xE
                 ; 0000 049D       macierz_zaciskow[rzad]=105;
0009fa e6e9      	LDI  R30,LOW(105)
0009fb e0f0      	LDI  R31,HIGH(105)
0009fc 93ed      	ST   X+,R30
0009fd 93fc      	ST   X,R31
                 ; 0000 049E     }
                 ; 0000 049F if(PORT_CZYTNIK.byte == 0x6A)
                 _0x7C:
0009fe 91a0 0502 	LDS  R26,_PORT_CZYTNIK
000a00 36aa      	CPI  R26,LOW(0x6A)
000a01 f441      	BRNE _0x7D
                 ; 0000 04A0     {
                 ; 0000 04A1       komunikat_z_czytnika_kodow("86-1622",rzad);
                +
000a02 e5e9     +LDI R30 , LOW ( 2 * _0x0 + ( 953 ) )
000a03 e0f4     +LDI R31 , HIGH ( 2 * _0x0 + ( 953 ) )
                 	__POINTW1FN _0x0,953
000a04 940e 1826 	CALL SUBOPT_0xE
                 ; 0000 04A2       macierz_zaciskow[rzad]=106;
000a06 e6ea      	LDI  R30,LOW(106)
000a07 e0f0      	LDI  R31,HIGH(106)
000a08 93ed      	ST   X+,R30
000a09 93fc      	ST   X,R31
                 ; 0000 04A3     }
                 ; 0000 04A4 if(PORT_CZYTNIK.byte == 0x6B)
                 _0x7D:
000a0a 91a0 0502 	LDS  R26,_PORT_CZYTNIK
000a0c 36ab      	CPI  R26,LOW(0x6B)
000a0d f441      	BRNE _0x7E
                 ; 0000 04A5     {
                 ; 0000 04A6       komunikat_z_czytnika_kodow("86-2028",rzad);
                +
000a0e e6e1     +LDI R30 , LOW ( 2 * _0x0 + ( 961 ) )
000a0f e0f4     +LDI R31 , HIGH ( 2 * _0x0 + ( 961 ) )
                 	__POINTW1FN _0x0,961
000a10 940e 1826 	CALL SUBOPT_0xE
                 ; 0000 04A7       macierz_zaciskow[rzad]=107;
000a12 e6eb      	LDI  R30,LOW(107)
000a13 e0f0      	LDI  R31,HIGH(107)
000a14 93ed      	ST   X+,R30
000a15 93fc      	ST   X,R31
                 ; 0000 04A8     }
                 ; 0000 04A9 if(PORT_CZYTNIK.byte == 0x6C)
                 _0x7E:
000a16 91a0 0502 	LDS  R26,_PORT_CZYTNIK
000a18 36ac      	CPI  R26,LOW(0x6C)
000a19 f441      	BRNE _0x7F
                 ; 0000 04AA     {
                 ; 0000 04AB       komunikat_z_czytnika_kodow("86-2437",rzad);
                +
000a1a e6e9     +LDI R30 , LOW ( 2 * _0x0 + ( 969 ) )
000a1b e0f4     +LDI R31 , HIGH ( 2 * _0x0 + ( 969 ) )
                 	__POINTW1FN _0x0,969
000a1c 940e 1826 	CALL SUBOPT_0xE
                 ; 0000 04AC       macierz_zaciskow[rzad]=108;
000a1e e6ec      	LDI  R30,LOW(108)
000a1f e0f0      	LDI  R31,HIGH(108)
000a20 93ed      	ST   X+,R30
000a21 93fc      	ST   X,R31
                 ; 0000 04AD     }
                 ; 0000 04AE if(PORT_CZYTNIK.byte == 0x6D)
                 _0x7F:
000a22 91a0 0502 	LDS  R26,_PORT_CZYTNIK
000a24 36ad      	CPI  R26,LOW(0x6D)
000a25 f441      	BRNE _0x80
                 ; 0000 04AF     {
                 ; 0000 04B0       komunikat_z_czytnika_kodow("87-0854",rzad);
                +
000a26 e7e1     +LDI R30 , LOW ( 2 * _0x0 + ( 977 ) )
000a27 e0f4     +LDI R31 , HIGH ( 2 * _0x0 + ( 977 ) )
                 	__POINTW1FN _0x0,977
000a28 940e 1826 	CALL SUBOPT_0xE
                 ; 0000 04B1       macierz_zaciskow[rzad]=109;
000a2a e6ed      	LDI  R30,LOW(109)
000a2b e0f0      	LDI  R31,HIGH(109)
000a2c 93ed      	ST   X+,R30
000a2d 93fc      	ST   X,R31
                 ; 0000 04B2     }
                 ; 0000 04B3 if(PORT_CZYTNIK.byte == 0x6E)
                 _0x80:
000a2e 91a0 0502 	LDS  R26,_PORT_CZYTNIK
000a30 36ae      	CPI  R26,LOW(0x6E)
000a31 f441      	BRNE _0x81
                 ; 0000 04B4     {
                 ; 0000 04B5       komunikat_z_czytnika_kodow("87-1622",rzad);
                +
000a32 e7e9     +LDI R30 , LOW ( 2 * _0x0 + ( 985 ) )
000a33 e0f4     +LDI R31 , HIGH ( 2 * _0x0 + ( 985 ) )
                 	__POINTW1FN _0x0,985
000a34 940e 1826 	CALL SUBOPT_0xE
                 ; 0000 04B6       macierz_zaciskow[rzad]=110;
000a36 e6ee      	LDI  R30,LOW(110)
000a37 e0f0      	LDI  R31,HIGH(110)
000a38 93ed      	ST   X+,R30
000a39 93fc      	ST   X,R31
                 ; 0000 04B7     }
                 ; 0000 04B8 
                 ; 0000 04B9 if(PORT_CZYTNIK.byte == 0x6F)
                 _0x81:
000a3a 91a0 0502 	LDS  R26,_PORT_CZYTNIK
000a3c 36af      	CPI  R26,LOW(0x6F)
000a3d f441      	BRNE _0x82
                 ; 0000 04BA     {
                 ; 0000 04BB       komunikat_z_czytnika_kodow("87-2028",rzad);
                +
000a3e e8e1     +LDI R30 , LOW ( 2 * _0x0 + ( 993 ) )
000a3f e0f4     +LDI R31 , HIGH ( 2 * _0x0 + ( 993 ) )
                 	__POINTW1FN _0x0,993
000a40 940e 1826 	CALL SUBOPT_0xE
                 ; 0000 04BC       macierz_zaciskow[rzad]=111;
000a42 e6ef      	LDI  R30,LOW(111)
000a43 e0f0      	LDI  R31,HIGH(111)
000a44 93ed      	ST   X+,R30
000a45 93fc      	ST   X,R31
                 ; 0000 04BD     }
                 ; 0000 04BE 
                 ; 0000 04BF if(PORT_CZYTNIK.byte == 0x70)
                 _0x82:
000a46 91a0 0502 	LDS  R26,_PORT_CZYTNIK
000a48 37a0      	CPI  R26,LOW(0x70)
000a49 f441      	BRNE _0x83
                 ; 0000 04C0     {
                 ; 0000 04C1       komunikat_z_czytnika_kodow("87-2437",rzad);
                +
000a4a e8e9     +LDI R30 , LOW ( 2 * _0x0 + ( 1001 ) )
000a4b e0f4     +LDI R31 , HIGH ( 2 * _0x0 + ( 1001 ) )
                 	__POINTW1FN _0x0,1001
000a4c 940e 1826 	CALL SUBOPT_0xE
                 ; 0000 04C2       macierz_zaciskow[rzad]=112;
000a4e e7e0      	LDI  R30,LOW(112)
000a4f e0f0      	LDI  R31,HIGH(112)
000a50 93ed      	ST   X+,R30
000a51 93fc      	ST   X,R31
                 ; 0000 04C3     }
                 ; 0000 04C4 if(PORT_CZYTNIK.byte == 0x71)
                 _0x83:
000a52 91a0 0502 	LDS  R26,_PORT_CZYTNIK
000a54 37a1      	CPI  R26,LOW(0x71)
000a55 f441      	BRNE _0x84
                 ; 0000 04C5     {
                 ; 0000 04C6       komunikat_z_czytnika_kodow("86-0862",rzad);
                +
000a56 e9e1     +LDI R30 , LOW ( 2 * _0x0 + ( 1009 ) )
000a57 e0f4     +LDI R31 , HIGH ( 2 * _0x0 + ( 1009 ) )
                 	__POINTW1FN _0x0,1009
000a58 940e 1826 	CALL SUBOPT_0xE
                 ; 0000 04C7       macierz_zaciskow[rzad]=113;
000a5a e7e1      	LDI  R30,LOW(113)
000a5b e0f0      	LDI  R31,HIGH(113)
000a5c 93ed      	ST   X+,R30
000a5d 93fc      	ST   X,R31
                 ; 0000 04C8     }
                 ; 0000 04C9 if(PORT_CZYTNIK.byte == 0x72)
                 _0x84:
000a5e 91a0 0502 	LDS  R26,_PORT_CZYTNIK
000a60 37a2      	CPI  R26,LOW(0x72)
000a61 f441      	BRNE _0x85
                 ; 0000 04CA     {
                 ; 0000 04CB       komunikat_z_czytnika_kodow("86-1625",rzad);
                +
000a62 e9e9     +LDI R30 , LOW ( 2 * _0x0 + ( 1017 ) )
000a63 e0f4     +LDI R31 , HIGH ( 2 * _0x0 + ( 1017 ) )
                 	__POINTW1FN _0x0,1017
000a64 940e 1826 	CALL SUBOPT_0xE
                 ; 0000 04CC       macierz_zaciskow[rzad]=114;
000a66 e7e2      	LDI  R30,LOW(114)
000a67 e0f0      	LDI  R31,HIGH(114)
000a68 93ed      	ST   X+,R30
000a69 93fc      	ST   X,R31
                 ; 0000 04CD     }
                 ; 0000 04CE if(PORT_CZYTNIK.byte == 0x73)
                 _0x85:
000a6a 91a0 0502 	LDS  R26,_PORT_CZYTNIK
000a6c 37a3      	CPI  R26,LOW(0x73)
000a6d f441      	BRNE _0x86
                 ; 0000 04CF     {
                 ; 0000 04D0       komunikat_z_czytnika_kodow("86-2052",rzad);
                +
000a6e eae1     +LDI R30 , LOW ( 2 * _0x0 + ( 1025 ) )
000a6f e0f4     +LDI R31 , HIGH ( 2 * _0x0 + ( 1025 ) )
                 	__POINTW1FN _0x0,1025
000a70 940e 1826 	CALL SUBOPT_0xE
                 ; 0000 04D1       macierz_zaciskow[rzad]=115;
000a72 e7e3      	LDI  R30,LOW(115)
000a73 e0f0      	LDI  R31,HIGH(115)
000a74 93ed      	ST   X+,R30
000a75 93fc      	ST   X,R31
                 ; 0000 04D2     }
                 ; 0000 04D3 if(PORT_CZYTNIK.byte == 0x74)
                 _0x86:
000a76 91a0 0502 	LDS  R26,_PORT_CZYTNIK
000a78 37a4      	CPI  R26,LOW(0x74)
000a79 f441      	BRNE _0x87
                 ; 0000 04D4     {
                 ; 0000 04D5       komunikat_z_czytnika_kodow("86-2492",rzad);
                +
000a7a eae9     +LDI R30 , LOW ( 2 * _0x0 + ( 1033 ) )
000a7b e0f4     +LDI R31 , HIGH ( 2 * _0x0 + ( 1033 ) )
                 	__POINTW1FN _0x0,1033
000a7c 940e 1826 	CALL SUBOPT_0xE
                 ; 0000 04D6       macierz_zaciskow[rzad]=116;
000a7e e7e4      	LDI  R30,LOW(116)
000a7f e0f0      	LDI  R31,HIGH(116)
000a80 93ed      	ST   X+,R30
000a81 93fc      	ST   X,R31
                 ; 0000 04D7     }
                 ; 0000 04D8 if(PORT_CZYTNIK.byte == 0x75)
                 _0x87:
000a82 91a0 0502 	LDS  R26,_PORT_CZYTNIK
000a84 37a5      	CPI  R26,LOW(0x75)
000a85 f441      	BRNE _0x88
                 ; 0000 04D9     {
                 ; 0000 04DA       komunikat_z_czytnika_kodow("87-0862",rzad);
                +
000a86 ebe1     +LDI R30 , LOW ( 2 * _0x0 + ( 1041 ) )
000a87 e0f4     +LDI R31 , HIGH ( 2 * _0x0 + ( 1041 ) )
                 	__POINTW1FN _0x0,1041
000a88 940e 1826 	CALL SUBOPT_0xE
                 ; 0000 04DB       macierz_zaciskow[rzad]=117;
000a8a e7e5      	LDI  R30,LOW(117)
000a8b e0f0      	LDI  R31,HIGH(117)
000a8c 93ed      	ST   X+,R30
000a8d 93fc      	ST   X,R31
                 ; 0000 04DC     }
                 ; 0000 04DD if(PORT_CZYTNIK.byte == 0x76)
                 _0x88:
000a8e 91a0 0502 	LDS  R26,_PORT_CZYTNIK
000a90 37a6      	CPI  R26,LOW(0x76)
000a91 f441      	BRNE _0x89
                 ; 0000 04DE     {
                 ; 0000 04DF       komunikat_z_czytnika_kodow("87-1625",rzad);
                +
000a92 ebe9     +LDI R30 , LOW ( 2 * _0x0 + ( 1049 ) )
000a93 e0f4     +LDI R31 , HIGH ( 2 * _0x0 + ( 1049 ) )
                 	__POINTW1FN _0x0,1049
000a94 940e 1826 	CALL SUBOPT_0xE
                 ; 0000 04E0       macierz_zaciskow[rzad]=118;
000a96 e7e6      	LDI  R30,LOW(118)
000a97 e0f0      	LDI  R31,HIGH(118)
000a98 93ed      	ST   X+,R30
000a99 93fc      	ST   X,R31
                 ; 0000 04E1     }
                 ; 0000 04E2 if(PORT_CZYTNIK.byte == 0x77)
                 _0x89:
000a9a 91a0 0502 	LDS  R26,_PORT_CZYTNIK
000a9c 37a7      	CPI  R26,LOW(0x77)
000a9d f441      	BRNE _0x8A
                 ; 0000 04E3     {
                 ; 0000 04E4       komunikat_z_czytnika_kodow("87-2052",rzad);
                +
000a9e ece1     +LDI R30 , LOW ( 2 * _0x0 + ( 1057 ) )
000a9f e0f4     +LDI R31 , HIGH ( 2 * _0x0 + ( 1057 ) )
                 	__POINTW1FN _0x0,1057
000aa0 940e 1826 	CALL SUBOPT_0xE
                 ; 0000 04E5       macierz_zaciskow[rzad]=119;
000aa2 e7e7      	LDI  R30,LOW(119)
000aa3 e0f0      	LDI  R31,HIGH(119)
000aa4 93ed      	ST   X+,R30
000aa5 93fc      	ST   X,R31
                 ; 0000 04E6     }
                 ; 0000 04E7 if(PORT_CZYTNIK.byte == 0x78)
                 _0x8A:
000aa6 91a0 0502 	LDS  R26,_PORT_CZYTNIK
000aa8 37a8      	CPI  R26,LOW(0x78)
000aa9 f441      	BRNE _0x8B
                 ; 0000 04E8     {
                 ; 0000 04E9       komunikat_z_czytnika_kodow("87-2492",rzad);
                +
000aaa ece9     +LDI R30 , LOW ( 2 * _0x0 + ( 1065 ) )
000aab e0f4     +LDI R31 , HIGH ( 2 * _0x0 + ( 1065 ) )
                 	__POINTW1FN _0x0,1065
000aac 940e 1826 	CALL SUBOPT_0xE
                 ; 0000 04EA       macierz_zaciskow[rzad]=120;
000aae e7e8      	LDI  R30,LOW(120)
000aaf e0f0      	LDI  R31,HIGH(120)
000ab0 93ed      	ST   X+,R30
000ab1 93fc      	ST   X,R31
                 ; 0000 04EB     }
                 ; 0000 04EC if(PORT_CZYTNIK.byte == 0x79)
                 _0x8B:
000ab2 91a0 0502 	LDS  R26,_PORT_CZYTNIK
000ab4 37a9      	CPI  R26,LOW(0x79)
000ab5 f441      	BRNE _0x8C
                 ; 0000 04ED     {
                 ; 0000 04EE       komunikat_z_czytnika_kodow("86-0935",rzad);
                +
000ab6 ede1     +LDI R30 , LOW ( 2 * _0x0 + ( 1073 ) )
000ab7 e0f4     +LDI R31 , HIGH ( 2 * _0x0 + ( 1073 ) )
                 	__POINTW1FN _0x0,1073
000ab8 940e 1826 	CALL SUBOPT_0xE
                 ; 0000 04EF       macierz_zaciskow[rzad]=121;
000aba e7e9      	LDI  R30,LOW(121)
000abb e0f0      	LDI  R31,HIGH(121)
000abc 93ed      	ST   X+,R30
000abd 93fc      	ST   X,R31
                 ; 0000 04F0     }
                 ; 0000 04F1 if(PORT_CZYTNIK.byte == 0x7A)
                 _0x8C:
000abe 91a0 0502 	LDS  R26,_PORT_CZYTNIK
000ac0 37aa      	CPI  R26,LOW(0x7A)
000ac1 f441      	BRNE _0x8D
                 ; 0000 04F2     {
                 ; 0000 04F3       komunikat_z_czytnika_kodow("86-1648",rzad);
                +
000ac2 ede9     +LDI R30 , LOW ( 2 * _0x0 + ( 1081 ) )
000ac3 e0f4     +LDI R31 , HIGH ( 2 * _0x0 + ( 1081 ) )
                 	__POINTW1FN _0x0,1081
000ac4 940e 1826 	CALL SUBOPT_0xE
                 ; 0000 04F4       macierz_zaciskow[rzad]=122;
000ac6 e7ea      	LDI  R30,LOW(122)
000ac7 e0f0      	LDI  R31,HIGH(122)
000ac8 93ed      	ST   X+,R30
000ac9 93fc      	ST   X,R31
                 ; 0000 04F5     }
                 ; 0000 04F6 if(PORT_CZYTNIK.byte == 0x7B)
                 _0x8D:
000aca 91a0 0502 	LDS  R26,_PORT_CZYTNIK
000acc 37ab      	CPI  R26,LOW(0x7B)
000acd f441      	BRNE _0x8E
                 ; 0000 04F7     {
                 ; 0000 04F8       komunikat_z_czytnika_kodow("86-2082",rzad);
                +
000ace eee1     +LDI R30 , LOW ( 2 * _0x0 + ( 1089 ) )
000acf e0f4     +LDI R31 , HIGH ( 2 * _0x0 + ( 1089 ) )
                 	__POINTW1FN _0x0,1089
000ad0 940e 1826 	CALL SUBOPT_0xE
                 ; 0000 04F9       macierz_zaciskow[rzad]=123;
000ad2 e7eb      	LDI  R30,LOW(123)
000ad3 e0f0      	LDI  R31,HIGH(123)
000ad4 93ed      	ST   X+,R30
000ad5 93fc      	ST   X,R31
                 ; 0000 04FA     }
                 ; 0000 04FB if(PORT_CZYTNIK.byte == 0x7C)
                 _0x8E:
000ad6 91a0 0502 	LDS  R26,_PORT_CZYTNIK
000ad8 37ac      	CPI  R26,LOW(0x7C)
000ad9 f441      	BRNE _0x8F
                 ; 0000 04FC     {
                 ; 0000 04FD       komunikat_z_czytnika_kodow("86-2500",rzad);
                +
000ada eee9     +LDI R30 , LOW ( 2 * _0x0 + ( 1097 ) )
000adb e0f4     +LDI R31 , HIGH ( 2 * _0x0 + ( 1097 ) )
                 	__POINTW1FN _0x0,1097
000adc 940e 1826 	CALL SUBOPT_0xE
                 ; 0000 04FE       macierz_zaciskow[rzad]=124;
000ade e7ec      	LDI  R30,LOW(124)
000adf e0f0      	LDI  R31,HIGH(124)
000ae0 93ed      	ST   X+,R30
000ae1 93fc      	ST   X,R31
                 ; 0000 04FF     }
                 ; 0000 0500 if(PORT_CZYTNIK.byte == 0x7D)
                 _0x8F:
000ae2 91a0 0502 	LDS  R26,_PORT_CZYTNIK
000ae4 37ad      	CPI  R26,LOW(0x7D)
000ae5 f441      	BRNE _0x90
                 ; 0000 0501     {
                 ; 0000 0502       komunikat_z_czytnika_kodow("87-0935",rzad);
                +
000ae6 efe1     +LDI R30 , LOW ( 2 * _0x0 + ( 1105 ) )
000ae7 e0f4     +LDI R31 , HIGH ( 2 * _0x0 + ( 1105 ) )
                 	__POINTW1FN _0x0,1105
000ae8 940e 1826 	CALL SUBOPT_0xE
                 ; 0000 0503       macierz_zaciskow[rzad]=125;
000aea e7ed      	LDI  R30,LOW(125)
000aeb e0f0      	LDI  R31,HIGH(125)
000aec 93ed      	ST   X+,R30
000aed 93fc      	ST   X,R31
                 ; 0000 0504     }
                 ; 0000 0505 if(PORT_CZYTNIK.byte == 0x7E)
                 _0x90:
000aee 91a0 0502 	LDS  R26,_PORT_CZYTNIK
000af0 37ae      	CPI  R26,LOW(0x7E)
000af1 f441      	BRNE _0x91
                 ; 0000 0506     {
                 ; 0000 0507       komunikat_z_czytnika_kodow("87-1648",rzad);
                +
000af2 efe9     +LDI R30 , LOW ( 2 * _0x0 + ( 1113 ) )
000af3 e0f4     +LDI R31 , HIGH ( 2 * _0x0 + ( 1113 ) )
                 	__POINTW1FN _0x0,1113
000af4 940e 1826 	CALL SUBOPT_0xE
                 ; 0000 0508       macierz_zaciskow[rzad]=126;
000af6 e7ee      	LDI  R30,LOW(126)
000af7 e0f0      	LDI  R31,HIGH(126)
000af8 93ed      	ST   X+,R30
000af9 93fc      	ST   X,R31
                 ; 0000 0509     }
                 ; 0000 050A 
                 ; 0000 050B if(PORT_CZYTNIK.byte == 0x7F)
                 _0x91:
000afa 91a0 0502 	LDS  R26,_PORT_CZYTNIK
000afc 37af      	CPI  R26,LOW(0x7F)
000afd f441      	BRNE _0x92
                 ; 0000 050C     {
                 ; 0000 050D       komunikat_z_czytnika_kodow("87-2082",rzad);
                +
000afe e0e1     +LDI R30 , LOW ( 2 * _0x0 + ( 1121 ) )
000aff e0f5     +LDI R31 , HIGH ( 2 * _0x0 + ( 1121 ) )
                 	__POINTW1FN _0x0,1121
000b00 940e 1826 	CALL SUBOPT_0xE
                 ; 0000 050E       macierz_zaciskow[rzad]=127;
000b02 e7ef      	LDI  R30,LOW(127)
000b03 e0f0      	LDI  R31,HIGH(127)
000b04 93ed      	ST   X+,R30
000b05 93fc      	ST   X,R31
                 ; 0000 050F     }
                 ; 0000 0510 if(PORT_CZYTNIK.byte == 0x80)
                 _0x92:
000b06 91a0 0502 	LDS  R26,_PORT_CZYTNIK
000b08 38a0      	CPI  R26,LOW(0x80)
000b09 f441      	BRNE _0x93
                 ; 0000 0511     {
                 ; 0000 0512       komunikat_z_czytnika_kodow("87-2500",rzad);
                +
000b0a e0e9     +LDI R30 , LOW ( 2 * _0x0 + ( 1129 ) )
000b0b e0f5     +LDI R31 , HIGH ( 2 * _0x0 + ( 1129 ) )
                 	__POINTW1FN _0x0,1129
000b0c 940e 1826 	CALL SUBOPT_0xE
                 ; 0000 0513       macierz_zaciskow[rzad]=128;
000b0e e8e0      	LDI  R30,LOW(128)
000b0f e0f0      	LDI  R31,HIGH(128)
000b10 93ed      	ST   X+,R30
000b11 93fc      	ST   X,R31
                 ; 0000 0514     }
                 ; 0000 0515 if(PORT_CZYTNIK.byte == 0x81)
                 _0x93:
000b12 91a0 0502 	LDS  R26,_PORT_CZYTNIK
000b14 38a1      	CPI  R26,LOW(0x81)
000b15 f441      	BRNE _0x94
                 ; 0000 0516     {
                 ; 0000 0517       komunikat_z_czytnika_kodow("86-1019",rzad);
                +
000b16 e1e1     +LDI R30 , LOW ( 2 * _0x0 + ( 1137 ) )
000b17 e0f5     +LDI R31 , HIGH ( 2 * _0x0 + ( 1137 ) )
                 	__POINTW1FN _0x0,1137
000b18 940e 1826 	CALL SUBOPT_0xE
                 ; 0000 0518       macierz_zaciskow[rzad]=129;
000b1a e8e1      	LDI  R30,LOW(129)
000b1b e0f0      	LDI  R31,HIGH(129)
000b1c 93ed      	ST   X+,R30
000b1d 93fc      	ST   X,R31
                 ; 0000 0519     }
                 ; 0000 051A if(PORT_CZYTNIK.byte == 0x82)
                 _0x94:
000b1e 91a0 0502 	LDS  R26,_PORT_CZYTNIK
000b20 38a2      	CPI  R26,LOW(0x82)
000b21 f441      	BRNE _0x95
                 ; 0000 051B     {
                 ; 0000 051C       komunikat_z_czytnika_kodow("86-1649",rzad);
                +
000b22 e1e9     +LDI R30 , LOW ( 2 * _0x0 + ( 1145 ) )
000b23 e0f5     +LDI R31 , HIGH ( 2 * _0x0 + ( 1145 ) )
                 	__POINTW1FN _0x0,1145
000b24 940e 1826 	CALL SUBOPT_0xE
                 ; 0000 051D       macierz_zaciskow[rzad]=130;
000b26 e8e2      	LDI  R30,LOW(130)
000b27 e0f0      	LDI  R31,HIGH(130)
000b28 93ed      	ST   X+,R30
000b29 93fc      	ST   X,R31
                 ; 0000 051E     }
                 ; 0000 051F if(PORT_CZYTNIK.byte == 0x83)
                 _0x95:
000b2a 91a0 0502 	LDS  R26,_PORT_CZYTNIK
000b2c 38a3      	CPI  R26,LOW(0x83)
000b2d f441      	BRNE _0x96
                 ; 0000 0520     {
                 ; 0000 0521       komunikat_z_czytnika_kodow("86-2083",rzad);
                +
000b2e e2e1     +LDI R30 , LOW ( 2 * _0x0 + ( 1153 ) )
000b2f e0f5     +LDI R31 , HIGH ( 2 * _0x0 + ( 1153 ) )
                 	__POINTW1FN _0x0,1153
000b30 940e 1826 	CALL SUBOPT_0xE
                 ; 0000 0522       macierz_zaciskow[rzad]=131;
000b32 e8e3      	LDI  R30,LOW(131)
000b33 e0f0      	LDI  R31,HIGH(131)
000b34 93ed      	ST   X+,R30
000b35 93fc      	ST   X,R31
                 ; 0000 0523     }
                 ; 0000 0524 if(PORT_CZYTNIK.byte == 0x84)
                 _0x96:
000b36 91a0 0502 	LDS  R26,_PORT_CZYTNIK
000b38 38a4      	CPI  R26,LOW(0x84)
000b39 f441      	BRNE _0x97
                 ; 0000 0525     {
                 ; 0000 0526       komunikat_z_czytnika_kodow("86-2585",rzad);
                +
000b3a e2e9     +LDI R30 , LOW ( 2 * _0x0 + ( 1161 ) )
000b3b e0f5     +LDI R31 , HIGH ( 2 * _0x0 + ( 1161 ) )
                 	__POINTW1FN _0x0,1161
000b3c 940e 1826 	CALL SUBOPT_0xE
                 ; 0000 0527       macierz_zaciskow[rzad]=132;
000b3e e8e4      	LDI  R30,LOW(132)
000b3f e0f0      	LDI  R31,HIGH(132)
000b40 93ed      	ST   X+,R30
000b41 93fc      	ST   X,R31
                 ; 0000 0528     }
                 ; 0000 0529 if(PORT_CZYTNIK.byte == 0x85)
                 _0x97:
000b42 91a0 0502 	LDS  R26,_PORT_CZYTNIK
000b44 38a5      	CPI  R26,LOW(0x85)
000b45 f441      	BRNE _0x98
                 ; 0000 052A     {
                 ; 0000 052B       komunikat_z_czytnika_kodow("87-1019",rzad);
                +
000b46 e3e1     +LDI R30 , LOW ( 2 * _0x0 + ( 1169 ) )
000b47 e0f5     +LDI R31 , HIGH ( 2 * _0x0 + ( 1169 ) )
                 	__POINTW1FN _0x0,1169
000b48 940e 1826 	CALL SUBOPT_0xE
                 ; 0000 052C       macierz_zaciskow[rzad]=133;
000b4a e8e5      	LDI  R30,LOW(133)
000b4b e0f0      	LDI  R31,HIGH(133)
000b4c 93ed      	ST   X+,R30
000b4d 93fc      	ST   X,R31
                 ; 0000 052D     }
                 ; 0000 052E if(PORT_CZYTNIK.byte == 0x86)
                 _0x98:
000b4e 91a0 0502 	LDS  R26,_PORT_CZYTNIK
000b50 38a6      	CPI  R26,LOW(0x86)
000b51 f441      	BRNE _0x99
                 ; 0000 052F     {
                 ; 0000 0530       komunikat_z_czytnika_kodow("87-1649",rzad);
                +
000b52 e3e9     +LDI R30 , LOW ( 2 * _0x0 + ( 1177 ) )
000b53 e0f5     +LDI R31 , HIGH ( 2 * _0x0 + ( 1177 ) )
                 	__POINTW1FN _0x0,1177
000b54 940e 1826 	CALL SUBOPT_0xE
                 ; 0000 0531       macierz_zaciskow[rzad]=134;
000b56 e8e6      	LDI  R30,LOW(134)
000b57 e0f0      	LDI  R31,HIGH(134)
000b58 93ed      	ST   X+,R30
000b59 93fc      	ST   X,R31
                 ; 0000 0532     }
                 ; 0000 0533 if(PORT_CZYTNIK.byte == 0x87)
                 _0x99:
000b5a 91a0 0502 	LDS  R26,_PORT_CZYTNIK
000b5c 38a7      	CPI  R26,LOW(0x87)
000b5d f441      	BRNE _0x9A
                 ; 0000 0534     {
                 ; 0000 0535       komunikat_z_czytnika_kodow("87-2083",rzad);
                +
000b5e e4e1     +LDI R30 , LOW ( 2 * _0x0 + ( 1185 ) )
000b5f e0f5     +LDI R31 , HIGH ( 2 * _0x0 + ( 1185 ) )
                 	__POINTW1FN _0x0,1185
000b60 940e 1826 	CALL SUBOPT_0xE
                 ; 0000 0536       macierz_zaciskow[rzad]=135;
000b62 e8e7      	LDI  R30,LOW(135)
000b63 e0f0      	LDI  R31,HIGH(135)
000b64 93ed      	ST   X+,R30
000b65 93fc      	ST   X,R31
                 ; 0000 0537     }
                 ; 0000 0538 
                 ; 0000 0539 if(PORT_CZYTNIK.byte == 0x88)
                 _0x9A:
000b66 91a0 0502 	LDS  R26,_PORT_CZYTNIK
000b68 38a8      	CPI  R26,LOW(0x88)
000b69 f441      	BRNE _0x9B
                 ; 0000 053A     {
                 ; 0000 053B       komunikat_z_czytnika_kodow("87-2624",rzad);
                +
000b6a e4e9     +LDI R30 , LOW ( 2 * _0x0 + ( 1193 ) )
000b6b e0f5     +LDI R31 , HIGH ( 2 * _0x0 + ( 1193 ) )
                 	__POINTW1FN _0x0,1193
000b6c 940e 1826 	CALL SUBOPT_0xE
                 ; 0000 053C       macierz_zaciskow[rzad]=136;
000b6e e8e8      	LDI  R30,LOW(136)
000b6f e0f0      	LDI  R31,HIGH(136)
000b70 93ed      	ST   X+,R30
000b71 93fc      	ST   X,R31
                 ; 0000 053D     }
                 ; 0000 053E if(PORT_CZYTNIK.byte == 0x89)
                 _0x9B:
000b72 91a0 0502 	LDS  R26,_PORT_CZYTNIK
000b74 38a9      	CPI  R26,LOW(0x89)
000b75 f441      	BRNE _0x9C
                 ; 0000 053F     {
                 ; 0000 0540       komunikat_z_czytnika_kodow("86-1027",rzad);
                +
000b76 e5e1     +LDI R30 , LOW ( 2 * _0x0 + ( 1201 ) )
000b77 e0f5     +LDI R31 , HIGH ( 2 * _0x0 + ( 1201 ) )
                 	__POINTW1FN _0x0,1201
000b78 940e 1826 	CALL SUBOPT_0xE
                 ; 0000 0541       macierz_zaciskow[rzad]=137;
000b7a e8e9      	LDI  R30,LOW(137)
000b7b e0f0      	LDI  R31,HIGH(137)
000b7c 93ed      	ST   X+,R30
000b7d 93fc      	ST   X,R31
                 ; 0000 0542     }
                 ; 0000 0543 if(PORT_CZYTNIK.byte == 0x8A)
                 _0x9C:
000b7e 91a0 0502 	LDS  R26,_PORT_CZYTNIK
000b80 38aa      	CPI  R26,LOW(0x8A)
000b81 f441      	BRNE _0x9D
                 ; 0000 0544     {
                 ; 0000 0545       komunikat_z_czytnika_kodow("86-1669",rzad);
                +
000b82 e5e9     +LDI R30 , LOW ( 2 * _0x0 + ( 1209 ) )
000b83 e0f5     +LDI R31 , HIGH ( 2 * _0x0 + ( 1209 ) )
                 	__POINTW1FN _0x0,1209
000b84 940e 1826 	CALL SUBOPT_0xE
                 ; 0000 0546       macierz_zaciskow[rzad]=138;
000b86 e8ea      	LDI  R30,LOW(138)
000b87 e0f0      	LDI  R31,HIGH(138)
000b88 93ed      	ST   X+,R30
000b89 93fc      	ST   X,R31
                 ; 0000 0547     }
                 ; 0000 0548 if(PORT_CZYTNIK.byte == 0x8B)
                 _0x9D:
000b8a 91a0 0502 	LDS  R26,_PORT_CZYTNIK
000b8c 38ab      	CPI  R26,LOW(0x8B)
000b8d f441      	BRNE _0x9E
                 ; 0000 0549     {
                 ; 0000 054A       komunikat_z_czytnika_kodow("86-2087",rzad);
                +
000b8e e6e1     +LDI R30 , LOW ( 2 * _0x0 + ( 1217 ) )
000b8f e0f5     +LDI R31 , HIGH ( 2 * _0x0 + ( 1217 ) )
                 	__POINTW1FN _0x0,1217
000b90 940e 1826 	CALL SUBOPT_0xE
                 ; 0000 054B       macierz_zaciskow[rzad]=139;
000b92 e8eb      	LDI  R30,LOW(139)
000b93 e0f0      	LDI  R31,HIGH(139)
000b94 93ed      	ST   X+,R30
000b95 93fc      	ST   X,R31
                 ; 0000 054C     }
                 ; 0000 054D if(PORT_CZYTNIK.byte == 0x8C)
                 _0x9E:
000b96 91a0 0502 	LDS  R26,_PORT_CZYTNIK
000b98 38ac      	CPI  R26,LOW(0x8C)
000b99 f441      	BRNE _0x9F
                 ; 0000 054E     {
                 ; 0000 054F       komunikat_z_czytnika_kodow("86-2624",rzad);
                +
000b9a e6e9     +LDI R30 , LOW ( 2 * _0x0 + ( 1225 ) )
000b9b e0f5     +LDI R31 , HIGH ( 2 * _0x0 + ( 1225 ) )
                 	__POINTW1FN _0x0,1225
000b9c 940e 1826 	CALL SUBOPT_0xE
                 ; 0000 0550       macierz_zaciskow[rzad]=140;
000b9e e8ec      	LDI  R30,LOW(140)
000b9f e0f0      	LDI  R31,HIGH(140)
000ba0 93ed      	ST   X+,R30
000ba1 93fc      	ST   X,R31
                 ; 0000 0551     }
                 ; 0000 0552 if(PORT_CZYTNIK.byte == 0x8D)
                 _0x9F:
000ba2 91a0 0502 	LDS  R26,_PORT_CZYTNIK
000ba4 38ad      	CPI  R26,LOW(0x8D)
000ba5 f441      	BRNE _0xA0
                 ; 0000 0553     {
                 ; 0000 0554       komunikat_z_czytnika_kodow("87-1027",rzad);
                +
000ba6 e7e1     +LDI R30 , LOW ( 2 * _0x0 + ( 1233 ) )
000ba7 e0f5     +LDI R31 , HIGH ( 2 * _0x0 + ( 1233 ) )
                 	__POINTW1FN _0x0,1233
000ba8 940e 1826 	CALL SUBOPT_0xE
                 ; 0000 0555       macierz_zaciskow[rzad]=141;
000baa e8ed      	LDI  R30,LOW(141)
000bab e0f0      	LDI  R31,HIGH(141)
000bac 93ed      	ST   X+,R30
000bad 93fc      	ST   X,R31
                 ; 0000 0556     }
                 ; 0000 0557 if(PORT_CZYTNIK.byte == 0x8E)
                 _0xA0:
000bae 91a0 0502 	LDS  R26,_PORT_CZYTNIK
000bb0 38ae      	CPI  R26,LOW(0x8E)
000bb1 f441      	BRNE _0xA1
                 ; 0000 0558     {
                 ; 0000 0559       komunikat_z_czytnika_kodow("87-1669",rzad);
                +
000bb2 e7e9     +LDI R30 , LOW ( 2 * _0x0 + ( 1241 ) )
000bb3 e0f5     +LDI R31 , HIGH ( 2 * _0x0 + ( 1241 ) )
                 	__POINTW1FN _0x0,1241
000bb4 940e 1826 	CALL SUBOPT_0xE
                 ; 0000 055A       macierz_zaciskow[rzad]=142;
000bb6 e8ee      	LDI  R30,LOW(142)
000bb7 e0f0      	LDI  R31,HIGH(142)
000bb8 93ed      	ST   X+,R30
000bb9 93fc      	ST   X,R31
                 ; 0000 055B     }
                 ; 0000 055C if(PORT_CZYTNIK.byte == 0x8F)
                 _0xA1:
000bba 91a0 0502 	LDS  R26,_PORT_CZYTNIK
000bbc 38af      	CPI  R26,LOW(0x8F)
000bbd f441      	BRNE _0xA2
                 ; 0000 055D     {
                 ; 0000 055E       komunikat_z_czytnika_kodow("87-2087",rzad);
                +
000bbe e8e1     +LDI R30 , LOW ( 2 * _0x0 + ( 1249 ) )
000bbf e0f5     +LDI R31 , HIGH ( 2 * _0x0 + ( 1249 ) )
                 	__POINTW1FN _0x0,1249
000bc0 940e 1826 	CALL SUBOPT_0xE
                 ; 0000 055F       macierz_zaciskow[rzad]=143;
000bc2 e8ef      	LDI  R30,LOW(143)
000bc3 e0f0      	LDI  R31,HIGH(143)
000bc4 93ed      	ST   X+,R30
000bc5 93fc      	ST   X,R31
                 ; 0000 0560     }
                 ; 0000 0561 if(PORT_CZYTNIK.byte == 0x90)
                 _0xA2:
000bc6 91a0 0502 	LDS  R26,_PORT_CZYTNIK
000bc8 39a0      	CPI  R26,LOW(0x90)
000bc9 f441      	BRNE _0xA3
                 ; 0000 0562     {
                 ; 0000 0563       komunikat_z_czytnika_kodow("87-2585",rzad);
                +
000bca e8e9     +LDI R30 , LOW ( 2 * _0x0 + ( 1257 ) )
000bcb e0f5     +LDI R31 , HIGH ( 2 * _0x0 + ( 1257 ) )
                 	__POINTW1FN _0x0,1257
000bcc 940e 1826 	CALL SUBOPT_0xE
                 ; 0000 0564       macierz_zaciskow[rzad]=144;
000bce e9e0      	LDI  R30,LOW(144)
000bcf e0f0      	LDI  R31,HIGH(144)
000bd0 93ed      	ST   X+,R30
000bd1 93fc      	ST   X,R31
                 ; 0000 0565     }
                 ; 0000 0566 }
                 _0xA3:
000bd2 9508      	RET
                 ;
                 ;
                 ;void wybor_linijek_sterownikow()
                 ; 0000 056A {
                 _wybor_linijek_sterownikow:
                 ; 0000 056B //zaczynam od tego
                 ; 0000 056C //86-1349
                 ; 0000 056D 
                 ; 0000 056E switch(macierz_zaciskow[1])
                +
000bd3 91e0 0509+LDS R30 , _macierz_zaciskow + ( 2 )
000bd5 91f0 050a+LDS R31 , _macierz_zaciskow + ( 2 ) + 1
                 	__GETW1MN _macierz_zaciskow,2
                 ; 0000 056F     {
                 ; 0000 0570     case 0:
000bd7 9730      	SBIW R30,0
000bd8 f439      	BRNE _0xA7
                 ; 0000 0571 
                 ; 0000 0572             komunikat_na_panel("                                                ",adr1,adr2);
000bd9 940e 17ed 	CALL SUBOPT_0x7
000bdb 940e 1801 	CALL SUBOPT_0xA
                 ; 0000 0573             komunikat_na_panel("Nie wczytano zacisku",adr1,adr2);
000bdd 940e 1834 	CALL SUBOPT_0xF
                 ; 0000 0574 
                 ; 0000 0575     break;
000bdf c01c      	RJMP _0xA6
                 ; 0000 0576 
                 ; 0000 0577 
                 ; 0000 0578     case 34:
                 _0xA7:
000be0 32e2      	CPI  R30,LOW(0x22)
000be1 e0a0      	LDI  R26,HIGH(0x22)
000be2 07fa      	CPC  R31,R26
000be3 f4c1      	BRNE _0xA6
                 ; 0000 0579 
                 ; 0000 057A             a[0] = 0x5A;
000be4 e5ea      	LDI  R30,LOW(90)
000be5 e0f0      	LDI  R31,HIGH(90)
000be6 93e0 056b 	STS  _a,R30
000be8 93f0 056c 	STS  _a+1,R31
                 ; 0000 057B             a[1] = 0;
                +
000bea e6ed     +LDI R30 , LOW ( _a + ( 2 ) )
000beb e0f5     +LDI R31 , HIGH ( _a + ( 2 ) )
                 	__POINTW1MN _a,2
000bec e0a0      	LDI  R26,LOW(0)
000bed e0b0      	LDI  R27,HIGH(0)
000bee 83a0      	STD  Z+0,R26
000bef 83b1      	STD  Z+1,R27
                 ; 0000 057C             a[2] = 0x5B;
                +
000bf0 e6ef     +LDI R30 , LOW ( _a + ( 4 ) )
000bf1 e0f5     +LDI R31 , HIGH ( _a + ( 4 ) )
                 	__POINTW1MN _a,4
000bf2 e5ab      	LDI  R26,LOW(91)
000bf3 e0b0      	LDI  R27,HIGH(91)
000bf4 83a0      	STD  Z+0,R26
000bf5 83b1      	STD  Z+1,R27
                 ; 0000 057D             a[3] = 0;;
                +
000bf6 e7e1     +LDI R30 , LOW ( _a + ( 6 ) )
000bf7 e0f5     +LDI R31 , HIGH ( _a + ( 6 ) )
                 	__POINTW1MN _a,6
000bf8 e0a0      	LDI  R26,LOW(0)
000bf9 e0b0      	LDI  R27,HIGH(0)
000bfa 83a0      	STD  Z+0,R26
000bfb 83b1      	STD  Z+1,R27
                 ; 0000 057E 
                 ; 0000 057F     break;
                 ; 0000 0580 
                 ; 0000 0581 
                 ; 0000 0582 
                 ; 0000 0583 
                 ; 0000 0584     }
                 _0xA6:
                 ; 0000 0585 
                 ; 0000 0586 
                 ; 0000 0587 
                 ; 0000 0588 switch(macierz_zaciskow[2])
                +
000bfc 91e0 050b+LDS R30 , _macierz_zaciskow + ( 4 )
000bfe 91f0 050c+LDS R31 , _macierz_zaciskow + ( 4 ) + 1
                 	__GETW1MN _macierz_zaciskow,4
                 ; 0000 0589     {
                 ; 0000 058A     case 0:
000c00 9730      	SBIW R30,0
000c01 f431      	BRNE _0xAB
                 ; 0000 058B 
                 ; 0000 058C             komunikat_na_panel("                                                ",adr3,adr4);
000c02 940e 17ed 	CALL SUBOPT_0x7
000c04 940e 1839 	CALL SUBOPT_0x10
                 ; 0000 058D             komunikat_na_panel("Nie wczytano zacisku",adr1,adr2);
000c06 940e 1834 	CALL SUBOPT_0xF
                 ; 0000 058E 
                 ; 0000 058F     break;
                 ; 0000 0590     }
                 _0xAB:
                 ; 0000 0591 
                 ; 0000 0592 }
000c08 9508      	RET
                 ;
                 ;void wypozycjonuj_napedy_minimalistyczna()
                 ; 0000 0595 {
                 _wypozycjonuj_napedy_minimalistyczna:
                 ; 0000 0596 PORTD.2 = 1;   //setup wspolny
000c09 9a92      	SBI  0x12,2
                 ; 0000 0597 delay_ms(1000);
000c0a 940e 1847 	CALL SUBOPT_0x11
                 ; 0000 0598 
                 ; 0000 0599 while(sprawdz_pin3(PORTJJ,0x79) == 1 | sprawdz_pin3(PORTLL,0x71) == 1 |
                 _0xAF:
                 ; 0000 059A       sprawdz_pin3(PORTKK,0x75) == 1 | sprawdz_pin7(PORTKK,0x75) == 1)
000c0c 940e 17f7 	CALL SUBOPT_0x9
000c0e 940e 184d 	CALL SUBOPT_0x12
000c10 93ef      	PUSH R30
000c11 940e 1853 	CALL SUBOPT_0x13
000c13 940e 184d 	CALL SUBOPT_0x12
000c15 91af      	POP  R26
000c16 2bea      	OR   R30,R26
000c17 93ef      	PUSH R30
000c18 940e 185d 	CALL SUBOPT_0x14
000c1a 940e 184d 	CALL SUBOPT_0x12
000c1c 91af      	POP  R26
000c1d 2bea      	OR   R30,R26
000c1e 93ef      	PUSH R30
000c1f 940e 185d 	CALL SUBOPT_0x14
000c21 940e 1867 	CALL SUBOPT_0x15
000c23 91af      	POP  R26
000c24 2bea      	OR   R30,R26
000c25 f411      	BRNE PC+3
000c26 940c 0c7b 	JMP _0xB1
                 ; 0000 059B       {
                 ; 0000 059C       komunikat_na_panel("                                                ",adr1,adr2);
000c28 940e 17ed 	CALL SUBOPT_0x7
000c2a 940e 1801 	CALL SUBOPT_0xA
                 ; 0000 059D       komunikat_na_panel("Pozycjonuje uklady liniowe XYZ",adr1,adr2);
                +
000c2c eae6     +LDI R30 , LOW ( 2 * _0x0 + ( 1286 ) )
000c2d e0f5     +LDI R31 , HIGH ( 2 * _0x0 + ( 1286 ) )
                 	__POINTW1FN _0x0,1286
000c2e 940e 186d 	CALL SUBOPT_0x16
                 ; 0000 059E       komunikat_na_panel("                                                ",adr3,adr4);
000c30 940e 17ed 	CALL SUBOPT_0x7
000c32 940e 1839 	CALL SUBOPT_0x10
                 ; 0000 059F       komunikat_na_panel("Pozycjonuje uklady liniowe XYZ",adr3,adr4);
                +
000c34 eae6     +LDI R30 , LOW ( 2 * _0x0 + ( 1286 ) )
000c35 e0f5     +LDI R31 , HIGH ( 2 * _0x0 + ( 1286 ) )
                 	__POINTW1FN _0x0,1286
000c36 940e 1870 	CALL SUBOPT_0x17
                 ; 0000 05A0       delay_ms(1000);
000c38 940e 1847 	CALL SUBOPT_0x11
                 ; 0000 05A1 
                 ; 0000 05A2       if(sprawdz_pin3(PORTJJ,0x79) == 0)
000c3a 940e 17f7 	CALL SUBOPT_0x9
000c3c 940e 03ab 	CALL _sprawdz_pin3
000c3e 30e0      	CPI  R30,0
000c3f f451      	BRNE _0xB2
                 ; 0000 05A3             {
                 ; 0000 05A4             komunikat_na_panel("                                                ",adr1,adr2);
000c40 940e 17ed 	CALL SUBOPT_0x7
000c42 940e 1801 	CALL SUBOPT_0xA
                 ; 0000 05A5             komunikat_na_panel("Sterownik 1 - wypozycjonowalem",adr1,adr2);
                +
000c44 ece5     +LDI R30 , LOW ( 2 * _0x0 + ( 1317 ) )
000c45 e0f5     +LDI R31 , HIGH ( 2 * _0x0 + ( 1317 ) )
                 	__POINTW1FN _0x0,1317
000c46 940e 186d 	CALL SUBOPT_0x16
                 ; 0000 05A6             delay_ms(1000);
000c48 940e 1847 	CALL SUBOPT_0x11
                 ; 0000 05A7             }
                 ; 0000 05A8       if(sprawdz_pin3(PORTLL,0x71) == 0)
                 _0xB2:
000c4a 940e 1853 	CALL SUBOPT_0x13
000c4c 940e 03ab 	CALL _sprawdz_pin3
000c4e 30e0      	CPI  R30,0
000c4f f451      	BRNE _0xB3
                 ; 0000 05A9             {
                 ; 0000 05AA             komunikat_na_panel("                                                ",adr3,adr4);
000c50 940e 17ed 	CALL SUBOPT_0x7
000c52 940e 1839 	CALL SUBOPT_0x10
                 ; 0000 05AB             komunikat_na_panel("Sterownik 2 - wypozycjonowalem",adr3,adr4);
                +
000c54 eee4     +LDI R30 , LOW ( 2 * _0x0 + ( 1348 ) )
000c55 e0f5     +LDI R31 , HIGH ( 2 * _0x0 + ( 1348 ) )
                 	__POINTW1FN _0x0,1348
000c56 940e 1870 	CALL SUBOPT_0x17
                 ; 0000 05AC             delay_ms(1000);
000c58 940e 1847 	CALL SUBOPT_0x11
                 ; 0000 05AD             }
                 ; 0000 05AE       if(sprawdz_pin3(PORTKK,0x75) == 0)
                 _0xB3:
000c5a 940e 185d 	CALL SUBOPT_0x14
000c5c 940e 03ab 	CALL _sprawdz_pin3
000c5e 30e0      	CPI  R30,0
000c5f f451      	BRNE _0xB4
                 ; 0000 05AF             {
                 ; 0000 05B0             komunikat_na_panel("                                                ",adr1,adr2);
000c60 940e 17ed 	CALL SUBOPT_0x7
000c62 940e 1801 	CALL SUBOPT_0xA
                 ; 0000 05B1             komunikat_na_panel("Sterownik 3 - wypozycjonowalem",adr1,adr2);
                +
000c64 e0e3     +LDI R30 , LOW ( 2 * _0x0 + ( 1379 ) )
000c65 e0f6     +LDI R31 , HIGH ( 2 * _0x0 + ( 1379 ) )
                 	__POINTW1FN _0x0,1379
000c66 940e 186d 	CALL SUBOPT_0x16
                 ; 0000 05B2             delay_ms(1000);
000c68 940e 1847 	CALL SUBOPT_0x11
                 ; 0000 05B3             }
                 ; 0000 05B4       if(sprawdz_pin7(PORTKK,0x75) == 0)
                 _0xB4:
000c6a 940e 185d 	CALL SUBOPT_0x14
000c6c 940e 03c2 	CALL _sprawdz_pin7
000c6e 30e0      	CPI  R30,0
000c6f f451      	BRNE _0xB5
                 ; 0000 05B5             {
                 ; 0000 05B6             komunikat_na_panel("                                                ",adr3,adr4);
000c70 940e 17ed 	CALL SUBOPT_0x7
000c72 940e 1839 	CALL SUBOPT_0x10
                 ; 0000 05B7             komunikat_na_panel("Sterownik 4 - wypozycjonowalem",adr1,adr2);
                +
000c74 e2e2     +LDI R30 , LOW ( 2 * _0x0 + ( 1410 ) )
000c75 e0f6     +LDI R31 , HIGH ( 2 * _0x0 + ( 1410 ) )
                 	__POINTW1FN _0x0,1410
000c76 940e 186d 	CALL SUBOPT_0x16
                 ; 0000 05B8             delay_ms(1000);
000c78 940e 1847 	CALL SUBOPT_0x11
                 ; 0000 05B9             }
                 ; 0000 05BA 
                 ; 0000 05BB 
                 ; 0000 05BC       }
                 _0xB5:
000c7a cf91      	RJMP _0xAF
                 _0xB1:
                 ; 0000 05BD 
                 ; 0000 05BE komunikat_na_panel("                                                ",adr1,adr2);
000c7b 940e 17ed 	CALL SUBOPT_0x7
000c7d 940e 1801 	CALL SUBOPT_0xA
                 ; 0000 05BF komunikat_na_panel("Wypozycjonowano uklady liniowe XYZ",adr1,adr2);
                +
000c7f e4e1     +LDI R30 , LOW ( 2 * _0x0 + ( 1441 ) )
000c80 e0f6     +LDI R31 , HIGH ( 2 * _0x0 + ( 1441 ) )
                 	__POINTW1FN _0x0,1441
000c81 940e 186d 	CALL SUBOPT_0x16
                 ; 0000 05C0 komunikat_na_panel("                                                ",adr3,adr4);
000c83 940e 17ed 	CALL SUBOPT_0x7
000c85 940e 1839 	CALL SUBOPT_0x10
                 ; 0000 05C1 komunikat_na_panel("Wypozycjonowano uklady liniowe XYZ",adr3,adr4);
                +
000c87 e4e1     +LDI R30 , LOW ( 2 * _0x0 + ( 1441 ) )
000c88 e0f6     +LDI R31 , HIGH ( 2 * _0x0 + ( 1441 ) )
                 	__POINTW1FN _0x0,1441
000c89 940e 1870 	CALL SUBOPT_0x17
                 ; 0000 05C2 
                 ; 0000 05C3 PORTD.2 = 0;   //setup wspolny
000c8b 9892      	CBI  0x12,2
                 ; 0000 05C4 delay_ms(1000);
000c8c 940e 1847 	CALL SUBOPT_0x11
                 ; 0000 05C5 
                 ; 0000 05C6 }
000c8e 9508      	RET
                 ;
                 ;int wypozycjonuj_LEFS32_300_1(int step)
                 ; 0000 05C9 {
                 ; 0000 05CA //PORTF.0   IN0  STEROWNIK3
                 ; 0000 05CB //PORTF.1   IN1  STEROWNIK3
                 ; 0000 05CC //PORTF.2   IN2  STEROWNIK3
                 ; 0000 05CD //PORTF.3   IN3  STEROWNIK3
                 ; 0000 05CE 
                 ; 0000 05CF //PORTF.4   SETUP  STEROWNIK3
                 ; 0000 05D0 //PORTF.5   DRIVE  STEROWNIK3
                 ; 0000 05D1 
                 ; 0000 05D2 //sprawdz_pin0(PORTKK,0x75)  B7 BUSY    LECCP STEROWNIK3
                 ; 0000 05D3 //sprawdz_pin3(PORTKK,0x75)  B10 INP    LECP6 STEROWNIK3
                 ; 0000 05D4 
                 ; 0000 05D5 
                 ; 0000 05D6 if(step == 0)
                 ;	step -> Y+0
                 ; 0000 05D7 {
                 ; 0000 05D8 switch(pozycjonowanie_LEFS32_300_1)
                 ; 0000 05D9     {
                 ; 0000 05DA     case 0:
                 ; 0000 05DB             PORT_F.bits.b4 = 1;      // ////A9  SETUP
                 ; 0000 05DC             PORTF = PORT_F.byte;
                 ; 0000 05DD 
                 ; 0000 05DE             if(sprawdz_pin0(PORTKK,0x75) == 1)  //BUSY
                 ; 0000 05DF                 {
                 ; 0000 05E0                 }
                 ; 0000 05E1             else
                 ; 0000 05E2                 {
                 ; 0000 05E3                 pozycjonowanie_LEFS32_300_1 = 1;
                 ; 0000 05E4                 }
                 ; 0000 05E5 
                 ; 0000 05E6     break;
                 ; 0000 05E7 
                 ; 0000 05E8     case 1:
                 ; 0000 05E9             if(sprawdz_pin0(PORTKK,0x75) == 0)
                 ; 0000 05EA                 {
                 ; 0000 05EB                 }
                 ; 0000 05EC             else
                 ; 0000 05ED                 {
                 ; 0000 05EE                 pozycjonowanie_LEFS32_300_1 = 2;
                 ; 0000 05EF                 }
                 ; 0000 05F0             if(sprawdz_pin7(PORTMM,0x77) == 1)     //alarm
                 ; 0000 05F1                    {
                 ; 0000 05F2                    komunikat_na_panel("                                                ",adr1,adr2);
                 ; 0000 05F3                    komunikat_na_panel("Przeciazenia LEFS32_1",adr1,adr2);
                 ; 0000 05F4                    }
                 ; 0000 05F5 
                 ; 0000 05F6     break;
                 ; 0000 05F7 
                 ; 0000 05F8     case 2:
                 ; 0000 05F9 
                 ; 0000 05FA             if(sprawdz_pin3(PORTKK,0x75) == 1)
                 ; 0000 05FB                 {
                 ; 0000 05FC                 }
                 ; 0000 05FD             else
                 ; 0000 05FE                 {
                 ; 0000 05FF                 pozycjonowanie_LEFS32_300_1 = 3;
                 ; 0000 0600                 }
                 ; 0000 0601              if(sprawdz_pin7(PORTMM,0x77) == 1)     //alarm
                 ; 0000 0602                    {
                 ; 0000 0603                    komunikat_na_panel("                                                ",adr1,adr2);
                 ; 0000 0604                    komunikat_na_panel("Przeciazenia LEFS32_1",adr1,adr2);
                 ; 0000 0605                    }
                 ; 0000 0606 
                 ; 0000 0607     break;
                 ; 0000 0608 
                 ; 0000 0609     case 3:
                 ; 0000 060A 
                 ; 0000 060B             if(sprawdz_pin3(PORTKK,0x75) == 0)
                 ; 0000 060C                 {
                 ; 0000 060D                 PORT_F.bits.b4 = 0;      // ////A9  SETUP
                 ; 0000 060E                 PORTF = PORT_F.byte;
                 ; 0000 060F                 pozycjonowanie_LEFS32_300_1 = 4;
                 ; 0000 0610 
                 ; 0000 0611                 }
                 ; 0000 0612 
                 ; 0000 0613     break;
                 ; 0000 0614 
                 ; 0000 0615     }
                 ; 0000 0616 }
                 ; 0000 0617 
                 ; 0000 0618 
                 ; 0000 0619 
                 ; 0000 061A if(step == 1)
                 ; 0000 061B {
                 ; 0000 061C while(cykl < 5)
                 ; 0000 061D {
                 ; 0000 061E     switch(cykl)
                 ; 0000 061F         {
                 ; 0000 0620         case 0:
                 ; 0000 0621 
                 ; 0000 0622             PORTE.7 = 1;  ////////////////////////////////////////////////////////////////////czasowo aby pokazac
                 ; 0000 0623             sek2 = 0;
                 ; 0000 0624             PORT_F.bits.b0 = 1;
                 ; 0000 0625             PORT_F.bits.b1 = 1;         //STEP 0
                 ; 0000 0626             PORT_F.bits.b2 = 1;
                 ; 0000 0627             PORT_F.bits.b3 = 1;
                 ; 0000 0628             PORTF = PORT_F.byte;
                 ; 0000 0629             cykl = 1;
                 ; 0000 062A 
                 ; 0000 062B 
                 ; 0000 062C         break;
                 ; 0000 062D 
                 ; 0000 062E         case 1:
                 ; 0000 062F 
                 ; 0000 0630             if(sek2 > 1)
                 ; 0000 0631                 {
                 ; 0000 0632                 PORT_F.bits.b5 = 1;
                 ; 0000 0633                 PORTF = PORT_F.byte;
                 ; 0000 0634                 cykl = 2;
                 ; 0000 0635                 delay_ms(1000);
                 ; 0000 0636                 }
                 ; 0000 0637         break;
                 ; 0000 0638 
                 ; 0000 0639 
                 ; 0000 063A         case 2:
                 ; 0000 063B 
                 ; 0000 063C                if(sprawdz_pin0(PORTKK,0x75) == 0)
                 ; 0000 063D                   {
                 ; 0000 063E                   PORT_F.bits.b5 = 0;
                 ; 0000 063F                   PORTF = PORT_F.byte;       //DRIVE koniec
                 ; 0000 0640 
                 ; 0000 0641                   PORT_F.bits.b0 = 0;
                 ; 0000 0642                   PORT_F.bits.b1 = 0;         //STEP 1 koniec
                 ; 0000 0643                   PORT_F.bits.b2 = 0;
                 ; 0000 0644                   PORT_F.bits.b3 = 0;
                 ; 0000 0645                   PORTF = PORT_F.byte;
                 ; 0000 0646 
                 ; 0000 0647                   delay_ms(1000);
                 ; 0000 0648                   cykl = 3;
                 ; 0000 0649                   }
                 ; 0000 064A 
                 ; 0000 064B         break;
                 ; 0000 064C 
                 ; 0000 064D         case 3:
                 ; 0000 064E 
                 ; 0000 064F                if(sprawdz_pin3(PORTKK,0x75) == 0)
                 ; 0000 0650                   {
                 ; 0000 0651                   sek2 = 0;
                 ; 0000 0652                   cykl = 4;
                 ; 0000 0653                   }
                 ; 0000 0654               if(sprawdz_pin7(PORTMM,0x77) == 1)     //alarm
                 ; 0000 0655                    {
                 ; 0000 0656                    komunikat_na_panel("                                                ",adr1,adr2);
                 ; 0000 0657                    komunikat_na_panel("Przeciazenia LEFS32_1",adr1,adr2);
                 ; 0000 0658                    }
                 ; 0000 0659 
                 ; 0000 065A         break;
                 ; 0000 065B 
                 ; 0000 065C 
                 ; 0000 065D         case 4:
                 ; 0000 065E 
                 ; 0000 065F             if(sek2 > 50)
                 ; 0000 0660                 {
                 ; 0000 0661                 cykl = 5;
                 ; 0000 0662                 }
                 ; 0000 0663         break;
                 ; 0000 0664 
                 ; 0000 0665         }
                 ; 0000 0666 }
                 ; 0000 0667 
                 ; 0000 0668 cykl = 0;
                 ; 0000 0669 }
                 ; 0000 066A 
                 ; 0000 066B 
                 ; 0000 066C 
                 ; 0000 066D 
                 ; 0000 066E 
                 ; 0000 066F if(step == 0 & pozycjonowanie_LEFS32_300_1 == 4)
                 ; 0000 0670     {
                 ; 0000 0671     pozycjonowanie_LEFS32_300_1 = 0;
                 ; 0000 0672     cykl = 0;
                 ; 0000 0673     return 1;
                 ; 0000 0674     }
                 ; 0000 0675 if(step == 1)
                 ; 0000 0676     return 2;
                 ; 0000 0677 
                 ; 0000 0678 
                 ; 0000 0679 
                 ; 0000 067A }
                 ;
                 ;
                 ;int wypozycjonuj_LEFS32_300_2(int step)
                 ; 0000 067E {
                 ; 0000 067F //PORTB.0   IN0  STEROWNIK4
                 ; 0000 0680 //PORTB.1   IN1  STEROWNIK4
                 ; 0000 0681 //PORTB.2   IN2  STEROWNIK4
                 ; 0000 0682 //PORTB.3   IN3  STEROWNIK4
                 ; 0000 0683 
                 ; 0000 0684 //PORTB.4   SETUP  STEROWNIK4
                 ; 0000 0685 //PORTB.5   DRIVE  STEROWNIK4
                 ; 0000 0686 
                 ; 0000 0687 //sprawdz_pin4(PORTKK,0x75)  B7 BUSY    LECCP STEROWNIK4
                 ; 0000 0688 //sprawdz_pin7(PORTKK,0x75)  B10 INP    LECP6 STEROWNIK4
                 ; 0000 0689 
                 ; 0000 068A 
                 ; 0000 068B if(step == 0)
                 ;	step -> Y+0
                 ; 0000 068C {
                 ; 0000 068D switch(pozycjonowanie_LEFS32_300_2)
                 ; 0000 068E     {
                 ; 0000 068F     case 0:
                 ; 0000 0690             PORTB.4 = 1;      // ////A9  SETUP
                 ; 0000 0691 
                 ; 0000 0692             if(sprawdz_pin4(PORTKK,0x75) == 1)  //BUSY
                 ; 0000 0693                 {
                 ; 0000 0694                 }
                 ; 0000 0695             else
                 ; 0000 0696                 pozycjonowanie_LEFS32_300_2 = 1;
                 ; 0000 0697 
                 ; 0000 0698     break;
                 ; 0000 0699 
                 ; 0000 069A     case 1:
                 ; 0000 069B             if(sprawdz_pin4(PORTKK,0x75) == 0)
                 ; 0000 069C                 {
                 ; 0000 069D                 }
                 ; 0000 069E             else
                 ; 0000 069F                 pozycjonowanie_LEFS32_300_2 = 2;
                 ; 0000 06A0 
                 ; 0000 06A1              if(sprawdz_pin6(PORTMM,0x77) == 1)     //alarm
                 ; 0000 06A2                    {
                 ; 0000 06A3                    komunikat_na_panel("                                                ",adr1,adr2);
                 ; 0000 06A4                    komunikat_na_panel("Przeciazenia LEFS32_2",adr3,adr4);
                 ; 0000 06A5                    }
                 ; 0000 06A6 
                 ; 0000 06A7     break;
                 ; 0000 06A8 
                 ; 0000 06A9     case 2:
                 ; 0000 06AA 
                 ; 0000 06AB             if(sprawdz_pin7(PORTKK,0x75) == 1)
                 ; 0000 06AC                 {
                 ; 0000 06AD                 }
                 ; 0000 06AE             else
                 ; 0000 06AF                 pozycjonowanie_LEFS32_300_2 = 3;
                 ; 0000 06B0 
                 ; 0000 06B1             if(sprawdz_pin6(PORTMM,0x77) == 1)     //alarm
                 ; 0000 06B2                    {
                 ; 0000 06B3                    komunikat_na_panel("                                                ",adr1,adr2);
                 ; 0000 06B4                    komunikat_na_panel("Przeciazenia LEFS32_2",adr3,adr4);
                 ; 0000 06B5                    }
                 ; 0000 06B6 
                 ; 0000 06B7     break;
                 ; 0000 06B8 
                 ; 0000 06B9     case 3:
                 ; 0000 06BA 
                 ; 0000 06BB             if(sprawdz_pin7(PORTKK,0x75) == 0)
                 ; 0000 06BC                 {
                 ; 0000 06BD                 PORTB.4 = 0;      // ////A9  SETUP
                 ; 0000 06BE 
                 ; 0000 06BF                 pozycjonowanie_LEFS32_300_2 = 4;
                 ; 0000 06C0                 }
                 ; 0000 06C1 
                 ; 0000 06C2     break;
                 ; 0000 06C3 
                 ; 0000 06C4     }
                 ; 0000 06C5 }
                 ; 0000 06C6 
                 ; 0000 06C7 if(step == 1)
                 ; 0000 06C8 {
                 ; 0000 06C9 while(cykl < 5)
                 ; 0000 06CA {
                 ; 0000 06CB     switch(cykl)
                 ; 0000 06CC         {
                 ; 0000 06CD         case 0:
                 ; 0000 06CE 
                 ; 0000 06CF             sek4 = 0;
                 ; 0000 06D0             PORTB.0 = 1;    //STEP 0
                 ; 0000 06D1             PORTB.1 = 1;
                 ; 0000 06D2             PORTB.2 = 1;
                 ; 0000 06D3             PORTB.3 = 1;
                 ; 0000 06D4 
                 ; 0000 06D5             cykl = 1;
                 ; 0000 06D6 
                 ; 0000 06D7 
                 ; 0000 06D8         break;
                 ; 0000 06D9 
                 ; 0000 06DA         case 1:
                 ; 0000 06DB 
                 ; 0000 06DC             if(sek4 > 1)
                 ; 0000 06DD                 {
                 ; 0000 06DE                 PORTB.5 = 1;
                 ; 0000 06DF                 cykl = 2;
                 ; 0000 06E0                 delay_ms(1000);
                 ; 0000 06E1                 }
                 ; 0000 06E2         break;
                 ; 0000 06E3 
                 ; 0000 06E4 
                 ; 0000 06E5         case 2:
                 ; 0000 06E6 
                 ; 0000 06E7                if(sprawdz_pin4(PORTKK,0x75) == 0)
                 ; 0000 06E8                   {
                 ; 0000 06E9                   PORTB.5 = 0;
                 ; 0000 06EA                       //DRIVE koniec
                 ; 0000 06EB 
                 ; 0000 06EC                   PORTB.0 = 0;    //STEP 0
                 ; 0000 06ED                   PORTB.1 = 0;
                 ; 0000 06EE                   PORTB.2 = 0;
                 ; 0000 06EF                   PORTB.3 = 0;
                 ; 0000 06F0 
                 ; 0000 06F1 
                 ; 0000 06F2                   delay_ms(1000);
                 ; 0000 06F3                   cykl = 3;
                 ; 0000 06F4                   }
                 ; 0000 06F5 
                 ; 0000 06F6         break;
                 ; 0000 06F7 
                 ; 0000 06F8         case 3:
                 ; 0000 06F9 
                 ; 0000 06FA                if(sprawdz_pin7(PORTKK,0x75) == 0)
                 ; 0000 06FB                   {
                 ; 0000 06FC                   sek4 = 0;
                 ; 0000 06FD                   cykl = 4;
                 ; 0000 06FE                   }
                 ; 0000 06FF                if(sprawdz_pin6(PORTMM,0x77) == 1)     //alarm
                 ; 0000 0700                    {
                 ; 0000 0701                    komunikat_na_panel("                                                ",adr1,adr2);
                 ; 0000 0702                    komunikat_na_panel("Przeciazenia LEFS32_2",adr3,adr4);
                 ; 0000 0703                    }
                 ; 0000 0704 
                 ; 0000 0705 
                 ; 0000 0706         break;
                 ; 0000 0707 
                 ; 0000 0708 
                 ; 0000 0709         case 4:
                 ; 0000 070A 
                 ; 0000 070B             if(sek4 > 50)
                 ; 0000 070C                 cykl = 5;
                 ; 0000 070D         break;
                 ; 0000 070E 
                 ; 0000 070F         }
                 ; 0000 0710 }
                 ; 0000 0711 
                 ; 0000 0712 cykl = 0;
                 ; 0000 0713 }
                 ; 0000 0714 
                 ; 0000 0715 if(step == 0 & pozycjonowanie_LEFS32_300_2 == 4)
                 ; 0000 0716     {
                 ; 0000 0717     pozycjonowanie_LEFS32_300_2 = 0;
                 ; 0000 0718     cykl = 0;
                 ; 0000 0719     return 1;
                 ; 0000 071A     }
                 ; 0000 071B if(step == 1)
                 ; 0000 071C     return 2;
                 ; 0000 071D 
                 ; 0000 071E }
                 ;
                 ;
                 ;
                 ;
                 ;
                 ;
                 ;int wypozycjonuj_LEFS40_1200_2_i_300_2()
                 ; 0000 0726 {
                 ; 0000 0727 //PORTC.0   IN0  STEROWNIK2
                 ; 0000 0728 //PORTC.1   IN1  STEROWNIK2
                 ; 0000 0729 //PORTC.2   IN2  STEROWNIK2
                 ; 0000 072A //PORTC.3   IN3  STEROWNIK2
                 ; 0000 072B //PORTC.4   IN4  STEROWNIK2
                 ; 0000 072C //PORTC.5   IN5  STEROWNIK2
                 ; 0000 072D //PORTC.6   IN6  STEROWNIK2
                 ; 0000 072E //PORTC.7   IN7  STEROWNIK2
                 ; 0000 072F 
                 ; 0000 0730 //PORTD.5  SETUP   STEROWNIK2
                 ; 0000 0731 //PORTD.6  DRIVE   STEROWNIK2
                 ; 0000 0732 
                 ; 0000 0733 //sprawdz_pin0(PORTLL,0x71)  BUSY   STEROWNIK2
                 ; 0000 0734 //sprawdz_pin3(PORTLL,0x71)  INP    STEROWNIK2
                 ; 0000 0735 
                 ; 0000 0736 PORTD.5 = 1;    //SETUP
                 ; 0000 0737 
                 ; 0000 0738 delay_ms(50);
                 ; 0000 0739 
                 ; 0000 073A while(sprawdz_pin0(PORTLL,0x71) == 1)  //kraze tu poki nie wywali busy
                 ; 0000 073B         {
                 ; 0000 073C 
                 ; 0000 073D                    if(sprawdz_pin5(PORTLL,0x71) == 1)     //alarm
                 ; 0000 073E                    {
                 ; 0000 073F                    komunikat_na_panel("                                                ",adr1,adr2);
                 ; 0000 0740                    komunikat_na_panel("Przeciazenia LEFS_XY_2",adr3,adr4);
                 ; 0000 0741                    }
                 ; 0000 0742 
                 ; 0000 0743         }
                 ; 0000 0744 
                 ; 0000 0745 delay_ms(50);
                 ; 0000 0746 
                 ; 0000 0747 while(sprawdz_pin0(PORTLL,0x71) == 0)  //wywala busy
                 ; 0000 0748         {
                 ; 0000 0749 
                 ; 0000 074A                    if(sprawdz_pin5(PORTLL,0x71) == 1)     //alarm
                 ; 0000 074B                    {
                 ; 0000 074C                    komunikat_na_panel("                                                ",adr1,adr2);
                 ; 0000 074D                    komunikat_na_panel("Przeciazenia LEFS_XY_2",adr3,adr4);
                 ; 0000 074E                    }
                 ; 0000 074F         }
                 ; 0000 0750 
                 ; 0000 0751 delay_ms(50);
                 ; 0000 0752 
                 ; 0000 0753 while(sprawdz_pin3(PORTLL,0x71) == 1)  //kraze tu dopoki nie wywali INP
                 ; 0000 0754         {
                 ; 0000 0755         }
                 ; 0000 0756 
                 ; 0000 0757 delay_ms(50);
                 ; 0000 0758 
                 ; 0000 0759 if(sprawdz_pin3(PORTLL,0x71) == 0)  //wywala INP
                 ; 0000 075A         {
                 ; 0000 075B         PORTD.5 = 0;
                 ; 0000 075C         putchar(90);  //5A
                 ; 0000 075D         putchar(165); //A5
                 ; 0000 075E         putchar(3);//03  //znak dzwiekowy ze jestem
                 ; 0000 075F         putchar(128);  //80
                 ; 0000 0760         putchar(2);    //02
                 ; 0000 0761         putchar(16);   //10
                 ; 0000 0762         }
                 ; 0000 0763 else
                 ; 0000 0764     {
                 ; 0000 0765         putchar(90);  //5A
                 ; 0000 0766         putchar(165); //A5
                 ; 0000 0767         putchar(3);//03  //znak dzwiekowy ze jestem
                 ; 0000 0768         putchar(128);  //80
                 ; 0000 0769         putchar(2);    //02
                 ; 0000 076A         putchar(16);   //10
                 ; 0000 076B 
                 ; 0000 076C         delay_ms(1000);     //wywalenie bledu
                 ; 0000 076D         delay_ms(1000);
                 ; 0000 076E 
                 ; 0000 076F         putchar(90);  //5A
                 ; 0000 0770         putchar(165); //A5
                 ; 0000 0771         putchar(3);//03  //znak dzwiekowy ze jestem
                 ; 0000 0772         putchar(128);  //80
                 ; 0000 0773         putchar(2);    //02
                 ; 0000 0774         putchar(16);   //10
                 ; 0000 0775 
                 ; 0000 0776     }
                 ; 0000 0777 
                 ; 0000 0778 delay_ms(1000);
                 ; 0000 0779 
                 ; 0000 077A while(cykl < 5)
                 ; 0000 077B {
                 ; 0000 077C     switch(cykl)
                 ; 0000 077D         {
                 ; 0000 077E         case 0:
                 ; 0000 077F 
                 ; 0000 0780             PORTC = 0xFF;   //STEP 0
                 ; 0000 0781             cykl = 1;
                 ; 0000 0782 
                 ; 0000 0783         break;
                 ; 0000 0784 
                 ; 0000 0785         case 1:
                 ; 0000 0786 
                 ; 0000 0787             if(sek3 > 1)
                 ; 0000 0788                 {
                 ; 0000 0789                 PORTD.6 = 1;  //DRIVE
                 ; 0000 078A                 cykl = 2;
                 ; 0000 078B                 }
                 ; 0000 078C         break;
                 ; 0000 078D 
                 ; 0000 078E 
                 ; 0000 078F         case 2:
                 ; 0000 0790 
                 ; 0000 0791                if(sprawdz_pin0(PORTLL,0x71) == 0)
                 ; 0000 0792                   {
                 ; 0000 0793                   PORTD.6 = 0;
                 ; 0000 0794                   PORTC = 0x00;        //STEP 1 koniec
                 ; 0000 0795                   cykl = 3;
                 ; 0000 0796                   }
                 ; 0000 0797 
                 ; 0000 0798         break;
                 ; 0000 0799 
                 ; 0000 079A         case 3:
                 ; 0000 079B 
                 ; 0000 079C                if(sprawdz_pin3(PORTLL,0x71) == 0)
                 ; 0000 079D                   {
                 ; 0000 079E                   sek3 = 0;
                 ; 0000 079F                   cykl = 4;
                 ; 0000 07A0                   }
                 ; 0000 07A1 
                 ; 0000 07A2                    if(sprawdz_pin5(PORTLL,0x71) == 1)     //alarm
                 ; 0000 07A3                    {
                 ; 0000 07A4                    komunikat_na_panel("                                                ",adr1,adr2);
                 ; 0000 07A5                    komunikat_na_panel("Przeciazenia LEFS_XY_2",adr3,adr4);
                 ; 0000 07A6                    }
                 ; 0000 07A7 
                 ; 0000 07A8 
                 ; 0000 07A9         break;
                 ; 0000 07AA 
                 ; 0000 07AB 
                 ; 0000 07AC         case 4:
                 ; 0000 07AD 
                 ; 0000 07AE             if(sek3 > 50)
                 ; 0000 07AF                 cykl = 5;
                 ; 0000 07B0         break;
                 ; 0000 07B1 
                 ; 0000 07B2         }
                 ; 0000 07B3 }
                 ; 0000 07B4 
                 ; 0000 07B5 cykl = 0;
                 ; 0000 07B6 return 1;
                 ; 0000 07B7 }
                 ;
                 ;
                 ;
                 ;
                 ;int wypozycjonuj_LEFS40_1200_1_i_300_1()
                 ; 0000 07BD {
                 ; 0000 07BE //chyba nie wpiete A7
                 ; 0000 07BF 
                 ; 0000 07C0 //PORTA.0   IN0  STEROWNIK1
                 ; 0000 07C1 //PORTA.1   IN1  STEROWNIK1
                 ; 0000 07C2 //PORTA.2   IN2  STEROWNIK1
                 ; 0000 07C3 //PORTA.3   IN3  STEROWNIK1
                 ; 0000 07C4 //PORTA.4   IN4  STEROWNIK1
                 ; 0000 07C5 //PORTA.5   IN5  STEROWNIK1
                 ; 0000 07C6 //PORTA.6   IN6  STEROWNIK1
                 ; 0000 07C7 //PORTA.7   IN7  STEROWNIK1
                 ; 0000 07C8 
                 ; 0000 07C9 //PORTD.2  SETUP   STEROWNIK1
                 ; 0000 07CA //PORTD.3  DRIVE   STEROWNIK1
                 ; 0000 07CB 
                 ; 0000 07CC //sprawdz_pin0(PORTJJ,0x79)  BUSY   STEROWNIK1
                 ; 0000 07CD //sprawdz_pin3(PORTJJ,0x79)  INP    STEROWNIK1
                 ; 0000 07CE 
                 ; 0000 07CF PORTD.2 = 1;    //SETUP
                 ; 0000 07D0 
                 ; 0000 07D1 delay_ms(50);
                 ; 0000 07D2 
                 ; 0000 07D3 while(sprawdz_pin0(PORTJJ,0x79) == 1)  //kraze tu poki nie wywali busy
                 ; 0000 07D4         {
                 ; 0000 07D5             if(sprawdz_pin5(PORTJJ,0x79) == 1)     //alarm
                 ; 0000 07D6                    {
                 ; 0000 07D7                    komunikat_na_panel("                                                ",adr1,adr2);
                 ; 0000 07D8                    komunikat_na_panel("Przeciazenia LEFS_XY_1",adr1,adr2);
                 ; 0000 07D9                    }
                 ; 0000 07DA         }
                 ; 0000 07DB 
                 ; 0000 07DC delay_ms(50);
                 ; 0000 07DD 
                 ; 0000 07DE while(sprawdz_pin0(PORTJJ,0x79) == 0)  //wywala busy
                 ; 0000 07DF         {
                 ; 0000 07E0             if(sprawdz_pin5(PORTJJ,0x79) == 1)     //alarm
                 ; 0000 07E1                    {
                 ; 0000 07E2                    komunikat_na_panel("                                                ",adr1,adr2);
                 ; 0000 07E3                    komunikat_na_panel("Przeciazenia LEFS_XY_1",adr1,adr2);
                 ; 0000 07E4                    }
                 ; 0000 07E5 
                 ; 0000 07E6         }
                 ; 0000 07E7 
                 ; 0000 07E8 delay_ms(50);
                 ; 0000 07E9 
                 ; 0000 07EA while(sprawdz_pin3(PORTJJ,0x79) == 1)  //kraze tu dopoki nie wywali INP
                 ; 0000 07EB         {
                 ; 0000 07EC         }
                 ; 0000 07ED 
                 ; 0000 07EE delay_ms(50);
                 ; 0000 07EF 
                 ; 0000 07F0 if(sprawdz_pin3(PORTJJ,0x79) == 0)  //wywala INP
                 ; 0000 07F1         {
                 ; 0000 07F2         PORTD.2 = 0;
                 ; 0000 07F3         putchar(90);  //5A
                 ; 0000 07F4         putchar(165); //A5
                 ; 0000 07F5         putchar(3);//03  //znak dzwiekowy ze jestem
                 ; 0000 07F6         putchar(128);  //80
                 ; 0000 07F7         putchar(2);    //02
                 ; 0000 07F8         putchar(16);   //10
                 ; 0000 07F9         }
                 ; 0000 07FA else
                 ; 0000 07FB     {
                 ; 0000 07FC         putchar(90);  //5A
                 ; 0000 07FD         putchar(165); //A5
                 ; 0000 07FE         putchar(3);//03  //znak dzwiekowy ze jestem
                 ; 0000 07FF         putchar(128);  //80
                 ; 0000 0800         putchar(2);    //02
                 ; 0000 0801         putchar(16);   //10
                 ; 0000 0802 
                 ; 0000 0803         delay_ms(1000);     //wywalenie bledu
                 ; 0000 0804         delay_ms(1000);
                 ; 0000 0805 
                 ; 0000 0806         putchar(90);  //5A
                 ; 0000 0807         putchar(165); //A5
                 ; 0000 0808         putchar(3);//03  //znak dzwiekowy ze jestem
                 ; 0000 0809         putchar(128);  //80
                 ; 0000 080A         putchar(2);    //02
                 ; 0000 080B         putchar(16);   //10
                 ; 0000 080C 
                 ; 0000 080D     }
                 ; 0000 080E 
                 ; 0000 080F delay_ms(1000);
                 ; 0000 0810 
                 ; 0000 0811 while(cykl < 5)
                 ; 0000 0812 {
                 ; 0000 0813     switch(cykl)
                 ; 0000 0814         {
                 ; 0000 0815         case 0:
                 ; 0000 0816 
                 ; 0000 0817             PORTA = 0xFF;   //STEP 0
                 ; 0000 0818             cykl = 1;
                 ; 0000 0819 
                 ; 0000 081A         break;
                 ; 0000 081B 
                 ; 0000 081C         case 1:
                 ; 0000 081D 
                 ; 0000 081E             if(sek1 > 1)
                 ; 0000 081F                 {
                 ; 0000 0820                 PORTD.3 = 1;  //DRIVE
                 ; 0000 0821                 cykl = 2;
                 ; 0000 0822                 }
                 ; 0000 0823         break;
                 ; 0000 0824 
                 ; 0000 0825 
                 ; 0000 0826         case 2:
                 ; 0000 0827 
                 ; 0000 0828                if(sprawdz_pin0(PORTJJ,0x79) == 0)
                 ; 0000 0829                   {
                 ; 0000 082A                   PORTD.3 = 0;
                 ; 0000 082B                   PORTA = 0x00;        //STEP 1 koniec
                 ; 0000 082C                   cykl = 3;
                 ; 0000 082D                   }
                 ; 0000 082E 
                 ; 0000 082F         break;
                 ; 0000 0830 
                 ; 0000 0831         case 3:
                 ; 0000 0832 
                 ; 0000 0833                if(sprawdz_pin3(PORTJJ,0x79) == 0)
                 ; 0000 0834                   {
                 ; 0000 0835                   sek1 = 0;
                 ; 0000 0836                   cykl = 4;
                 ; 0000 0837                   }
                 ; 0000 0838 
                 ; 0000 0839                if(sprawdz_pin5(PORTJJ,0x79) == 1)     //alarm
                 ; 0000 083A                    {
                 ; 0000 083B                    komunikat_na_panel("                                                ",adr1,adr2);
                 ; 0000 083C                    komunikat_na_panel("Przeciazenia LEFS_XY_1",adr1,adr2);
                 ; 0000 083D                    }
                 ; 0000 083E 
                 ; 0000 083F 
                 ; 0000 0840         break;
                 ; 0000 0841 
                 ; 0000 0842 
                 ; 0000 0843         case 4:
                 ; 0000 0844 
                 ; 0000 0845             if(sek1 > 50)
                 ; 0000 0846                 cykl = 5;
                 ; 0000 0847         break;
                 ; 0000 0848 
                 ; 0000 0849         }
                 ; 0000 084A }
                 ; 0000 084B 
                 ; 0000 084C cykl = 0;
                 ; 0000 084D return 1;
                 ; 0000 084E }
                 ;
                 ;
                 ;
                 ;
                 ;
                 ;
                 ;
                 ;
                 ;
                 ;void wypozycjonuj_napedy()
                 ; 0000 0859 {
                 ; 0000 085A //if(aaa == 0)
                 ; 0000 085B //        {
                 ; 0000 085C //        aaa = wypozycjonuj_LEFS40_1200_1_i_300_1();
                 ; 0000 085D //        }
                 ; 0000 085E if(bbb == 0)
                 ; 0000 085F         {
                 ; 0000 0860         bbb = wypozycjonuj_LEFS32_300_1(0);
                 ; 0000 0861         }
                 ; 0000 0862 if(bbb == 1)
                 ; 0000 0863         {
                 ; 0000 0864         bbb = wypozycjonuj_LEFS32_300_1(1);
                 ; 0000 0865        }
                 ; 0000 0866 
                 ; 0000 0867 
                 ; 0000 0868 //if(ccc == 0)
                 ; 0000 0869 //        {
                 ; 0000 086A //        ccc = wypozycjonuj_LEFS40_1200_2_i_300_2();
                 ; 0000 086B //        }
                 ; 0000 086C //if(ddd == 0)
                 ; 0000 086D //        {
                 ; 0000 086E //        ddd = wypozycjonuj_LEFS32_300_2(0);
                 ; 0000 086F //       }
                 ; 0000 0870 //if(ddd == 1)
                 ; 0000 0871 //        {
                 ; 0000 0872 //        ddd = wypozycjonuj_LEFS32_300_2(1);
                 ; 0000 0873 //        }
                 ; 0000 0874 
                 ; 0000 0875 
                 ; 0000 0876 
                 ; 0000 0877 
                 ; 0000 0878 
                 ; 0000 0879 
                 ; 0000 087A    /*
                 ; 0000 087B 
                 ; 0000 087C     if(ccc == 1 & bbb == 1)
                 ; 0000 087D         ccc = wypozycjonuj_NL3_upgrade(1);
                 ; 0000 087E 
                 ; 0000 087F     if(bbb == 1 & ccc == 2)
                 ; 0000 0880         bbb = wypozycjonuj_NL2_upgrade(1);
                 ; 0000 0881 
                 ; 0000 0882 
                 ; 0000 0883     if(aaa == 1 & bbb == 2 & ccc == 2)
                 ; 0000 0884         {
                 ; 0000 0885         start = 1;
                 ; 0000 0886         }
                 ; 0000 0887 
                 ; 0000 0888     */
                 ; 0000 0889 
                 ; 0000 088A //    if(aaa == 1 & bbb == 2 & ccc == 2 & ddd == 2)
                 ; 0000 088B //        start = 1;
                 ; 0000 088C 
                 ; 0000 088D 
                 ; 0000 088E }
                 ;
                 ;
                 ;
                 ;void przerzucanie_dociskow()
                 ; 0000 0893 {
                 _przerzucanie_dociskow:
                 ; 0000 0894    if(sprawdz_pin6(PORTLL,0x71) == 0 & sprawdz_pin7(PORTLL,0x71) == 0 & czekaj_az_puszcze == 0)
000c8f 940e 1853 	CALL SUBOPT_0x13
000c91 940e 03bb 	CALL _sprawdz_pin6
000c93 e0a0      	LDI  R26,LOW(0)
000c94 940e 1bd8 	CALL __EQB12
000c96 93ef      	PUSH R30
000c97 940e 1853 	CALL SUBOPT_0x13
000c99 940e 03c2 	CALL _sprawdz_pin7
000c9b e0a0      	LDI  R26,LOW(0)
000c9c 940e 1bd8 	CALL __EQB12
000c9e 91af      	POP  R26
000c9f 940e 1873 	CALL SUBOPT_0x18
000ca1 940e 187a 	CALL SUBOPT_0x19
000ca3 21e0      	AND  R30,R0
000ca4 f039      	BREQ _0x166
                 ; 0000 0895            {
                 ; 0000 0896            czekaj_az_puszcze = 1;
000ca5 e0e1      	LDI  R30,LOW(1)
000ca6 e0f0      	LDI  R31,HIGH(1)
000ca7 93e0 0567 	STS  _czekaj_az_puszcze,R30
000ca9 93f0 0568 	STS  _czekaj_az_puszcze+1,R31
                 ; 0000 0897            PORTB.6 = 1;
000cab 9ac6      	SBI  0x18,6
                 ; 0000 0898            }
                 ; 0000 0899        if(sprawdz_pin6(PORTLL,0x71) == 1 & sprawdz_pin7(PORTLL,0x71) == 1 & czekaj_az_puszcze == 1)
                 _0x166:
000cac 940e 1853 	CALL SUBOPT_0x13
000cae 940e 03bb 	CALL _sprawdz_pin6
000cb0 e0a1      	LDI  R26,LOW(1)
000cb1 940e 1bd8 	CALL __EQB12
000cb3 93ef      	PUSH R30
000cb4 940e 1853 	CALL SUBOPT_0x13
000cb6 940e 1867 	CALL SUBOPT_0x15
000cb8 91af      	POP  R26
000cb9 940e 1873 	CALL SUBOPT_0x18
000cbb 940e 187f 	CALL SUBOPT_0x1A
000cbd 21e0      	AND  R30,R0
000cbe f039      	BREQ _0x169
                 ; 0000 089A            {
                 ; 0000 089B            czekaj_az_puszcze = 2;
000cbf e0e2      	LDI  R30,LOW(2)
000cc0 e0f0      	LDI  R31,HIGH(2)
000cc1 93e0 0567 	STS  _czekaj_az_puszcze,R30
000cc3 93f0 0568 	STS  _czekaj_az_puszcze+1,R31
                 ; 0000 089C            PORTB.6 = 0;
000cc5 98c6      	CBI  0x18,6
                 ; 0000 089D            }
                 ; 0000 089E 
                 ; 0000 089F        if(czekaj_az_puszcze == 2 & PORTE.6 == 1)
                 _0x169:
000cc6 940e 1884 	CALL SUBOPT_0x1B
000cc8 e0e1      	LDI  R30,LOW(1)
000cc9 940e 1bd8 	CALL __EQB12
000ccb 21e0      	AND  R30,R0
000ccc f019      	BREQ _0x16C
                 ; 0000 08A0             {
                 ; 0000 08A1             PORTE.6 = 0;
000ccd 981e      	CBI  0x3,6
                 ; 0000 08A2             czekaj_az_puszcze = 0;
000cce 940e 1891 	CALL SUBOPT_0x1C
                 ; 0000 08A3             delay_ms(100);
                 ; 0000 08A4             }
                 ; 0000 08A5 
                 ; 0000 08A6        if(czekaj_az_puszcze == 2 & PORTE.6 == 0)
                 _0x16C:
000cd0 940e 1884 	CALL SUBOPT_0x1B
000cd2 e0e0      	LDI  R30,LOW(0)
000cd3 940e 1bd8 	CALL __EQB12
000cd5 21e0      	AND  R30,R0
000cd6 f019      	BREQ _0x16F
                 ; 0000 08A7            {
                 ; 0000 08A8             PORTE.6 = 1;
000cd7 9a1e      	SBI  0x3,6
                 ; 0000 08A9             czekaj_az_puszcze = 0;
000cd8 940e 1891 	CALL SUBOPT_0x1C
                 ; 0000 08AA             delay_ms(100);
                 ; 0000 08AB            }
                 ; 0000 08AC 
                 ; 0000 08AD }
                 _0x16F:
000cda 9508      	RET
                 ;
                 ;void ostateczny_wybor_zacisku()
                 ; 0000 08B0 {
                 _ostateczny_wybor_zacisku:
                 ; 0000 08B1   if(sek11 > 40) //co 1s sekunde sprawdzam
000cdb 91a0 051d 	LDS  R26,_sek11
000cdd 91b0 051e 	LDS  R27,_sek11+1
000cdf 9180 051f 	LDS  R24,_sek11+2
000ce1 9190 0520 	LDS  R25,_sek11+3
                +
000ce3 32a9     +CPI R26 , LOW ( 0x29 )
000ce4 e0e0     +LDI R30 , HIGH ( 0x29 )
000ce5 07be     +CPC R27 , R30
000ce6 e0e0     +LDI R30 , BYTE3 ( 0x29 )
000ce7 078e     +CPC R24 , R30
000ce8 e0e0     +LDI R30 , BYTE4 ( 0x29 )
000ce9 079e     +CPC R25 , R30
                 	__CPD2N 0x29
000cea f414      	BRGE PC+3
000ceb 940c 0d41 	JMP _0x172
                 ; 0000 08B2         {
                 ; 0000 08B3        sek11 = 0;
000ced 940e 189c 	CALL SUBOPT_0x1D
                 ; 0000 08B4        if(odczytalem_zacisk < il_prob_odczytu &
                 ; 0000 08B5                                            (sprawdz_pin0(PORTHH,0x73) == 1 |
                 ; 0000 08B6                                             sprawdz_pin1(PORTHH,0x73) == 1 |
                 ; 0000 08B7                                             sprawdz_pin2(PORTHH,0x73) == 1 |
                 ; 0000 08B8                                             sprawdz_pin3(PORTHH,0x73) == 1 |
                 ; 0000 08B9                                             sprawdz_pin4(PORTHH,0x73) == 1 |
                 ; 0000 08BA                                             sprawdz_pin5(PORTHH,0x73) == 1 |
                 ; 0000 08BB                                             sprawdz_pin6(PORTHH,0x73) == 1 |
                 ; 0000 08BC                                             sprawdz_pin7(PORTHH,0x73) == 1))
000cef 01f5      	MOVW R30,R10
000cf0 01d4      	MOVW R26,R8
000cf1 940e 1bef 	CALL __LTW12
000cf3 93ef      	PUSH R30
000cf4 940e 180f 	CALL SUBOPT_0xB
000cf6 940e 039f 	CALL _sprawdz_pin0
000cf8 e0a1      	LDI  R26,LOW(1)
000cf9 940e 1bd8 	CALL __EQB12
000cfb 93ef      	PUSH R30
000cfc 940e 180f 	CALL SUBOPT_0xB
000cfe 940e 03a2 	CALL _sprawdz_pin1
000d00 e0a1      	LDI  R26,LOW(1)
000d01 940e 1bd8 	CALL __EQB12
000d03 91af      	POP  R26
000d04 2bea      	OR   R30,R26
000d05 93ef      	PUSH R30
000d06 940e 180f 	CALL SUBOPT_0xB
000d08 940e 03a6 	CALL _sprawdz_pin2
000d0a e0a1      	LDI  R26,LOW(1)
000d0b 940e 1bd8 	CALL __EQB12
000d0d 91af      	POP  R26
000d0e 2bea      	OR   R30,R26
000d0f 93ef      	PUSH R30
000d10 940e 180f 	CALL SUBOPT_0xB
000d12 940e 184d 	CALL SUBOPT_0x12
000d14 91af      	POP  R26
000d15 2bea      	OR   R30,R26
000d16 93ef      	PUSH R30
000d17 940e 180f 	CALL SUBOPT_0xB
000d19 940e 03b1 	CALL _sprawdz_pin4
000d1b e0a1      	LDI  R26,LOW(1)
000d1c 940e 1bd8 	CALL __EQB12
000d1e 91af      	POP  R26
000d1f 2bea      	OR   R30,R26
000d20 93ef      	PUSH R30
000d21 940e 180f 	CALL SUBOPT_0xB
000d23 940e 03b5 	CALL _sprawdz_pin5
000d25 e0a1      	LDI  R26,LOW(1)
000d26 940e 1bd8 	CALL __EQB12
000d28 91af      	POP  R26
000d29 2bea      	OR   R30,R26
000d2a 93ef      	PUSH R30
000d2b 940e 180f 	CALL SUBOPT_0xB
000d2d 940e 03bb 	CALL _sprawdz_pin6
000d2f e0a1      	LDI  R26,LOW(1)
000d30 940e 1bd8 	CALL __EQB12
000d32 91af      	POP  R26
000d33 2bea      	OR   R30,R26
000d34 93ef      	PUSH R30
000d35 940e 180f 	CALL SUBOPT_0xB
000d37 940e 1867 	CALL SUBOPT_0x15
000d39 91af      	POP  R26
000d3a 2bea      	OR   R30,R26
000d3b 91af      	POP  R26
000d3c 23ea      	AND  R30,R26
000d3d f019      	BREQ _0x173
                 ; 0000 08BD         {
                 ; 0000 08BE         odczytalem_zacisk++;
000d3e 01f4      	MOVW R30,R8
000d3f 9631      	ADIW R30,1
000d40 014f      	MOVW R8,R30
                 ; 0000 08BF         }
                 ; 0000 08C0         }
                 _0x173:
                 ; 0000 08C1 
                 ; 0000 08C2 if(odczytalem_zacisk == il_prob_odczytu)
                 _0x172:
                +
000d41 14a8     +CP R10 , R8
000d42 04b9     +CPC R11 , R9
                 	__CPWRR 10,11,8,9
000d43 f4b9      	BRNE _0x174
                 ; 0000 08C3         {
                 ; 0000 08C4         //PORTB = 0xFF;
                 ; 0000 08C5         odczyt_wybranego_zacisku();
000d44 940e 04b9 	CALL _odczyt_wybranego_zacisku
                 ; 0000 08C6         //sek10 = 0;
                 ; 0000 08C7         sek11 = 0;    //nowe
000d46 940e 189c 	CALL SUBOPT_0x1D
                 ; 0000 08C8         odczytalem_zacisk++;
000d48 01f4      	MOVW R30,R8
000d49 9631      	ADIW R30,1
000d4a 014f      	MOVW R8,R30
                 ; 0000 08C9         if(rzad == 1)
000d4b e0e1      	LDI  R30,LOW(1)
000d4c e0f0      	LDI  R31,HIGH(1)
000d4d 15ec      	CP   R30,R12
000d4e 05fd      	CPC  R31,R13
000d4f f419      	BRNE _0x175
                 ; 0000 08CA             wartosc_parametru_panelu(2,32,128);
000d50 e0e2      	LDI  R30,LOW(2)
000d51 e0f0      	LDI  R31,HIGH(2)
000d52 c002      	RJMP _0x285
                 ; 0000 08CB         else
                 _0x175:
                 ; 0000 08CC             wartosc_parametru_panelu(1,32,128);
000d53 e0e1      	LDI  R30,LOW(1)
000d54 e0f0      	LDI  R31,HIGH(1)
                 _0x285:
000d55 93fa      	ST   -Y,R31
000d56 93ea      	ST   -Y,R30
000d57 940e 181d 	CALL SUBOPT_0xD
000d59 940e 042d 	CALL _wartosc_parametru_panelu
                 ; 0000 08CD 
                 ; 0000 08CE         }                                     //& sek10 > 1                //3s po odczytaniu dopiero sprawdzam port
                 ; 0000 08CF if((odczytalem_zacisk == il_prob_odczytu + 1))        //183
                 _0x174:
000d5b 01f5      	MOVW R30,R10
000d5c 9631      	ADIW R30,1
000d5d 15e8      	CP   R30,R8
000d5e 05f9      	CPC  R31,R9
000d5f f411      	BRNE _0x177
                 ; 0000 08D0         {
                 ; 0000 08D1         odczytalem_zacisk = 0;
000d60 2488      	CLR  R8
000d61 2499      	CLR  R9
                 ; 0000 08D2         }
                 ; 0000 08D3 }
                 _0x177:
000d62 9508      	RET
                 ;
                 ;
                 ;
                 ;int sterownik_1_praca(int PORT, int a)
                 ; 0000 08D8 {
                 _sterownik_1_praca:
                 ; 0000 08D9 //PORTA.0   IN0  STEROWNIK1
                 ; 0000 08DA //PORTA.1   IN1  STEROWNIK1
                 ; 0000 08DB //PORTA.2   IN2  STEROWNIK1
                 ; 0000 08DC //PORTA.3   IN3  STEROWNIK1
                 ; 0000 08DD //PORTA.4   IN4  STEROWNIK1
                 ; 0000 08DE //PORTA.5   IN5  STEROWNIK1
                 ; 0000 08DF //PORTA.6   IN6  STEROWNIK1
                 ; 0000 08E0 //PORTA.7   IN7  STEROWNIK1
                 ; 0000 08E1 //PORTD.4   IN8 STEROWNIK1
                 ; 0000 08E2 
                 ; 0000 08E3 //PORTD.2  SETUP   STEROWNIK1
                 ; 0000 08E4 //PORTD.3  DRIVE   STEROWNIK1
                 ; 0000 08E5 
                 ; 0000 08E6 //sprawdz_pin0(PORTJJ,0x79)  BUSY   STEROWNIK1
                 ; 0000 08E7 //sprawdz_pin3(PORTJJ,0x79)  INP    STEROWNIK1
                 ; 0000 08E8 
                 ; 0000 08E9 switch(cykl_sterownik_1)
                 ;	PORT -> Y+2
                 ;	a -> Y+0
000d63 91e0 0533 	LDS  R30,_cykl_sterownik_1
000d65 91f0 0534 	LDS  R31,_cykl_sterownik_1+1
                 ; 0000 08EA         {
                 ; 0000 08EB         case 0:
000d67 9730      	SBIW R30,0
000d68 f469      	BRNE _0x17B
                 ; 0000 08EC 
                 ; 0000 08ED             sek1 = 0;
000d69 940e 18a6 	CALL SUBOPT_0x1E
                 ; 0000 08EE             PORTA = PORT;
000d6b 81ea      	LDD  R30,Y+2
000d6c bbeb      	OUT  0x1B,R30
                 ; 0000 08EF             PORTD.4 = a;
000d6d 81e8      	LD   R30,Y
000d6e 30e0      	CPI  R30,0
000d6f f411      	BRNE _0x17C
000d70 9894      	CBI  0x12,4
000d71 c001      	RJMP _0x17D
                 _0x17C:
000d72 9a94      	SBI  0x12,4
                 _0x17D:
                 ; 0000 08F0 
                 ; 0000 08F1             cykl_sterownik_1 = 1;
000d73 e0e1      	LDI  R30,LOW(1)
000d74 e0f0      	LDI  R31,HIGH(1)
000d75 c047      	RJMP _0x286
                 ; 0000 08F2 
                 ; 0000 08F3         break;
                 ; 0000 08F4 
                 ; 0000 08F5         case 1:
                 _0x17B:
000d76 30e1      	CPI  R30,LOW(0x1)
000d77 e0a0      	LDI  R26,HIGH(0x1)
000d78 07fa      	CPC  R31,R26
000d79 f489      	BRNE _0x17E
                 ; 0000 08F6 
                 ; 0000 08F7             if(sek1 > 1)
000d7a 91a0 050d 	LDS  R26,_sek1
000d7c 91b0 050e 	LDS  R27,_sek1+1
000d7e 9180 050f 	LDS  R24,_sek1+2
000d80 9190 0510 	LDS  R25,_sek1+3
000d82 940e 18b0 	CALL SUBOPT_0x1F
000d84 f02c      	BRLT _0x17F
                 ; 0000 08F8                 {
                 ; 0000 08F9 
                 ; 0000 08FA                 PORTD.3 = 1;
000d85 9a93      	SBI  0x12,3
                 ; 0000 08FB                 cykl_sterownik_1 = 2;
000d86 e0e2      	LDI  R30,LOW(2)
000d87 e0f0      	LDI  R31,HIGH(2)
000d88 940e 18b8 	CALL SUBOPT_0x20
                 ; 0000 08FC                 }
                 ; 0000 08FD         break;
                 _0x17F:
000d8a c036      	RJMP _0x17A
                 ; 0000 08FE 
                 ; 0000 08FF 
                 ; 0000 0900         case 2:
                 _0x17E:
000d8b 30e2      	CPI  R30,LOW(0x2)
000d8c e0a0      	LDI  R26,HIGH(0x2)
000d8d 07fa      	CPC  R31,R26
000d8e f489      	BRNE _0x182
                 ; 0000 0901 
                 ; 0000 0902                if(sprawdz_pin0(PORTJJ,0x79) == 0)     //busy
000d8f 940e 17f7 	CALL SUBOPT_0x9
000d91 940e 039f 	CALL _sprawdz_pin0
000d93 30e0      	CPI  R30,0
000d94 f451      	BRNE _0x183
                 ; 0000 0903                   {
                 ; 0000 0904 
                 ; 0000 0905                   PORTD.3 = 0;
000d95 9893      	CBI  0x12,3
                 ; 0000 0906                   PORTA = 0x00;
000d96 e0e0      	LDI  R30,LOW(0)
000d97 bbeb      	OUT  0x1B,R30
                 ; 0000 0907                   PORTD.4 = 0;
000d98 9894      	CBI  0x12,4
                 ; 0000 0908                   sek1 = 0;
000d99 940e 18a6 	CALL SUBOPT_0x1E
                 ; 0000 0909                   cykl_sterownik_1 = 3;
000d9b e0e3      	LDI  R30,LOW(3)
000d9c e0f0      	LDI  R31,HIGH(3)
000d9d 940e 18b8 	CALL SUBOPT_0x20
                 ; 0000 090A                   }
                 ; 0000 090B 
                 ; 0000 090C         break;
                 _0x183:
000d9f c021      	RJMP _0x17A
                 ; 0000 090D 
                 ; 0000 090E         case 3:
                 _0x182:
000da0 30e3      	CPI  R30,LOW(0x3)
000da1 e0a0      	LDI  R26,HIGH(0x3)
000da2 07fa      	CPC  R31,R26
000da3 f469      	BRNE _0x188
                 ; 0000 090F 
                 ; 0000 0910                if(sprawdz_pin3(PORTJJ,0x79) == 0)
000da4 940e 17f7 	CALL SUBOPT_0x9
000da6 940e 03ab 	CALL _sprawdz_pin3
000da8 30e0      	CPI  R30,0
000da9 f431      	BRNE _0x189
                 ; 0000 0911                   {
                 ; 0000 0912 
                 ; 0000 0913                   sek1 = 0;
000daa 940e 18a6 	CALL SUBOPT_0x1E
                 ; 0000 0914                   cykl_sterownik_1 = 4;
000dac e0e4      	LDI  R30,LOW(4)
000dad e0f0      	LDI  R31,HIGH(4)
000dae 940e 18b8 	CALL SUBOPT_0x20
                 ; 0000 0915                   }
                 ; 0000 0916 
                 ; 0000 0917 
                 ; 0000 0918         break;
                 _0x189:
000db0 c010      	RJMP _0x17A
                 ; 0000 0919 
                 ; 0000 091A 
                 ; 0000 091B         case 4:
                 _0x188:
000db1 30e4      	CPI  R30,LOW(0x4)
000db2 e0a0      	LDI  R26,HIGH(0x4)
000db3 07fa      	CPC  R31,R26
000db4 f461      	BRNE _0x17A
                 ; 0000 091C 
                 ; 0000 091D             if(sprawdz_pin0(PORTJJ,0x79) == 1)
000db5 940e 17f7 	CALL SUBOPT_0x9
000db7 940e 039f 	CALL _sprawdz_pin0
000db9 30e1      	CPI  R30,LOW(0x1)
000dba f431      	BRNE _0x18B
                 ; 0000 091E                 {
                 ; 0000 091F 
                 ; 0000 0920                 cykl_sterownik_1 = 5;
000dbb e0e5      	LDI  R30,LOW(5)
000dbc e0f0      	LDI  R31,HIGH(5)
                 _0x286:
000dbd 93e0 0533 	STS  _cykl_sterownik_1,R30
000dbf 93f0 0534 	STS  _cykl_sterownik_1+1,R31
                 ; 0000 0921                 }
                 ; 0000 0922         break;
                 _0x18B:
                 ; 0000 0923 
                 ; 0000 0924         }
                 _0x17A:
                 ; 0000 0925 
                 ; 0000 0926 return cykl_sterownik_1;
000dc1 91e0 0533 	LDS  R30,_cykl_sterownik_1
000dc3 91f0 0534 	LDS  R31,_cykl_sterownik_1+1
000dc5 c062      	RJMP _0x20A0002
                 ; 0000 0927 }
                 ;
                 ;
                 ;int sterownik_2_praca(int PORT, int a)
                 ; 0000 092B {
                 _sterownik_2_praca:
                 ; 0000 092C //PORTC.0   IN0  STEROWNIK2
                 ; 0000 092D //PORTC.1   IN1  STEROWNIK2
                 ; 0000 092E //PORTC.2   IN2  STEROWNIK2
                 ; 0000 092F //PORTC.3   IN3  STEROWNIK2
                 ; 0000 0930 //PORTC.4   IN4  STEROWNIK2
                 ; 0000 0931 //PORTC.5   IN5  STEROWNIK2
                 ; 0000 0932 //PORTC.6   IN6  STEROWNIK2
                 ; 0000 0933 //PORTC.7   IN7  STEROWNIK2
                 ; 0000 0934 //PORTD.5   IN8 STEROWNIK2
                 ; 0000 0935 
                 ; 0000 0936 
                 ; 0000 0937 //PORTD.5  SETUP   STEROWNIK2
                 ; 0000 0938 //PORTD.6  DRIVE   STEROWNIK2
                 ; 0000 0939 
                 ; 0000 093A //sprawdz_pin0(PORTLL,0x71)  BUSY   STEROWNIK2
                 ; 0000 093B //sprawdz_pin3(PORTLL,0x71)  INP    STEROWNIK2
                 ; 0000 093C 
                 ; 0000 093D 
                 ; 0000 093E switch(cykl_sterownik_2)
                 ;	PORT -> Y+2
                 ;	a -> Y+0
000dc6 91e0 0537 	LDS  R30,_cykl_sterownik_2
000dc8 91f0 0538 	LDS  R31,_cykl_sterownik_2+1
                 ; 0000 093F         {
                 ; 0000 0940         case 0:
000dca 9730      	SBIW R30,0
000dcb f469      	BRNE _0x18F
                 ; 0000 0941 
                 ; 0000 0942             sek3 = 0;
000dcc 940e 18bd 	CALL SUBOPT_0x21
                 ; 0000 0943             PORTC = PORT;
000dce 81ea      	LDD  R30,Y+2
000dcf bbe5      	OUT  0x15,R30
                 ; 0000 0944             PORTD.5 = a;
000dd0 81e8      	LD   R30,Y
000dd1 30e0      	CPI  R30,0
000dd2 f411      	BRNE _0x190
000dd3 9895      	CBI  0x12,5
000dd4 c001      	RJMP _0x191
                 _0x190:
000dd5 9a95      	SBI  0x12,5
                 _0x191:
                 ; 0000 0945 
                 ; 0000 0946             cykl_sterownik_2 = 1;
000dd6 e0e1      	LDI  R30,LOW(1)
000dd7 e0f0      	LDI  R31,HIGH(1)
000dd8 c047      	RJMP _0x287
                 ; 0000 0947 
                 ; 0000 0948 
                 ; 0000 0949         break;
                 ; 0000 094A 
                 ; 0000 094B         case 1:
                 _0x18F:
000dd9 30e1      	CPI  R30,LOW(0x1)
000dda e0a0      	LDI  R26,HIGH(0x1)
000ddb 07fa      	CPC  R31,R26
000ddc f489      	BRNE _0x192
                 ; 0000 094C 
                 ; 0000 094D             if(sek3 > 1)
000ddd 91a0 0515 	LDS  R26,_sek3
000ddf 91b0 0516 	LDS  R27,_sek3+1
000de1 9180 0517 	LDS  R24,_sek3+2
000de3 9190 0518 	LDS  R25,_sek3+3
000de5 940e 18b0 	CALL SUBOPT_0x1F
000de7 f02c      	BRLT _0x193
                 ; 0000 094E                 {
                 ; 0000 094F                 PORTD.6 = 1;
000de8 9a96      	SBI  0x12,6
                 ; 0000 0950                 cykl_sterownik_2 = 2;
000de9 e0e2      	LDI  R30,LOW(2)
000dea e0f0      	LDI  R31,HIGH(2)
000deb 940e 18c7 	CALL SUBOPT_0x22
                 ; 0000 0951                 }
                 ; 0000 0952         break;
                 _0x193:
000ded c036      	RJMP _0x18E
                 ; 0000 0953 
                 ; 0000 0954 
                 ; 0000 0955         case 2:
                 _0x192:
000dee 30e2      	CPI  R30,LOW(0x2)
000def e0a0      	LDI  R26,HIGH(0x2)
000df0 07fa      	CPC  R31,R26
000df1 f489      	BRNE _0x196
                 ; 0000 0956 
                 ; 0000 0957                if(sprawdz_pin0(PORTLL,0x71) == 0)     //busy
000df2 940e 1853 	CALL SUBOPT_0x13
000df4 940e 039f 	CALL _sprawdz_pin0
000df6 30e0      	CPI  R30,0
000df7 f451      	BRNE _0x197
                 ; 0000 0958                   {
                 ; 0000 0959                   PORTD.6 = 0;
000df8 9896      	CBI  0x12,6
                 ; 0000 095A                   PORTC = 0x00;
000df9 e0e0      	LDI  R30,LOW(0)
000dfa bbe5      	OUT  0x15,R30
                 ; 0000 095B                   PORTD.5 = 0;
000dfb 9895      	CBI  0x12,5
                 ; 0000 095C                   sek3 = 0;
000dfc 940e 18bd 	CALL SUBOPT_0x21
                 ; 0000 095D                   cykl_sterownik_2 = 3;
000dfe e0e3      	LDI  R30,LOW(3)
000dff e0f0      	LDI  R31,HIGH(3)
000e00 940e 18c7 	CALL SUBOPT_0x22
                 ; 0000 095E                   }
                 ; 0000 095F 
                 ; 0000 0960         break;
                 _0x197:
000e02 c021      	RJMP _0x18E
                 ; 0000 0961 
                 ; 0000 0962         case 3:
                 _0x196:
000e03 30e3      	CPI  R30,LOW(0x3)
000e04 e0a0      	LDI  R26,HIGH(0x3)
000e05 07fa      	CPC  R31,R26
000e06 f469      	BRNE _0x19C
                 ; 0000 0963 
                 ; 0000 0964                if(sprawdz_pin3(PORTLL,0x71) == 0)
000e07 940e 1853 	CALL SUBOPT_0x13
000e09 940e 03ab 	CALL _sprawdz_pin3
000e0b 30e0      	CPI  R30,0
000e0c f431      	BRNE _0x19D
                 ; 0000 0965                   {
                 ; 0000 0966                   sek3 = 0;
000e0d 940e 18bd 	CALL SUBOPT_0x21
                 ; 0000 0967                   cykl_sterownik_2 = 4;
000e0f e0e4      	LDI  R30,LOW(4)
000e10 e0f0      	LDI  R31,HIGH(4)
000e11 940e 18c7 	CALL SUBOPT_0x22
                 ; 0000 0968                   }
                 ; 0000 0969 
                 ; 0000 096A 
                 ; 0000 096B         break;
                 _0x19D:
000e13 c010      	RJMP _0x18E
                 ; 0000 096C 
                 ; 0000 096D 
                 ; 0000 096E         case 4:
                 _0x19C:
000e14 30e4      	CPI  R30,LOW(0x4)
000e15 e0a0      	LDI  R26,HIGH(0x4)
000e16 07fa      	CPC  R31,R26
000e17 f461      	BRNE _0x18E
                 ; 0000 096F 
                 ; 0000 0970             if(sprawdz_pin0(PORTLL,0x71) == 1)
000e18 940e 1853 	CALL SUBOPT_0x13
000e1a 940e 039f 	CALL _sprawdz_pin0
000e1c 30e1      	CPI  R30,LOW(0x1)
000e1d f431      	BRNE _0x19F
                 ; 0000 0971                 {
                 ; 0000 0972                 cykl_sterownik_2 = 5;
000e1e e0e5      	LDI  R30,LOW(5)
000e1f e0f0      	LDI  R31,HIGH(5)
                 _0x287:
000e20 93e0 0537 	STS  _cykl_sterownik_2,R30
000e22 93f0 0538 	STS  _cykl_sterownik_2+1,R31
                 ; 0000 0973                 }
                 ; 0000 0974         break;
                 _0x19F:
                 ; 0000 0975 
                 ; 0000 0976         }
                 _0x18E:
                 ; 0000 0977 
                 ; 0000 0978 return cykl_sterownik_2;
000e24 91e0 0537 	LDS  R30,_cykl_sterownik_2
000e26 91f0 0538 	LDS  R31,_cykl_sterownik_2+1
                 _0x20A0002:
000e28 9624      	ADIW R28,4
000e29 9508      	RET
                 ; 0000 0979 }
                 ;
                 ;
                 ;
                 ;
                 ;
                 ;
                 ;int sterownik_3_praca(char f,char e,char d, char c, char b, char a)
                 ; 0000 0981 {
                 _sterownik_3_praca:
                 ; 0000 0982 //PORTF.0   IN0  STEROWNIK3
                 ; 0000 0983 //PORTF.1   IN1  STEROWNIK3
                 ; 0000 0984 //PORTF.2   IN2  STEROWNIK3
                 ; 0000 0985 //PORTF.3   IN3  STEROWNIK3
                 ; 0000 0986 //PORTF.7   IN4 STEROWNIK 3
                 ; 0000 0987 //PORTB.7   IN5 STEROWNIK 3
                 ; 0000 0988 
                 ; 0000 0989 
                 ; 0000 098A 
                 ; 0000 098B //PORTF.5   DRIVE  STEROWNIK3
                 ; 0000 098C 
                 ; 0000 098D //sprawdz_pin0(PORTKK,0x75)  B7 BUSY    LECCP STEROWNIK3
                 ; 0000 098E //sprawdz_pin3(PORTKK,0x75)  B10 INP    LECP6 STEROWNIK3
                 ; 0000 098F 
                 ; 0000 0990 switch(cykl_sterownik_3)
                 ;	f -> Y+5
                 ;	e -> Y+4
                 ;	d -> Y+3
                 ;	c -> Y+2
                 ;	b -> Y+1
                 ;	a -> Y+0
000e2a 91e0 0535 	LDS  R30,_cykl_sterownik_3
000e2c 91f0 0536 	LDS  R31,_cykl_sterownik_3+1
                 ; 0000 0991         {
                 ; 0000 0992         case 0:
000e2e 9730      	SBIW R30,0
000e2f f011      	BREQ PC+3
000e30 940c 0e75 	JMP _0x1A3
                 ; 0000 0993 
                 ; 0000 0994             PORT_F.bits.b0 = a;
000e32 81e8      	LD   R30,Y
000e33 70e1      	ANDI R30,LOW(0x1)
000e34 2e0e      	MOV  R0,R30
000e35 91e0 0500 	LDS  R30,_PORT_F
000e37 7fee      	ANDI R30,0xFE
000e38 29e0      	OR   R30,R0
000e39 93e0 0500 	STS  _PORT_F,R30
                 ; 0000 0995             PORT_F.bits.b1 = b;
000e3b 81e9      	LDD  R30,Y+1
000e3c 70e1      	ANDI R30,LOW(0x1)
000e3d 0fee      	LSL  R30
000e3e 2e0e      	MOV  R0,R30
000e3f 91e0 0500 	LDS  R30,_PORT_F
000e41 7fed      	ANDI R30,0xFD
000e42 29e0      	OR   R30,R0
000e43 93e0 0500 	STS  _PORT_F,R30
                 ; 0000 0996             PORT_F.bits.b2 = c;
000e45 81ea      	LDD  R30,Y+2
000e46 70e1      	ANDI R30,LOW(0x1)
000e47 0fee      	LSL  R30
000e48 0fee      	LSL  R30
000e49 2e0e      	MOV  R0,R30
000e4a 91e0 0500 	LDS  R30,_PORT_F
000e4c 7feb      	ANDI R30,0xFB
000e4d 29e0      	OR   R30,R0
000e4e 93e0 0500 	STS  _PORT_F,R30
                 ; 0000 0997             PORT_F.bits.b3 = d;
000e50 81eb      	LDD  R30,Y+3
000e51 70e1      	ANDI R30,LOW(0x1)
000e52 0fee      	LSL  R30
000e53 0fee      	LSL  R30
000e54 0fee      	LSL  R30
000e55 2e0e      	MOV  R0,R30
000e56 91e0 0500 	LDS  R30,_PORT_F
000e58 7fe7      	ANDI R30,0XF7
000e59 29e0      	OR   R30,R0
000e5a 93e0 0500 	STS  _PORT_F,R30
                 ; 0000 0998             PORT_F.bits.b7 = e;
000e5c 81ec      	LDD  R30,Y+4
000e5d 70e1      	ANDI R30,LOW(0x1)
000e5e 95e7      	ROR  R30
000e5f e0e0      	LDI  R30,0
000e60 95e7      	ROR  R30
000e61 2e0e      	MOV  R0,R30
000e62 91e0 0500 	LDS  R30,_PORT_F
000e64 77ef      	ANDI R30,0x7F
000e65 29e0      	OR   R30,R0
000e66 940e 18cc 	CALL SUBOPT_0x23
                 ; 0000 0999             PORTF = PORT_F.byte;
                 ; 0000 099A             PORTB.7 = f;
000e68 81ed      	LDD  R30,Y+5
000e69 30e0      	CPI  R30,0
000e6a f411      	BRNE _0x1A4
000e6b 98c7      	CBI  0x18,7
000e6c c001      	RJMP _0x1A5
                 _0x1A4:
000e6d 9ac7      	SBI  0x18,7
                 _0x1A5:
                 ; 0000 099B 
                 ; 0000 099C             sek2 = 0;
000e6e 940e 18d1 	CALL SUBOPT_0x24
                 ; 0000 099D             cykl_sterownik_3 = 1;
000e70 e0e1      	LDI  R30,LOW(1)
000e71 e0f0      	LDI  R31,HIGH(1)
000e72 940e 18db 	CALL SUBOPT_0x25
                 ; 0000 099E 
                 ; 0000 099F         break;
000e74 c076      	RJMP _0x1A2
                 ; 0000 09A0 
                 ; 0000 09A1         case 1:
                 _0x1A3:
000e75 30e1      	CPI  R30,LOW(0x1)
000e76 e0a0      	LDI  R26,HIGH(0x1)
000e77 07fa      	CPC  R31,R26
000e78 f4a9      	BRNE _0x1A6
                 ; 0000 09A2 
                 ; 0000 09A3             if(sek2 > 1)
000e79 91a0 0511 	LDS  R26,_sek2
000e7b 91b0 0512 	LDS  R27,_sek2+1
000e7d 9180 0513 	LDS  R24,_sek2+2
000e7f 9190 0514 	LDS  R25,_sek2+3
000e81 940e 18b0 	CALL SUBOPT_0x1F
000e83 f04c      	BRLT _0x1A7
                 ; 0000 09A4                 {
                 ; 0000 09A5                 PORT_F.bits.b5 = 1;
000e84 91e0 0500 	LDS  R30,_PORT_F
000e86 62e0      	ORI  R30,0x20
000e87 940e 18cc 	CALL SUBOPT_0x23
                 ; 0000 09A6                 PORTF = PORT_F.byte;
                 ; 0000 09A7                 cykl_sterownik_3 = 2;    //drive
000e89 e0e2      	LDI  R30,LOW(2)
000e8a e0f0      	LDI  R31,HIGH(2)
000e8b 940e 18db 	CALL SUBOPT_0x25
                 ; 0000 09A8                 }
                 ; 0000 09A9         break;
                 _0x1A7:
000e8d c05d      	RJMP _0x1A2
                 ; 0000 09AA 
                 ; 0000 09AB 
                 ; 0000 09AC         case 2:
                 _0x1A6:
000e8e 30e2      	CPI  R30,LOW(0x2)
000e8f e0a0      	LDI  R26,HIGH(0x2)
000e90 07fa      	CPC  R31,R26
000e91 f521      	BRNE _0x1A8
                 ; 0000 09AD 
                 ; 0000 09AE                if(sprawdz_pin0(PORTKK,0x75) == 0)
000e92 940e 185d 	CALL SUBOPT_0x14
000e94 940e 039f 	CALL _sprawdz_pin0
000e96 30e0      	CPI  R30,0
000e97 f4e9      	BRNE _0x1A9
                 ; 0000 09AF                   {
                 ; 0000 09B0                   PORT_F.bits.b5 = 0;
000e98 91e0 0500 	LDS  R30,_PORT_F
000e9a 7def      	ANDI R30,0xDF
000e9b 940e 18cc 	CALL SUBOPT_0x23
                 ; 0000 09B1                   PORTF = PORT_F.byte;
                 ; 0000 09B2 
                 ; 0000 09B3                   PORT_F.bits.b0 = 0;
000e9d 91e0 0500 	LDS  R30,_PORT_F
000e9f 7fee      	ANDI R30,0xFE
000ea0 940e 18e0 	CALL SUBOPT_0x26
                 ; 0000 09B4                   PORT_F.bits.b1 = 0;
000ea2 7fed      	ANDI R30,0xFD
000ea3 940e 18e0 	CALL SUBOPT_0x26
                 ; 0000 09B5                   PORT_F.bits.b2 = 0;
000ea5 7feb      	ANDI R30,0xFB
000ea6 940e 18e0 	CALL SUBOPT_0x26
                 ; 0000 09B6                   PORT_F.bits.b3 = 0;
000ea8 7fe7      	ANDI R30,0XF7
000ea9 940e 18e0 	CALL SUBOPT_0x26
                 ; 0000 09B7                   PORT_F.bits.b7 = 0;
000eab 77ef      	ANDI R30,0x7F
000eac 940e 18cc 	CALL SUBOPT_0x23
                 ; 0000 09B8                   PORTF = PORT_F.byte;
                 ; 0000 09B9                   PORTB.7 = 0;
000eae 98c7      	CBI  0x18,7
                 ; 0000 09BA 
                 ; 0000 09BB                   sek2 = 0;
000eaf 940e 18d1 	CALL SUBOPT_0x24
                 ; 0000 09BC                   cykl_sterownik_3 = 3;
000eb1 e0e3      	LDI  R30,LOW(3)
000eb2 e0f0      	LDI  R31,HIGH(3)
000eb3 940e 18db 	CALL SUBOPT_0x25
                 ; 0000 09BD                   }
                 ; 0000 09BE 
                 ; 0000 09BF         break;
                 _0x1A9:
000eb5 c035      	RJMP _0x1A2
                 ; 0000 09C0 
                 ; 0000 09C1         case 3:
                 _0x1A8:
000eb6 30e3      	CPI  R30,LOW(0x3)
000eb7 e0a0      	LDI  R26,HIGH(0x3)
000eb8 07fa      	CPC  R31,R26
000eb9 f469      	BRNE _0x1AC
                 ; 0000 09C2 
                 ; 0000 09C3                if(sprawdz_pin3(PORTKK,0x75) == 0)  //czy INP
000eba 940e 185d 	CALL SUBOPT_0x14
000ebc 940e 03ab 	CALL _sprawdz_pin3
000ebe 30e0      	CPI  R30,0
000ebf f431      	BRNE _0x1AD
                 ; 0000 09C4                   {
                 ; 0000 09C5                   sek2 = 0;
000ec0 940e 18d1 	CALL SUBOPT_0x24
                 ; 0000 09C6                   cykl_sterownik_3 = 4;
000ec2 e0e4      	LDI  R30,LOW(4)
000ec3 e0f0      	LDI  R31,HIGH(4)
000ec4 940e 18db 	CALL SUBOPT_0x25
                 ; 0000 09C7                   }
                 ; 0000 09C8 
                 ; 0000 09C9 
                 ; 0000 09CA         break;
                 _0x1AD:
000ec6 c024      	RJMP _0x1A2
                 ; 0000 09CB 
                 ; 0000 09CC 
                 ; 0000 09CD         case 4:
                 _0x1AC:
000ec7 30e4      	CPI  R30,LOW(0x4)
000ec8 e0a0      	LDI  R26,HIGH(0x4)
000ec9 07fa      	CPC  R31,R26
000eca f501      	BRNE _0x1A2
                 ; 0000 09CE 
                 ; 0000 09CF               if(sprawdz_pin0(PORTKK,0x75) == 1)  //czy BUSY
000ecb 940e 185d 	CALL SUBOPT_0x14
000ecd 940e 039f 	CALL _sprawdz_pin0
000ecf 30e1      	CPI  R30,LOW(0x1)
000ed0 f4d1      	BRNE _0x1AF
                 ; 0000 09D0                 {
                 ; 0000 09D1                 cykl_sterownik_3 = 5;
000ed1 e0e5      	LDI  R30,LOW(5)
000ed2 e0f0      	LDI  R31,HIGH(5)
000ed3 940e 18db 	CALL SUBOPT_0x25
                 ; 0000 09D2 
                 ; 0000 09D3 
                 ; 0000 09D4                 switch(cykl_sterownik_3_wykonalem)
000ed5 91e0 0543 	LDS  R30,_cykl_sterownik_3_wykonalem
000ed7 91f0 0544 	LDS  R31,_cykl_sterownik_3_wykonalem+1
                 ; 0000 09D5                     {
                 ; 0000 09D6                     case 0:
000ed9 9730      	SBIW R30,0
000eda f439      	BRNE _0x1B3
                 ; 0000 09D7                             cykl_sterownik_3_wykonalem = 1;
000edb e0e1      	LDI  R30,LOW(1)
000edc e0f0      	LDI  R31,HIGH(1)
000edd 93e0 0543 	STS  _cykl_sterownik_3_wykonalem,R30
000edf 93f0 0544 	STS  _cykl_sterownik_3_wykonalem+1,R31
                 ; 0000 09D8                     break;
000ee1 c009      	RJMP _0x1B2
                 ; 0000 09D9 
                 ; 0000 09DA                     case 1:
                 _0x1B3:
000ee2 30e1      	CPI  R30,LOW(0x1)
000ee3 e0a0      	LDI  R26,HIGH(0x1)
000ee4 07fa      	CPC  R31,R26
000ee5 f429      	BRNE _0x1B2
                 ; 0000 09DB                             cykl_sterownik_3_wykonalem = 0;
000ee6 e0e0      	LDI  R30,LOW(0)
000ee7 93e0 0543 	STS  _cykl_sterownik_3_wykonalem,R30
000ee9 93e0 0544 	STS  _cykl_sterownik_3_wykonalem+1,R30
                 ; 0000 09DC                     break;
                 ; 0000 09DD 
                 ; 0000 09DE                     }
                 _0x1B2:
                 ; 0000 09DF 
                 ; 0000 09E0 
                 ; 0000 09E1                 }
                 ; 0000 09E2         break;
                 _0x1AF:
                 ; 0000 09E3 
                 ; 0000 09E4         }
                 _0x1A2:
                 ; 0000 09E5 
                 ; 0000 09E6 return cykl_sterownik_3;
000eeb 91e0 0535 	LDS  R30,_cykl_sterownik_3
000eed 91f0 0536 	LDS  R31,_cykl_sterownik_3+1
000eef c09f      	RJMP _0x20A0001
                 ; 0000 09E7 }
                 ;
                 ;
                 ;int sterownik_4_praca(char f,char e,char d, char c, char b, char a)
                 ; 0000 09EB {
                 _sterownik_4_praca:
                 ; 0000 09EC 
                 ; 0000 09ED 
                 ; 0000 09EE 
                 ; 0000 09EF 
                 ; 0000 09F0 //PORTB.0   IN0  STEROWNIK4
                 ; 0000 09F1 //PORTB.1   IN1  STEROWNIK4
                 ; 0000 09F2 //PORTB.2   IN2  STEROWNIK4
                 ; 0000 09F3 //PORTB.3   IN3  STEROWNIK4
                 ; 0000 09F4 //PORTE.4  IN4  STEROWNIK4
                 ; 0000 09F5 //PORTE.5  IN5  STEROWNIK4
                 ; 0000 09F6 
                 ; 0000 09F7 
                 ; 0000 09F8 //PORTB.4   SETUP  STEROWNIK4
                 ; 0000 09F9 //PORTB.5   DRIVE  STEROWNIK4
                 ; 0000 09FA 
                 ; 0000 09FB //sprawdz_pin4(PORTKK,0x75)  B7 BUSY    LECCP STEROWNIK4
                 ; 0000 09FC //sprawdz_pin7(PORTKK,0x75)  B10 INP    LECP6 STEROWNIK4
                 ; 0000 09FD 
                 ; 0000 09FE 
                 ; 0000 09FF 
                 ; 0000 0A00 switch(cykl_sterownik_4)
                 ;	f -> Y+5
                 ;	e -> Y+4
                 ;	d -> Y+3
                 ;	c -> Y+2
                 ;	b -> Y+1
                 ;	a -> Y+0
000ef0 91e0 0539 	LDS  R30,_cykl_sterownik_4
000ef2 91f0 053a 	LDS  R31,_cykl_sterownik_4+1
                 ; 0000 0A01         {
                 ; 0000 0A02         case 0:
000ef4 9730      	SBIW R30,0
000ef5 f549      	BRNE _0x1B8
                 ; 0000 0A03 
                 ; 0000 0A04             PORTB.0 = a;
000ef6 81e8      	LD   R30,Y
000ef7 30e0      	CPI  R30,0
000ef8 f411      	BRNE _0x1B9
000ef9 98c0      	CBI  0x18,0
000efa c001      	RJMP _0x1BA
                 _0x1B9:
000efb 9ac0      	SBI  0x18,0
                 _0x1BA:
                 ; 0000 0A05             PORTB.1 = b;
000efc 81e9      	LDD  R30,Y+1
000efd 30e0      	CPI  R30,0
000efe f411      	BRNE _0x1BB
000eff 98c1      	CBI  0x18,1
000f00 c001      	RJMP _0x1BC
                 _0x1BB:
000f01 9ac1      	SBI  0x18,1
                 _0x1BC:
                 ; 0000 0A06             PORTB.2 = c;
000f02 81ea      	LDD  R30,Y+2
000f03 30e0      	CPI  R30,0
000f04 f411      	BRNE _0x1BD
000f05 98c2      	CBI  0x18,2
000f06 c001      	RJMP _0x1BE
                 _0x1BD:
000f07 9ac2      	SBI  0x18,2
                 _0x1BE:
                 ; 0000 0A07             PORTB.3 = d;
000f08 81eb      	LDD  R30,Y+3
000f09 30e0      	CPI  R30,0
000f0a f411      	BRNE _0x1BF
000f0b 98c3      	CBI  0x18,3
000f0c c001      	RJMP _0x1C0
                 _0x1BF:
000f0d 9ac3      	SBI  0x18,3
                 _0x1C0:
                 ; 0000 0A08             PORTE.4 = e;
000f0e 81ec      	LDD  R30,Y+4
000f0f 30e0      	CPI  R30,0
000f10 f411      	BRNE _0x1C1
000f11 981c      	CBI  0x3,4
000f12 c001      	RJMP _0x1C2
                 _0x1C1:
000f13 9a1c      	SBI  0x3,4
                 _0x1C2:
                 ; 0000 0A09             PORTE.5 = f;
000f14 81ed      	LDD  R30,Y+5
000f15 30e0      	CPI  R30,0
000f16 f411      	BRNE _0x1C3
000f17 981d      	CBI  0x3,5
000f18 c001      	RJMP _0x1C4
                 _0x1C3:
000f19 9a1d      	SBI  0x3,5
                 _0x1C4:
                 ; 0000 0A0A 
                 ; 0000 0A0B             sek4 = 0;
000f1a 940e 18e3 	CALL SUBOPT_0x27
                 ; 0000 0A0C             cykl_sterownik_4 = 1;
000f1c e0e1      	LDI  R30,LOW(1)
000f1d e0f0      	LDI  R31,HIGH(1)
000f1e c068      	RJMP _0x288
                 ; 0000 0A0D 
                 ; 0000 0A0E         break;
                 ; 0000 0A0F 
                 ; 0000 0A10         case 1:
                 _0x1B8:
000f1f 30e1      	CPI  R30,LOW(0x1)
000f20 e0a0      	LDI  R26,HIGH(0x1)
000f21 07fa      	CPC  R31,R26
000f22 f489      	BRNE _0x1C5
                 ; 0000 0A11 
                 ; 0000 0A12             if(sek4 > 1)
000f23 91a0 0519 	LDS  R26,_sek4
000f25 91b0 051a 	LDS  R27,_sek4+1
000f27 9180 051b 	LDS  R24,_sek4+2
000f29 9190 051c 	LDS  R25,_sek4+3
000f2b 940e 18b0 	CALL SUBOPT_0x1F
000f2d f02c      	BRLT _0x1C6
                 ; 0000 0A13                 {
                 ; 0000 0A14                 PORTB.5 = 1;
000f2e 9ac5      	SBI  0x18,5
                 ; 0000 0A15                 cykl_sterownik_4 = 2;    //drive
000f2f e0e2      	LDI  R30,LOW(2)
000f30 e0f0      	LDI  R31,HIGH(2)
000f31 940e 18ed 	CALL SUBOPT_0x28
                 ; 0000 0A16                 }
                 ; 0000 0A17         break;
                 _0x1C6:
000f33 c057      	RJMP _0x1B7
                 ; 0000 0A18 
                 ; 0000 0A19 
                 ; 0000 0A1A         case 2:
                 _0x1C5:
000f34 30e2      	CPI  R30,LOW(0x2)
000f35 e0a0      	LDI  R26,HIGH(0x2)
000f36 07fa      	CPC  R31,R26
000f37 f591      	BRNE _0x1C9
                 ; 0000 0A1B 
                 ; 0000 0A1C                if(sprawdz_pin4(PORTKK,0x75) == 0)
000f38 940e 185d 	CALL SUBOPT_0x14
000f3a 940e 03b1 	CALL _sprawdz_pin4
000f3c 30e0      	CPI  R30,0
000f3d f559      	BRNE _0x1CA
                 ; 0000 0A1D                   {
                 ; 0000 0A1E                   PORTB.5 = 0;  //drive
000f3e 98c5      	CBI  0x18,5
                 ; 0000 0A1F 
                 ; 0000 0A20                   PORTB.0 = a;
000f3f 81e8      	LD   R30,Y
000f40 30e0      	CPI  R30,0
000f41 f411      	BRNE _0x1CD
000f42 98c0      	CBI  0x18,0
000f43 c001      	RJMP _0x1CE
                 _0x1CD:
000f44 9ac0      	SBI  0x18,0
                 _0x1CE:
                 ; 0000 0A21                   PORTB.1 = b;
000f45 81e9      	LDD  R30,Y+1
000f46 30e0      	CPI  R30,0
000f47 f411      	BRNE _0x1CF
000f48 98c1      	CBI  0x18,1
000f49 c001      	RJMP _0x1D0
                 _0x1CF:
000f4a 9ac1      	SBI  0x18,1
                 _0x1D0:
                 ; 0000 0A22                   PORTB.2 = c;
000f4b 81ea      	LDD  R30,Y+2
000f4c 30e0      	CPI  R30,0
000f4d f411      	BRNE _0x1D1
000f4e 98c2      	CBI  0x18,2
000f4f c001      	RJMP _0x1D2
                 _0x1D1:
000f50 9ac2      	SBI  0x18,2
                 _0x1D2:
                 ; 0000 0A23                   PORTB.3 = d;
000f51 81eb      	LDD  R30,Y+3
000f52 30e0      	CPI  R30,0
000f53 f411      	BRNE _0x1D3
000f54 98c3      	CBI  0x18,3
000f55 c001      	RJMP _0x1D4
                 _0x1D3:
000f56 9ac3      	SBI  0x18,3
                 _0x1D4:
                 ; 0000 0A24                   PORTE.4 = e;
000f57 81ec      	LDD  R30,Y+4
000f58 30e0      	CPI  R30,0
000f59 f411      	BRNE _0x1D5
000f5a 981c      	CBI  0x3,4
000f5b c001      	RJMP _0x1D6
                 _0x1D5:
000f5c 9a1c      	SBI  0x3,4
                 _0x1D6:
                 ; 0000 0A25                   PORTE.5 = f;
000f5d 81ed      	LDD  R30,Y+5
000f5e 30e0      	CPI  R30,0
000f5f f411      	BRNE _0x1D7
000f60 981d      	CBI  0x3,5
000f61 c001      	RJMP _0x1D8
                 _0x1D7:
000f62 9a1d      	SBI  0x3,5
                 _0x1D8:
                 ; 0000 0A26 
                 ; 0000 0A27                   sek4 = 0;
000f63 940e 18e3 	CALL SUBOPT_0x27
                 ; 0000 0A28                   cykl_sterownik_4 = 3;
000f65 e0e3      	LDI  R30,LOW(3)
000f66 e0f0      	LDI  R31,HIGH(3)
000f67 940e 18ed 	CALL SUBOPT_0x28
                 ; 0000 0A29                   }
                 ; 0000 0A2A 
                 ; 0000 0A2B         break;
                 _0x1CA:
000f69 c021      	RJMP _0x1B7
                 ; 0000 0A2C 
                 ; 0000 0A2D         case 3:
                 _0x1C9:
000f6a 30e3      	CPI  R30,LOW(0x3)
000f6b e0a0      	LDI  R26,HIGH(0x3)
000f6c 07fa      	CPC  R31,R26
000f6d f469      	BRNE _0x1D9
                 ; 0000 0A2E 
                 ; 0000 0A2F                if(sprawdz_pin7(PORTKK,0x75) == 0)  //czy INP
000f6e 940e 185d 	CALL SUBOPT_0x14
000f70 940e 03c2 	CALL _sprawdz_pin7
000f72 30e0      	CPI  R30,0
000f73 f431      	BRNE _0x1DA
                 ; 0000 0A30                   {
                 ; 0000 0A31                   sek4 = 0;
000f74 940e 18e3 	CALL SUBOPT_0x27
                 ; 0000 0A32                   cykl_sterownik_4 = 4;
000f76 e0e4      	LDI  R30,LOW(4)
000f77 e0f0      	LDI  R31,HIGH(4)
000f78 940e 18ed 	CALL SUBOPT_0x28
                 ; 0000 0A33                   }
                 ; 0000 0A34 
                 ; 0000 0A35 
                 ; 0000 0A36         break;
                 _0x1DA:
000f7a c010      	RJMP _0x1B7
                 ; 0000 0A37 
                 ; 0000 0A38 
                 ; 0000 0A39         case 4:
                 _0x1D9:
000f7b 30e4      	CPI  R30,LOW(0x4)
000f7c e0a0      	LDI  R26,HIGH(0x4)
000f7d 07fa      	CPC  R31,R26
000f7e f461      	BRNE _0x1B7
                 ; 0000 0A3A 
                 ; 0000 0A3B               if(sprawdz_pin4(PORTKK,0x75) == 1)  //czy BUSY
000f7f 940e 185d 	CALL SUBOPT_0x14
000f81 940e 03b1 	CALL _sprawdz_pin4
000f83 30e1      	CPI  R30,LOW(0x1)
000f84 f431      	BRNE _0x1DC
                 ; 0000 0A3C                 {
                 ; 0000 0A3D                 cykl_sterownik_4 = 5;
000f85 e0e5      	LDI  R30,LOW(5)
000f86 e0f0      	LDI  R31,HIGH(5)
                 _0x288:
000f87 93e0 0539 	STS  _cykl_sterownik_4,R30
000f89 93f0 053a 	STS  _cykl_sterownik_4+1,R31
                 ; 0000 0A3E                 }
                 ; 0000 0A3F         break;
                 _0x1DC:
                 ; 0000 0A40 
                 ; 0000 0A41         }
                 _0x1B7:
                 ; 0000 0A42 
                 ; 0000 0A43 return cykl_sterownik_4;
000f8b 91e0 0539 	LDS  R30,_cykl_sterownik_4
000f8d 91f0 053a 	LDS  R31,_cykl_sterownik_4+1
                 _0x20A0001:
000f8f 9626      	ADIW R28,6
000f90 9508      	RET
                 ; 0000 0A44 }
                 ;
                 ;
                 ;
                 ;
                 ;
                 ;void main(void)
                 ; 0000 0A4B {
                 _main:
                 ; 0000 0A4C 
                 ; 0000 0A4D // Declare your local variables here
                 ; 0000 0A4E /*
                 ; 0000 0A4F // Input/Output Ports initialization
                 ; 0000 0A50 // Port A initialization
                 ; 0000 0A51 // Func7=In Func6=In Func5=In Func4=In Func3=In Func2=In Func1=In Func0=In
                 ; 0000 0A52 // State7=T State6=T State5=T State4=T State3=T State2=T State1=T State0=T
                 ; 0000 0A53 PORTA=0x00;
                 ; 0000 0A54 DDRA=0x00;
                 ; 0000 0A55 
                 ; 0000 0A56 // Port B initialization
                 ; 0000 0A57 // Func7=Out Func6=Out Func5=Out Func4=Out Func3=Out Func2=Out Func1=Out Func0=Out
                 ; 0000 0A58 // State7=0 State6=0 State5=0 State4=0 State3=0 State2=0 State1=0 State0=0
                 ; 0000 0A59 PORTB=0x00;
                 ; 0000 0A5A DDRB=0xFF;
                 ; 0000 0A5B 
                 ; 0000 0A5C // Port C initialization
                 ; 0000 0A5D // Func7=Out Func6=Out Func5=Out Func4=Out Func3=Out Func2=Out Func1=Out Func0=Out
                 ; 0000 0A5E // State7=0 State6=0 State5=0 State4=0 State3=0 State2=0 State1=0 State0=0
                 ; 0000 0A5F PORTC=0x00;
                 ; 0000 0A60 DDRC=0xFF;
                 ; 0000 0A61 
                 ; 0000 0A62 // Port D initialization
                 ; 0000 0A63 // Func7=In Func6=In Func5=In Func4=In Func3=In Func2=In Func1=In Func0=In
                 ; 0000 0A64 // State7=T State6=T State5=T State4=T State3=T State2=T State1=T State0=T
                 ; 0000 0A65 PORTD=0x00;
                 ; 0000 0A66 DDRD=0x00;
                 ; 0000 0A67 
                 ; 0000 0A68 // Port E initialization
                 ; 0000 0A69 // Func7=In Func6=In Func5=In Func4=In Func3=In Func2=In Func1=In Func0=In
                 ; 0000 0A6A // State7=T State6=T State5=T State4=T State3=T State2=T State1=T State0=T
                 ; 0000 0A6B PORTE=0x00;
                 ; 0000 0A6C DDRE=0x00;
                 ; 0000 0A6D 
                 ; 0000 0A6E // Port F initialization
                 ; 0000 0A6F // Func7=In Func6=In Func5=In Func4=In Func3=In Func2=In Func1=In Func0=In
                 ; 0000 0A70 // State7=T State6=T State5=T State4=T State3=T State2=T State1=T State0=T
                 ; 0000 0A71 PORTF=0x00;
                 ; 0000 0A72 DDRF=0x00;
                 ; 0000 0A73 
                 ; 0000 0A74 // Port G initialization
                 ; 0000 0A75 // Func4=In Func3=In Func2=In Func1=In Func0=In
                 ; 0000 0A76 // State4=T State3=T State2=T State1=T State0=T
                 ; 0000 0A77 PORTG=0x00;
                 ; 0000 0A78 DDRG=0x00;
                 ; 0000 0A79 */
                 ; 0000 0A7A 
                 ; 0000 0A7B 
                 ; 0000 0A7C // Input/Output Ports initialization
                 ; 0000 0A7D // Port A initialization
                 ; 0000 0A7E // Func7=Out Func6=Out Func5=Out Func4=Out Func3=Out Func2=Out Func1=Out Func0=Out
                 ; 0000 0A7F // State7=0 State6=0 State5=0 State4=0 State3=0 State2=0 State1=0 State0=0
                 ; 0000 0A80 PORTA=0x00;
000f91 e0e0      	LDI  R30,LOW(0)
000f92 bbeb      	OUT  0x1B,R30
                 ; 0000 0A81 DDRA=0xFF;
000f93 efef      	LDI  R30,LOW(255)
000f94 bbea      	OUT  0x1A,R30
                 ; 0000 0A82 
                 ; 0000 0A83 // Port B initialization
                 ; 0000 0A84 // Func7=Out Func6=Out Func5=Out Func4=Out Func3=Out Func2=Out Func1=Out Func0=Out
                 ; 0000 0A85 // State7=0 State6=0 State5=0 State4=0 State3=0 State2=0 State1=0 State0=0
                 ; 0000 0A86 PORTB=0x00;
000f95 e0e0      	LDI  R30,LOW(0)
000f96 bbe8      	OUT  0x18,R30
                 ; 0000 0A87 DDRB=0xFF;
000f97 efef      	LDI  R30,LOW(255)
000f98 bbe7      	OUT  0x17,R30
                 ; 0000 0A88 
                 ; 0000 0A89 // Port C initialization
                 ; 0000 0A8A // Func7=Out Func6=Out Func5=Out Func4=Out Func3=Out Func2=Out Func1=Out Func0=Out
                 ; 0000 0A8B // State7=0 State6=0 State5=0 State4=0 State3=0 State2=0 State1=0 State0=0
                 ; 0000 0A8C PORTC=0x00;
000f99 e0e0      	LDI  R30,LOW(0)
000f9a bbe5      	OUT  0x15,R30
                 ; 0000 0A8D DDRC=0xFF;
000f9b efef      	LDI  R30,LOW(255)
000f9c bbe4      	OUT  0x14,R30
                 ; 0000 0A8E 
                 ; 0000 0A8F // Port D initialization
                 ; 0000 0A90 // Func7=Out Func6=Out Func5=Out Func4=Out Func3=Out Func2=Out Func1=Out Func0=Out
                 ; 0000 0A91 // State7=0 State6=0 State5=0 State4=0 State3=0 State2=0 State1=0 State0=0
                 ; 0000 0A92 PORTD=0x00;
000f9d e0e0      	LDI  R30,LOW(0)
000f9e bbe2      	OUT  0x12,R30
                 ; 0000 0A93 DDRD=0xFF;
000f9f efef      	LDI  R30,LOW(255)
000fa0 bbe1      	OUT  0x11,R30
                 ; 0000 0A94 
                 ; 0000 0A95 // Port E initialization
                 ; 0000 0A96 // Func7=Out Func6=Out Func5=Out Func4=Out Func3=Out Func2=Out Func1=Out Func0=Out
                 ; 0000 0A97 // State7=0 State6=0 State5=0 State4=0 State3=0 State2=0 State1=0 State0=0
                 ; 0000 0A98 PORTE=0x00;
000fa1 e0e0      	LDI  R30,LOW(0)
000fa2 b9e3      	OUT  0x3,R30
                 ; 0000 0A99 DDRE=0xFF;
000fa3 efef      	LDI  R30,LOW(255)
000fa4 b9e2      	OUT  0x2,R30
                 ; 0000 0A9A 
                 ; 0000 0A9B // Port F initialization
                 ; 0000 0A9C // Func7=Out Func6=Out Func5=Out Func4=Out Func3=Out Func2=Out Func1=Out Func0=Out
                 ; 0000 0A9D // State7=0 State6=0 State5=0 State4=0 State3=0 State2=0 State1=0 State0=0
                 ; 0000 0A9E PORTF=0x00;
000fa5 e0e0      	LDI  R30,LOW(0)
000fa6 93e0 0062 	STS  98,R30
                 ; 0000 0A9F DDRF=0xFF;
000fa8 efef      	LDI  R30,LOW(255)
000fa9 93e0 0061 	STS  97,R30
                 ; 0000 0AA0 
                 ; 0000 0AA1 // Port G initialization
                 ; 0000 0AA2 // Func4=Out Func3=Out Func2=Out Func1=Out Func0=Out
                 ; 0000 0AA3 // State4=0 State3=0 State2=0 State1=0 State0=0
                 ; 0000 0AA4 PORTG=0x00;
000fab e0e0      	LDI  R30,LOW(0)
000fac 93e0 0065 	STS  101,R30
                 ; 0000 0AA5 DDRG=0x1F;
000fae e1ef      	LDI  R30,LOW(31)
000faf 93e0 0064 	STS  100,R30
                 ; 0000 0AA6 
                 ; 0000 0AA7 
                 ; 0000 0AA8 
                 ; 0000 0AA9 
                 ; 0000 0AAA 
                 ; 0000 0AAB // Timer/Counter 0 initialization
                 ; 0000 0AAC // Clock source: System Clock
                 ; 0000 0AAD // Clock value: 15,625 kHz
                 ; 0000 0AAE // Mode: Normal top=0xFF
                 ; 0000 0AAF // OC0 output: Disconnected
                 ; 0000 0AB0 ASSR=0x00;
000fb1 e0e0      	LDI  R30,LOW(0)
000fb2 bfe0      	OUT  0x30,R30
                 ; 0000 0AB1 TCCR0=0x07;
000fb3 e0e7      	LDI  R30,LOW(7)
000fb4 bfe3      	OUT  0x33,R30
                 ; 0000 0AB2 TCNT0=0x00;
000fb5 e0e0      	LDI  R30,LOW(0)
000fb6 bfe2      	OUT  0x32,R30
                 ; 0000 0AB3 OCR0=0x00;
000fb7 bfe1      	OUT  0x31,R30
                 ; 0000 0AB4 
                 ; 0000 0AB5 // Timer/Counter 1 initialization
                 ; 0000 0AB6 // Clock source: System Clock
                 ; 0000 0AB7 // Clock value: Timer1 Stopped
                 ; 0000 0AB8 // Mode: Normal top=0xFFFF
                 ; 0000 0AB9 // OC1A output: Discon.
                 ; 0000 0ABA // OC1B output: Discon.
                 ; 0000 0ABB // OC1C output: Discon.
                 ; 0000 0ABC // Noise Canceler: Off
                 ; 0000 0ABD // Input Capture on Falling Edge
                 ; 0000 0ABE // Timer1 Overflow Interrupt: Off
                 ; 0000 0ABF // Input Capture Interrupt: Off
                 ; 0000 0AC0 // Compare A Match Interrupt: Off
                 ; 0000 0AC1 // Compare B Match Interrupt: Off
                 ; 0000 0AC2 // Compare C Match Interrupt: Off
                 ; 0000 0AC3 TCCR1A=0x00;
000fb8 bdef      	OUT  0x2F,R30
                 ; 0000 0AC4 TCCR1B=0x00;
000fb9 bdee      	OUT  0x2E,R30
                 ; 0000 0AC5 TCNT1H=0x00;
000fba bded      	OUT  0x2D,R30
                 ; 0000 0AC6 TCNT1L=0x00;
000fbb bdec      	OUT  0x2C,R30
                 ; 0000 0AC7 ICR1H=0x00;
000fbc bde7      	OUT  0x27,R30
                 ; 0000 0AC8 ICR1L=0x00;
000fbd bde6      	OUT  0x26,R30
                 ; 0000 0AC9 OCR1AH=0x00;
000fbe bdeb      	OUT  0x2B,R30
                 ; 0000 0ACA OCR1AL=0x00;
000fbf bdea      	OUT  0x2A,R30
                 ; 0000 0ACB OCR1BH=0x00;
000fc0 bde9      	OUT  0x29,R30
                 ; 0000 0ACC OCR1BL=0x00;
000fc1 bde8      	OUT  0x28,R30
                 ; 0000 0ACD OCR1CH=0x00;
000fc2 93e0 0079 	STS  121,R30
                 ; 0000 0ACE OCR1CL=0x00;
000fc4 93e0 0078 	STS  120,R30
                 ; 0000 0ACF 
                 ; 0000 0AD0 // Timer/Counter 2 initialization
                 ; 0000 0AD1 // Clock source: System Clock
                 ; 0000 0AD2 // Clock value: Timer2 Stopped
                 ; 0000 0AD3 // Mode: Normal top=0xFF
                 ; 0000 0AD4 // OC2 output: Disconnected
                 ; 0000 0AD5 TCCR2=0x00;
000fc6 bde5      	OUT  0x25,R30
                 ; 0000 0AD6 TCNT2=0x00;
000fc7 bde4      	OUT  0x24,R30
                 ; 0000 0AD7 OCR2=0x00;
000fc8 bde3      	OUT  0x23,R30
                 ; 0000 0AD8 
                 ; 0000 0AD9 // Timer/Counter 3 initialization
                 ; 0000 0ADA // Clock source: System Clock
                 ; 0000 0ADB // Clock value: Timer3 Stopped
                 ; 0000 0ADC // Mode: Normal top=0xFFFF
                 ; 0000 0ADD // OC3A output: Discon.
                 ; 0000 0ADE // OC3B output: Discon.
                 ; 0000 0ADF // OC3C output: Discon.
                 ; 0000 0AE0 // Noise Canceler: Off
                 ; 0000 0AE1 // Input Capture on Falling Edge
                 ; 0000 0AE2 // Timer3 Overflow Interrupt: Off
                 ; 0000 0AE3 // Input Capture Interrupt: Off
                 ; 0000 0AE4 // Compare A Match Interrupt: Off
                 ; 0000 0AE5 // Compare B Match Interrupt: Off
                 ; 0000 0AE6 // Compare C Match Interrupt: Off
                 ; 0000 0AE7 TCCR3A=0x00;
000fc9 93e0 008b 	STS  139,R30
                 ; 0000 0AE8 TCCR3B=0x00;
000fcb 93e0 008a 	STS  138,R30
                 ; 0000 0AE9 TCNT3H=0x00;
000fcd 93e0 0089 	STS  137,R30
                 ; 0000 0AEA TCNT3L=0x00;
000fcf 93e0 0088 	STS  136,R30
                 ; 0000 0AEB ICR3H=0x00;
000fd1 93e0 0081 	STS  129,R30
                 ; 0000 0AEC ICR3L=0x00;
000fd3 93e0 0080 	STS  128,R30
                 ; 0000 0AED OCR3AH=0x00;
000fd5 93e0 0087 	STS  135,R30
                 ; 0000 0AEE OCR3AL=0x00;
000fd7 93e0 0086 	STS  134,R30
                 ; 0000 0AEF OCR3BH=0x00;
000fd9 93e0 0085 	STS  133,R30
                 ; 0000 0AF0 OCR3BL=0x00;
000fdb 93e0 0084 	STS  132,R30
                 ; 0000 0AF1 OCR3CH=0x00;
000fdd 93e0 0083 	STS  131,R30
                 ; 0000 0AF2 OCR3CL=0x00;
000fdf 93e0 0082 	STS  130,R30
                 ; 0000 0AF3 
                 ; 0000 0AF4 // External Interrupt(s) initialization
                 ; 0000 0AF5 // INT0: Off
                 ; 0000 0AF6 // INT1: Off
                 ; 0000 0AF7 // INT2: Off
                 ; 0000 0AF8 // INT3: Off
                 ; 0000 0AF9 // INT4: Off
                 ; 0000 0AFA // INT5: Off
                 ; 0000 0AFB // INT6: Off
                 ; 0000 0AFC // INT7: Off
                 ; 0000 0AFD EICRA=0x00;
000fe1 93e0 006a 	STS  106,R30
                 ; 0000 0AFE EICRB=0x00;
000fe3 bfea      	OUT  0x3A,R30
                 ; 0000 0AFF EIMSK=0x00;
000fe4 bfe9      	OUT  0x39,R30
                 ; 0000 0B00 
                 ; 0000 0B01 // Timer(s)/Counter(s) Interrupt(s) initialization
                 ; 0000 0B02 TIMSK=0x01;
000fe5 e0e1      	LDI  R30,LOW(1)
000fe6 bfe7      	OUT  0x37,R30
                 ; 0000 0B03 
                 ; 0000 0B04 ETIMSK=0x00;
000fe7 e0e0      	LDI  R30,LOW(0)
000fe8 93e0 007d 	STS  125,R30
                 ; 0000 0B05 
                 ; 0000 0B06 
                 ; 0000 0B07 // USART0 initialization
                 ; 0000 0B08 // Communication Parameters: 8 Data, 1 Stop, No Parity
                 ; 0000 0B09 // USART0 Receiver: On
                 ; 0000 0B0A // USART0 Transmitter: On
                 ; 0000 0B0B // USART0 Mode: Asynchronous
                 ; 0000 0B0C // USART0 Baud Rate: 115200
                 ; 0000 0B0D UCSR0A=(0<<RXC0) | (0<<TXC0) | (0<<UDRE0) | (0<<FE0) | (0<<DOR0) | (0<<UPE0) | (0<<U2X0) | (0<<MPCM0);
000fea b9eb      	OUT  0xB,R30
                 ; 0000 0B0E UCSR0B=(0<<RXCIE0) | (0<<TXCIE0) | (0<<UDRIE0) | (1<<RXEN0) | (1<<TXEN0) | (0<<UCSZ02) | (0<<RXB80) | (0<<TXB80);
000feb e1e8      	LDI  R30,LOW(24)
000fec b9ea      	OUT  0xA,R30
                 ; 0000 0B0F UCSR0C=(0<<UMSEL0) | (0<<UPM01) | (0<<UPM00) | (0<<USBS0) | (1<<UCSZ01) | (1<<UCSZ00) | (0<<UCPOL0);
000fed e0e6      	LDI  R30,LOW(6)
000fee 93e0 0095 	STS  149,R30
                 ; 0000 0B10 UBRR0H=0x00;
000ff0 e0e0      	LDI  R30,LOW(0)
000ff1 93e0 0090 	STS  144,R30
                 ; 0000 0B11 UBRR0L=0x08;
000ff3 e0e8      	LDI  R30,LOW(8)
000ff4 b9e9      	OUT  0x9,R30
                 ; 0000 0B12 
                 ; 0000 0B13 // USART1 initialization
                 ; 0000 0B14 // USART1 disabled
                 ; 0000 0B15 UCSR1B=(0<<RXCIE1) | (0<<TXCIE1) | (0<<UDRIE1) | (0<<RXEN1) | (0<<TXEN1) | (0<<UCSZ12) | (0<<RXB81) | (0<<TXB81);
000ff5 e0e0      	LDI  R30,LOW(0)
000ff6 93e0 009a 	STS  154,R30
                 ; 0000 0B16 
                 ; 0000 0B17 // Analog Comparator initialization
                 ; 0000 0B18 // Analog Comparator: Off
                 ; 0000 0B19 // Analog Comparator Input Capture by Timer/Counter 1: Off
                 ; 0000 0B1A ACSR=0x80;
000ff8 e8e0      	LDI  R30,LOW(128)
000ff9 b9e8      	OUT  0x8,R30
                 ; 0000 0B1B SFIOR=0x00;
000ffa e0e0      	LDI  R30,LOW(0)
000ffb bde0      	OUT  0x20,R30
                 ; 0000 0B1C 
                 ; 0000 0B1D // ADC initialization
                 ; 0000 0B1E // ADC disabled
                 ; 0000 0B1F ADCSRA=0x00;
000ffc b9e6      	OUT  0x6,R30
                 ; 0000 0B20 
                 ; 0000 0B21 // SPI initialization
                 ; 0000 0B22 // SPI disabled
                 ; 0000 0B23 SPCR=0x00;
000ffd b9ed      	OUT  0xD,R30
                 ; 0000 0B24 
                 ; 0000 0B25 // TWI initialization
                 ; 0000 0B26 // TWI disabled
                 ; 0000 0B27 TWCR=0x00;
000ffe 93e0 0074 	STS  116,R30
                 ; 0000 0B28 
                 ; 0000 0B29 //ciekawe, tej linijki brakowalo w medalach ,wyczailem w borgu
                 ; 0000 0B2A // I2C Bus initialization
                 ; 0000 0B2B i2c_init();
001000 940e 1b6d 	CALL _i2c_init
                 ; 0000 0B2C 
                 ; 0000 0B2D // Global enable interrupts
                 ; 0000 0B2E #asm("sei")
001002 9478      	sei
                 ; 0000 0B2F 
                 ; 0000 0B30 
                 ; 0000 0B31 //delay_ms(8000); //bo panel sie inicjalizuje
                 ; 0000 0B32 //delay_ms(2000); //bo panel sie inicjalizuje
                 ; 0000 0B33 delay_ms(2000); //bo panel sie inicjalizuje
001003 940e 18f2 	CALL SUBOPT_0x29
                 ; 0000 0B34 delay_ms(2000); //bo panel sie inicjalizuje
001005 940e 18f2 	CALL SUBOPT_0x29
                 ; 0000 0B35 delay_ms(2000); //bo panel sie inicjalizuje
001007 940e 18f2 	CALL SUBOPT_0x29
                 ; 0000 0B36 delay_ms(2000); //bo panel sie inicjalizuje
001009 940e 18f2 	CALL SUBOPT_0x29
                 ; 0000 0B37 
                 ; 0000 0B38 //delay_ms(2000); //bo panel sie inicjalizuje
                 ; 0000 0B39 //delay_ms(2000); //bo panel sie inicjalizuje
                 ; 0000 0B3A //delay_ms(2000); //bo panel sie inicjalizuje
                 ; 0000 0B3B //delay_ms(2000); //bo panel sie inicjalizuje
                 ; 0000 0B3C 
                 ; 0000 0B3D //jak patrze na maszyne to ten po lewej to 1
                 ; 0000 0B3E 
                 ; 0000 0B3F putchar(90);  //5A
00100b 940e 17c0 	CALL SUBOPT_0x1
                 ; 0000 0B40 putchar(165); //A5
                 ; 0000 0B41 putchar(3);//03  //znak dzwiekowy ze jestem
00100d e0e3      	LDI  R30,LOW(3)
00100e 93ea      	ST   -Y,R30
00100f 940e 1646 	CALL _putchar
                 ; 0000 0B42 putchar(128);  //80
001011 e8e0      	LDI  R30,LOW(128)
001012 93ea      	ST   -Y,R30
001013 940e 1646 	CALL _putchar
                 ; 0000 0B43 putchar(2);    //02
001015 e0e2      	LDI  R30,LOW(2)
001016 93ea      	ST   -Y,R30
001017 940e 1646 	CALL _putchar
                 ; 0000 0B44 putchar(16);   //10
001019 e1e0      	LDI  R30,LOW(16)
00101a 93ea      	ST   -Y,R30
00101b 940e 1646 	CALL _putchar
                 ; 0000 0B45 
                 ; 0000 0B46 il_prob_odczytu = 1;    //100
00101d e0e1      	LDI  R30,LOW(1)
00101e e0f0      	LDI  R31,HIGH(1)
00101f 015f      	MOVW R10,R30
                 ; 0000 0B47 start = 0;
001020 e0e0      	LDI  R30,LOW(0)
001021 93e0 0525 	STS  _start,R30
001023 93e0 0526 	STS  _start+1,R30
                 ; 0000 0B48 szczotka_druciana_ilosc_cykli = 4;
001025 e0e4      	LDI  R30,LOW(4)
001026 e0f0      	LDI  R31,HIGH(4)
001027 93e0 0545 	STS  _szczotka_druciana_ilosc_cykli,R30
001029 93f0 0546 	STS  _szczotka_druciana_ilosc_cykli+1,R31
                 ; 0000 0B49 krazek_scierny_cykl_po_okregu_ilosc = 4;
00102b 93e0 0551 	STS  _krazek_scierny_cykl_po_okregu_ilosc,R30
00102d 93f0 0552 	STS  _krazek_scierny_cykl_po_okregu_ilosc+1,R31
                 ; 0000 0B4A krazek_scierny_ilosc_cykli = 4;
00102f 93e0 0555 	STS  _krazek_scierny_ilosc_cykli,R30
001031 93f0 0556 	STS  _krazek_scierny_ilosc_cykli+1,R31
                 ; 0000 0B4B rzad_obrabiany = 1;
001033 940e 18f8 	CALL SUBOPT_0x2A
                 ; 0000 0B4C jestem_w_trakcie_czyszczenia_calosci = 0;
001035 940e 18ff 	CALL SUBOPT_0x2B
                 ; 0000 0B4D wykonalem_rzedow = 0;
001037 940e 1905 	CALL SUBOPT_0x2C
                 ; 0000 0B4E cykl_ilosc_zaciskow = 0;
001039 940e 190a 	CALL SUBOPT_0x2D
                 ; 0000 0B4F guzik1_przelaczania_zaciskow = 1;
00103b 9468      	SET
00103c f820      	BLD  R2,0
                 ; 0000 0B50 guzik2_przelaczania_zaciskow = 1;
00103d f821      	BLD  R2,1
                 ; 0000 0B51 PORTE.6 = 1;  //aby byl dostep do zaciskow rzad 1
00103e 9a1e      	SBI  0x3,6
                 ; 0000 0B52 zmienna_przelaczanie_zaciskow = 1;
00103f f822      	BLD  R2,2
                 ; 0000 0B53 czas_przedmuchu = 183;
001040 ebe7      	LDI  R30,LOW(183)
001041 e0f0      	LDI  R31,HIGH(183)
001042 93e0 0569 	STS  _czas_przedmuchu,R30
001044 93f0 056a 	STS  _czas_przedmuchu+1,R31
                 ; 0000 0B54 
                 ; 0000 0B55 
                 ; 0000 0B56 adr1 = 80;  //rzad 1
001046 e5e0      	LDI  R30,LOW(80)
001047 e0f0      	LDI  R31,HIGH(80)
001048 93e0 053b 	STS  _adr1,R30
00104a 93f0 053c 	STS  _adr1+1,R31
                 ; 0000 0B57 adr2 = 0;   //
00104c e0e0      	LDI  R30,LOW(0)
00104d 93e0 053d 	STS  _adr2,R30
00104f 93e0 053e 	STS  _adr2+1,R30
                 ; 0000 0B58 adr3 = 64;  //rzad 2
001051 e4e0      	LDI  R30,LOW(64)
001052 e0f0      	LDI  R31,HIGH(64)
001053 93e0 053f 	STS  _adr3,R30
001055 93f0 0540 	STS  _adr3+1,R31
                 ; 0000 0B59 adr4 = 0;
001057 e0e0      	LDI  R30,LOW(0)
001058 93e0 0541 	STS  _adr4,R30
00105a 93e0 0542 	STS  _adr4+1,R30
                 ; 0000 0B5A 
                 ; 0000 0B5B 
                 ; 0000 0B5C 
                 ; 0000 0B5D //zapal lampki
                 ; 0000 0B5E //PORTB.6 = 1;
                 ; 0000 0B5F //PORTD.7 = 1;
                 ; 0000 0B60 //PORT_F.bits.b6 = 1;
                 ; 0000 0B61 //PORTF = PORT_F.byte;
                 ; 0000 0B62 
                 ; 0000 0B63 //PORT_F.bits.b4 = 0;  //przedmuch zaciskow
                 ; 0000 0B64 //PORTF = PORT_F.byte;
                 ; 0000 0B65 //PORTB.4 = 1;  //przedmuch osi
                 ; 0000 0B66 //PORTE.2 = 1;  //szlifierka 1
                 ; 0000 0B67 //PORTE.3 = 1;  //szlifierka 2
                 ; 0000 0B68 //PORTE.6 = 0;  //zacisniety rzad 1
                 ; 0000 0B69 //PORTE.6 = 1;  //zacisniety rzad 2
                 ; 0000 0B6A //PORTE.7 = 0;    //zacisnij zaciski
                 ; 0000 0B6B 
                 ; 0000 0B6C //zalozenie: nie mozna czytac kodow kreskowych jak juz dalem start i idzie, dopoki nie skonczy
                 ; 0000 0B6D 
                 ; 0000 0B6E 
                 ; 0000 0B6F wypozycjonuj_napedy_minimalistyczna();
00105c dbac      	RCALL _wypozycjonuj_napedy_minimalistyczna
                 ; 0000 0B70 sprawdz_cisnienie();
00105d 940e 0498 	CALL _sprawdz_cisnienie
                 ; 0000 0B71 
                 ; 0000 0B72 while (1)
                 _0x1DF:
                 ; 0000 0B73       {
                 ; 0000 0B74       ostateczny_wybor_zacisku();
00105f dc7b      	RCALL _ostateczny_wybor_zacisku
                 ; 0000 0B75       start = odczytaj_parametr(0,64);
001060 940e 1910 	CALL SUBOPT_0x2E
001062 940e 1915 	CALL SUBOPT_0x2F
001064 93e0 0525 	STS  _start,R30
001066 93f0 0526 	STS  _start+1,R31
                 ; 0000 0B76       il_zaciskow_rzad_1 = odczytaj_parametr(0,128);
001068 940e 1910 	CALL SUBOPT_0x2E
00106a e8e0      	LDI  R30,LOW(128)
00106b e0f0      	LDI  R31,HIGH(128)
00106c 93fa      	ST   -Y,R31
00106d 93ea      	ST   -Y,R30
00106e 940e 03ca 	CALL _odczytaj_parametr
001070 93e0 052f 	STS  _il_zaciskow_rzad_1,R30
001072 93f0 0530 	STS  _il_zaciskow_rzad_1+1,R31
                 ; 0000 0B77       il_zaciskow_rzad_2 = odczytaj_parametr(0,48);
001074 940e 1910 	CALL SUBOPT_0x2E
001076 e3e0      	LDI  R30,LOW(48)
001077 e0f0      	LDI  R31,HIGH(48)
001078 93fa      	ST   -Y,R31
001079 93ea      	ST   -Y,R30
00107a 940e 03ca 	CALL _odczytaj_parametr
00107c 93e0 0531 	STS  _il_zaciskow_rzad_2,R30
00107e 93f0 0532 	STS  _il_zaciskow_rzad_2+1,R31
                 ; 0000 0B78       przerzucanie_dociskow();
001080 dc0e      	RCALL _przerzucanie_dociskow
                 ; 0000 0B79       wybor_linijek_sterownikow();
001081 db51      	RCALL _wybor_linijek_sterownikow
                 ; 0000 0B7A 
                 ; 0000 0B7B 
                 ; 0000 0B7C       while((start == 1 & il_zaciskow_rzad_1 > 0) | jestem_w_trakcie_czyszczenia_calosci == 1)
                 _0x1E2:
001082 91a0 0525 	LDS  R26,_start
001084 91b0 0526 	LDS  R27,_start+1
001086 940e 187f 	CALL SUBOPT_0x1A
001088 940e 191b 	CALL SUBOPT_0x30
00108a 940e 1921 	CALL SUBOPT_0x31
00108c 91a0 0563 	LDS  R26,_jestem_w_trakcie_czyszczenia_calosci
00108e 91b0 0564 	LDS  R27,_jestem_w_trakcie_czyszczenia_calosci+1
001090 940e 187f 	CALL SUBOPT_0x1A
001092 29e0      	OR   R30,R0
001093 f411      	BRNE PC+3
001094 940c 162b 	JMP _0x1E4
                 ; 0000 0B7D             {
                 ; 0000 0B7E             switch (cykl_glowny)
001096 91e0 0549 	LDS  R30,_cykl_glowny
001098 91f0 054a 	LDS  R31,_cykl_glowny+1
                 ; 0000 0B7F             {
                 ; 0000 0B80             case 0:
00109a 9730      	SBIW R30,0
00109b f011      	BREQ PC+3
00109c 940c 10fb 	JMP _0x1E8
                 ; 0000 0B81 
                 ; 0000 0B82 
                 ; 0000 0B83                     PORTB.6 = 1;   ////zielona lampka
00109e 9ac6      	SBI  0x18,6
                 ; 0000 0B84                     if(jestem_w_trakcie_czyszczenia_calosci == 0)
00109f 91e0 0563 	LDS  R30,_jestem_w_trakcie_czyszczenia_calosci
0010a1 91f0 0564 	LDS  R31,_jestem_w_trakcie_czyszczenia_calosci+1
0010a3 9730      	SBIW R30,0
0010a4 f461      	BRNE _0x1EB
                 ; 0000 0B85                         {
                 ; 0000 0B86                         wartosc_parametru_panelu(0,0,16);  //wykonano zaciskow rzad1
0010a5 940e 1910 	CALL SUBOPT_0x2E
0010a7 940e 1910 	CALL SUBOPT_0x2E
0010a9 940e 1927 	CALL SUBOPT_0x32
                 ; 0000 0B87                         wartosc_parametru_panelu(0,0,96);  //wykonano zaciskow rzad2
0010ab 940e 1910 	CALL SUBOPT_0x2E
0010ad 940e 1910 	CALL SUBOPT_0x2E
0010af 940e 192d 	CALL SUBOPT_0x33
                 ; 0000 0B88                         }
                 ; 0000 0B89 
                 ; 0000 0B8A                     jestem_w_trakcie_czyszczenia_calosci = 1;
                 _0x1EB:
0010b1 e0e1      	LDI  R30,LOW(1)
0010b2 e0f0      	LDI  R31,HIGH(1)
0010b3 93e0 0563 	STS  _jestem_w_trakcie_czyszczenia_calosci,R30
0010b5 93f0 0564 	STS  _jestem_w_trakcie_czyszczenia_calosci+1,R31
                 ; 0000 0B8B 
                 ; 0000 0B8C                     if(rzad_obrabiany == 1)
0010b7 940e 1933 	CALL SUBOPT_0x34
0010b9 9711      	SBIW R26,1
0010ba f489      	BRNE _0x1EC
                 ; 0000 0B8D                     {
                 ; 0000 0B8E                     PORTE.6 = 0;    //przelacz rzad zaciskow - rzad 1
0010bb 981e      	CBI  0x3,6
                 ; 0000 0B8F                     if(cykl_sterownik_1 < 5)
0010bc 940e 1938 	CALL SUBOPT_0x35
0010be f424      	BRGE _0x1EF
                 ; 0000 0B90                         cykl_sterownik_1 = sterownik_1_praca(0x09,0);
0010bf 940e 193e 	CALL SUBOPT_0x36
0010c1 940e 1943 	CALL SUBOPT_0x37
                 ; 0000 0B91                     if(cykl_sterownik_2 < 5)                                //ster 1 do 0
                 _0x1EF:
0010c3 940e 1946 	CALL SUBOPT_0x38
0010c5 f434      	BRGE _0x1F0
                 ; 0000 0B92                         cykl_sterownik_2 = sterownik_2_praca(0x00,0);       //ster 2 pod pin pozy rzad 1
0010c6 940e 1910 	CALL SUBOPT_0x2E
0010c8 940e 1910 	CALL SUBOPT_0x2E
0010ca 940e 194c 	CALL SUBOPT_0x39
                 ; 0000 0B93                     }
                 _0x1F0:
                 ; 0000 0B94 
                 ; 0000 0B95                     if(rzad_obrabiany == 2)
                 _0x1EC:
0010cc 940e 1933 	CALL SUBOPT_0x34
0010ce 9712      	SBIW R26,2
0010cf f479      	BRNE _0x1F1
                 ; 0000 0B96                     {
                 ; 0000 0B97                     PORTE.6 = 1;    //przelacz rzad zaciskow - rzad 2
0010d0 9a1e      	SBI  0x3,6
                 ; 0000 0B98                     if(cykl_sterownik_1 < 5)
0010d1 940e 1938 	CALL SUBOPT_0x35
0010d3 f424      	BRGE _0x1F4
                 ; 0000 0B99                         cykl_sterownik_1 = sterownik_1_praca(0x08,0);
0010d4 940e 194f 	CALL SUBOPT_0x3A
0010d6 940e 1943 	CALL SUBOPT_0x37
                 ; 0000 0B9A                     if(cykl_sterownik_2 < 5)                                //ster 1 do 0
                 _0x1F4:
0010d8 940e 1946 	CALL SUBOPT_0x38
0010da f424      	BRGE _0x1F5
                 ; 0000 0B9B                         cykl_sterownik_2 = sterownik_2_praca(0x01,0);       //ster 2 pod pin pozy rzad 2
0010db 940e 1954 	CALL SUBOPT_0x3B
0010dd 940e 194c 	CALL SUBOPT_0x39
                 ; 0000 0B9C                     }
                 _0x1F5:
                 ; 0000 0B9D 
                 ; 0000 0B9E 
                 ; 0000 0B9F                     if(cykl_sterownik_1 == 5 & cykl_sterownik_2 == 5)
                 _0x1F1:
0010df 940e 1959 	CALL SUBOPT_0x3C
0010e1 940e 1960 	CALL SUBOPT_0x3D
0010e3 21e0      	AND  R30,R0
0010e4 f0a9      	BREQ _0x1F6
                 ; 0000 0BA0                         {
                 ; 0000 0BA1 
                 ; 0000 0BA2                         cykl_sterownik_1 = 0;
0010e5 940e 196c 	CALL SUBOPT_0x3E
                 ; 0000 0BA3                         cykl_sterownik_2 = 0;
                 ; 0000 0BA4                         cykl_sterownik_3 = 0;
0010e7 940e 1976 	CALL SUBOPT_0x3F
                 ; 0000 0BA5                         cykl_sterownik_4 = 0;
0010e9 940e 197c 	CALL SUBOPT_0x40
                 ; 0000 0BA6                         cykl_ilosc_zaciskow = 0;
0010eb 940e 190a 	CALL SUBOPT_0x2D
                 ; 0000 0BA7                         koniec_rzedu_10 = 0;
0010ed 940e 1981 	CALL SUBOPT_0x41
                 ; 0000 0BA8                         start_kontynuacja = odczytaj_parametr(0,64);
0010ef 940e 1910 	CALL SUBOPT_0x2E
0010f1 940e 1915 	CALL SUBOPT_0x2F
0010f3 940e 1987 	CALL SUBOPT_0x42
                 ; 0000 0BA9                         if(start_kontynuacja == 1)
0010f5 f421      	BRNE _0x1F7
                 ; 0000 0BAA                             cykl_glowny = 1;
0010f6 e0e1      	LDI  R30,LOW(1)
0010f7 e0f0      	LDI  R31,HIGH(1)
0010f8 940e 1991 	CALL SUBOPT_0x43
                 ; 0000 0BAB                         }
                 _0x1F7:
                 ; 0000 0BAC 
                 ; 0000 0BAD             break;
                 _0x1F6:
0010fa c52f      	RJMP _0x1E7
                 ; 0000 0BAE 
                 ; 0000 0BAF 
                 ; 0000 0BB0 
                 ; 0000 0BB1             case 1:
                 _0x1E8:
0010fb 30e1      	CPI  R30,LOW(0x1)
0010fc e0a0      	LDI  R26,HIGH(0x1)
0010fd 07fa      	CPC  R31,R26
0010fe f011      	BREQ PC+3
0010ff 940c 1150 	JMP _0x1F8
                 ; 0000 0BB2 
                 ; 0000 0BB3 
                 ; 0000 0BB4                      if(cykl_sterownik_2 < 5 & rzad_obrabiany == 1)
001101 940e 1996 	CALL SUBOPT_0x44
001103 940e 187f 	CALL SUBOPT_0x1A
001105 21e0      	AND  R30,R0
001106 f061      	BREQ _0x1F9
                 ; 0000 0BB5                         //cykl_sterownik_2 = sterownik_2_praca(0x5A,0);         //ster 1 nic
                 ; 0000 0BB6                           cykl_sterownik_2 = sterownik_2_praca(a[0],a[1]);        //ster 2 pod zacisk
001107 91e0 056b 	LDS  R30,_a
001109 91f0 056c 	LDS  R31,_a+1
00110b 93fa      	ST   -Y,R31
00110c 93ea      	ST   -Y,R30
                +
00110d 91e0 056d+LDS R30 , _a + ( 2 )
00110f 91f0 056e+LDS R31 , _a + ( 2 ) + 1
                 	__GETW1MN _a,2
001111 940e 19a0 	CALL SUBOPT_0x45
                 ; 0000 0BB7                                                                               //ster 4 na pozycje miedzy rzedzami
                 ; 0000 0BB8 
                 ; 0000 0BB9                      if(cykl_sterownik_2 < 5 & rzad_obrabiany == 2)
                 _0x1F9:
001113 940e 1996 	CALL SUBOPT_0x44
001115 940e 19a3 	CALL SUBOPT_0x46
001117 f061      	BREQ _0x1FA
                 ; 0000 0BBA                         //cykl_sterownik_2 = sterownik_2_praca(0x5B,0);
                 ; 0000 0BBB                           cykl_sterownik_2 = sterownik_2_praca(a[2],a[3]);
                +
001118 91e0 056f+LDS R30 , _a + ( 4 )
00111a 91f0 0570+LDS R31 , _a + ( 4 ) + 1
                 	__GETW1MN _a,4
00111c 93fa      	ST   -Y,R31
00111d 93ea      	ST   -Y,R30
                +
00111e 91e0 0571+LDS R30 , _a + ( 6 )
001120 91f0 0572+LDS R31 , _a + ( 6 ) + 1
                 	__GETW1MN _a,6
001122 940e 19a0 	CALL SUBOPT_0x45
                 ; 0000 0BBC 
                 ; 0000 0BBD                      if(cykl_sterownik_4 < 5 & cykl_sterownik_2 == 5)
                 _0x1FA:
001124 940e 19a9 	CALL SUBOPT_0x47
001126 940e 1bef 	CALL __LTW12
001128 2e0e      	MOV  R0,R30
001129 940e 19b0 	CALL SUBOPT_0x48
00112b 21e0      	AND  R30,R0
00112c f041      	BREQ _0x1FB
                 ; 0000 0BBE                         cykl_sterownik_4 = sterownik_4_praca(0,0,0,0,0,1);
00112d 940e 19b9 	CALL SUBOPT_0x49
00112f e0e0      	LDI  R30,LOW(0)
001130 93ea      	ST   -Y,R30
001131 940e 19b9 	CALL SUBOPT_0x49
001133 940e 19bd 	CALL SUBOPT_0x4A
                 ; 0000 0BBF 
                 ; 0000 0BC0 
                 ; 0000 0BC1                       if(cykl_sterownik_2 == 5 & cykl_sterownik_4 == 5)
                 _0x1FB:
001135 940e 19b0 	CALL SUBOPT_0x48
001137 2e0e      	MOV  R0,R30
001138 940e 19a9 	CALL SUBOPT_0x47
00113a 940e 1bdd 	CALL __EQW12
00113c 21e0      	AND  R30,R0
00113d f089      	BREQ _0x1FC
                 ; 0000 0BC2                         {
                 ; 0000 0BC3                         cykl_sterownik_1 = 0;
00113e 940e 196c 	CALL SUBOPT_0x3E
                 ; 0000 0BC4                         cykl_sterownik_2 = 0;
                 ; 0000 0BC5                         cykl_sterownik_4 = 0;
001140 940e 197c 	CALL SUBOPT_0x40
                 ; 0000 0BC6                         szczotka_druc_cykl = 0;
001142 940e 19c2 	CALL SUBOPT_0x4B
                 ; 0000 0BC7 
                 ; 0000 0BC8 
                 ; 0000 0BC9                         start_kontynuacja = odczytaj_parametr(0,64);
001144 940e 1910 	CALL SUBOPT_0x2E
001146 940e 1915 	CALL SUBOPT_0x2F
001148 940e 1987 	CALL SUBOPT_0x42
                 ; 0000 0BCA                         if(start_kontynuacja == 1)
00114a f421      	BRNE _0x1FD
                 ; 0000 0BCB                             cykl_glowny = 2;
00114b e0e2      	LDI  R30,LOW(2)
00114c e0f0      	LDI  R31,HIGH(2)
00114d 940e 1991 	CALL SUBOPT_0x43
                 ; 0000 0BCC                         }
                 _0x1FD:
                 ; 0000 0BCD 
                 ; 0000 0BCE 
                 ; 0000 0BCF             break;
                 _0x1FC:
00114f c4da      	RJMP _0x1E7
                 ; 0000 0BD0 
                 ; 0000 0BD1 
                 ; 0000 0BD2             case 2:
                 _0x1F8:
001150 30e2      	CPI  R30,LOW(0x2)
001151 e0a0      	LDI  R26,HIGH(0x2)
001152 07fa      	CPC  R31,R26
001153 f4c1      	BRNE _0x1FE
                 ; 0000 0BD3 
                 ; 0000 0BD4                     if(cykl_sterownik_4 < 5)
001154 940e 19c8 	CALL SUBOPT_0x4C
001156 f424      	BRGE _0x1FF
                 ; 0000 0BD5                         cykl_sterownik_4 = sterownik_4_praca(1,0,0,0,1,0);  //ABS
001157 940e 19ce 	CALL SUBOPT_0x4D
001159 940e 19d1 	CALL SUBOPT_0x4E
                 ; 0000 0BD6                     if(cykl_sterownik_4 == 5)
                 _0x1FF:
00115b 940e 19c8 	CALL SUBOPT_0x4C
00115d f469      	BRNE _0x200
                 ; 0000 0BD7                         {
                 ; 0000 0BD8                         PORTE.2 = 1;  //wlacz szlifierke
00115e 9a1a      	SBI  0x3,2
                 ; 0000 0BD9                         cykl_sterownik_4 = 0;
00115f e0e0      	LDI  R30,LOW(0)
001160 940e 19da 	CALL SUBOPT_0x4F
                 ; 0000 0BDA                         start_kontynuacja = odczytaj_parametr(0,64);
001162 940e 1915 	CALL SUBOPT_0x2F
001164 940e 1987 	CALL SUBOPT_0x42
                 ; 0000 0BDB                         if(start_kontynuacja == 1)
001166 f421      	BRNE _0x203
                 ; 0000 0BDC                             cykl_glowny = 3;
001167 e0e3      	LDI  R30,LOW(3)
001168 e0f0      	LDI  R31,HIGH(3)
001169 940e 1991 	CALL SUBOPT_0x43
                 ; 0000 0BDD                         }
                 _0x203:
                 ; 0000 0BDE 
                 ; 0000 0BDF             break;
                 _0x200:
00116b c4be      	RJMP _0x1E7
                 ; 0000 0BE0 
                 ; 0000 0BE1 
                 ; 0000 0BE2             case 3:
                 _0x1FE:
00116c 30e3      	CPI  R30,LOW(0x3)
00116d e0a0      	LDI  R26,HIGH(0x3)
00116e 07fa      	CPC  R31,R26
00116f f571      	BRNE _0x204
                 ; 0000 0BE3                     if(cykl_sterownik_4 < 5)
001170 940e 19c8 	CALL SUBOPT_0x4C
001172 f424      	BRGE _0x205
                 ; 0000 0BE4                        cykl_sterownik_4 = sterownik_4_praca(0,1,0,0,0,1); //INV
001173 940e 19dc 	CALL SUBOPT_0x50
001175 940e 19df 	CALL SUBOPT_0x51
                 ; 0000 0BE5 
                 ; 0000 0BE6                     if(cykl_sterownik_4 == 5 & szczotka_druc_cykl < szczotka_druciana_ilosc_cykli)
                 _0x205:
001177 940e 19a9 	CALL SUBOPT_0x47
001179 940e 19e2 	CALL SUBOPT_0x52
00117b f109      	BREQ _0x206
                 ; 0000 0BE7                         {
                 ; 0000 0BE8                         szczotka_druc_cykl++;
00117c 940e 19f1 	CALL SUBOPT_0x53
                 ; 0000 0BE9                         cykl_sterownik_4 = 0;
00117e e0e0      	LDI  R30,LOW(0)
00117f 940e 197c 	CALL SUBOPT_0x40
                 ; 0000 0BEA 
                 ; 0000 0BEB                         if(szczotka_druc_cykl == szczotka_druciana_ilosc_cykli)
001181 940e 19f9 	CALL SUBOPT_0x54
001183 17ea      	CP   R30,R26
001184 07fb      	CPC  R31,R27
001185 f461      	BRNE _0x207
                 ; 0000 0BEC                             {
                 ; 0000 0BED                             start_kontynuacja = odczytaj_parametr(0,64);
001186 940e 1910 	CALL SUBOPT_0x2E
001188 940e 1915 	CALL SUBOPT_0x2F
00118a 940e 1987 	CALL SUBOPT_0x42
                 ; 0000 0BEE                             if(start_kontynuacja == 1)
00118c f421      	BRNE _0x208
                 ; 0000 0BEF                                   cykl_glowny = 4;
00118d e0e4      	LDI  R30,LOW(4)
00118e e0f0      	LDI  R31,HIGH(4)
00118f 940e 1991 	CALL SUBOPT_0x43
                 ; 0000 0BF0                             }
                 _0x208:
                 ; 0000 0BF1                         else
001191 c00b      	RJMP _0x209
                 _0x207:
                 ; 0000 0BF2                             {
                 ; 0000 0BF3                             start_kontynuacja = odczytaj_parametr(0,64);
001192 940e 1910 	CALL SUBOPT_0x2E
001194 940e 1915 	CALL SUBOPT_0x2F
001196 940e 1987 	CALL SUBOPT_0x42
                 ; 0000 0BF4                             if(start_kontynuacja == 1)
001198 f421      	BRNE _0x20A
                 ; 0000 0BF5                                 cykl_glowny = 2;
001199 e0e2      	LDI  R30,LOW(2)
00119a e0f0      	LDI  R31,HIGH(2)
00119b 940e 1991 	CALL SUBOPT_0x43
                 ; 0000 0BF6 
                 ; 0000 0BF7 
                 ; 0000 0BF8                             }
                 _0x20A:
                 _0x209:
                 ; 0000 0BF9                         }
                 ; 0000 0BFA 
                 ; 0000 0BFB 
                 ; 0000 0BFC 
                 ; 0000 0BFD             break;
                 _0x206:
00119d c48c      	RJMP _0x1E7
                 ; 0000 0BFE 
                 ; 0000 0BFF             case 4:
                 _0x204:
00119e 30e4      	CPI  R30,LOW(0x4)
00119f e0a0      	LDI  R26,HIGH(0x4)
0011a0 07fa      	CPC  R31,R26
0011a1 f4e9      	BRNE _0x20B
                 ; 0000 0C00 
                 ; 0000 0C01                      if(cykl_sterownik_4 < 5)
0011a2 940e 19c8 	CALL SUBOPT_0x4C
0011a4 f434      	BRGE _0x20C
                 ; 0000 0C02                         cykl_sterownik_4 = sterownik_4_praca(0,0,0,0,0,1);  //do pozycji bazowej
0011a5 940e 19b9 	CALL SUBOPT_0x49
0011a7 940e 19b9 	CALL SUBOPT_0x49
0011a9 940e 19df 	CALL SUBOPT_0x51
                 ; 0000 0C03 
                 ; 0000 0C04                      if(cykl_sterownik_4 == 5)
                 _0x20C:
0011ab 940e 19c8 	CALL SUBOPT_0x4C
0011ad f481      	BRNE _0x20D
                 ; 0000 0C05                         {
                 ; 0000 0C06                         PORTE.2 = 0;  //wylacz szlifierke
0011ae 981a      	CBI  0x3,2
                 ; 0000 0C07                         cykl_sterownik_4 = 0;
0011af e0e0      	LDI  R30,LOW(0)
0011b0 940e 19da 	CALL SUBOPT_0x4F
                 ; 0000 0C08                         start_kontynuacja = odczytaj_parametr(0,64);
0011b2 940e 1915 	CALL SUBOPT_0x2F
0011b4 940e 1987 	CALL SUBOPT_0x42
                 ; 0000 0C09                         if(start_kontynuacja == 1)
0011b6 f439      	BRNE _0x210
                 ; 0000 0C0A                             {
                 ; 0000 0C0B                             ruch_zlozony = 0;
0011b7 e0e0      	LDI  R30,LOW(0)
0011b8 93e0 054d 	STS  _ruch_zlozony,R30
0011ba 93e0 054e 	STS  _ruch_zlozony+1,R30
                 ; 0000 0C0C                             cykl_glowny = 5;
0011bc 940e 1a02 	CALL SUBOPT_0x55
                 ; 0000 0C0D                             }
                 ; 0000 0C0E                         }
                 _0x210:
                 ; 0000 0C0F 
                 ; 0000 0C10             break;
                 _0x20D:
0011be c46b      	RJMP _0x1E7
                 ; 0000 0C11 
                 ; 0000 0C12             case 5:
                 _0x20B:
0011bf 30e5      	CPI  R30,LOW(0x5)
0011c0 e0a0      	LDI  R26,HIGH(0x5)
0011c1 07fa      	CPC  R31,R26
0011c2 f011      	BREQ PC+3
0011c3 940c 1271 	JMP _0x211
                 ; 0000 0C13 
                 ; 0000 0C14 
                 ; 0000 0C15                     if(cykl_sterownik_1 < 5 & ruch_zlozony == 0 & rzad_obrabiany == 1)
0011c5 940e 1959 	CALL SUBOPT_0x3C
0011c7 940e 1a05 	CALL SUBOPT_0x56
0011c9 940e 1a0d 	CALL SUBOPT_0x57
0011cb 21e0      	AND  R30,R0
0011cc f031      	BREQ _0x212
                 ; 0000 0C16                         cykl_sterownik_1 = sterownik_1_praca(0x00,0);
0011cd 940e 1910 	CALL SUBOPT_0x2E
0011cf 940e 1910 	CALL SUBOPT_0x2E
0011d1 940e 1943 	CALL SUBOPT_0x37
                 ; 0000 0C17                     if(cykl_sterownik_1 < 5 & ruch_zlozony == 0 & rzad_obrabiany == 2)
                 _0x212:
0011d3 940e 1959 	CALL SUBOPT_0x3C
0011d5 940e 1a05 	CALL SUBOPT_0x56
0011d7 940e 1a10 	CALL SUBOPT_0x58
0011d9 f021      	BREQ _0x213
                 ; 0000 0C18                         cykl_sterownik_1 = sterownik_1_praca(0x01,0);
0011da 940e 1954 	CALL SUBOPT_0x3B
0011dc 940e 1943 	CALL SUBOPT_0x37
                 ; 0000 0C19 
                 ; 0000 0C1A 
                 ; 0000 0C1B 
                 ; 0000 0C1C                     if(cykl_sterownik_1 == 5 & ruch_zlozony == 0)
                 _0x213:
0011de 940e 1959 	CALL SUBOPT_0x3C
0011e0 940e 1bdd 	CALL __EQW12
0011e2 940e 1a13 	CALL SUBOPT_0x59
0011e4 940e 187a 	CALL SUBOPT_0x19
0011e6 21e0      	AND  R30,R0
0011e7 f041      	BREQ _0x214
                 ; 0000 0C1D                         {
                 ; 0000 0C1E                         cykl_sterownik_1 = 0;
0011e8 940e 1a19 	CALL SUBOPT_0x5A
                 ; 0000 0C1F                         ruch_zlozony = 1;
0011ea e0e1      	LDI  R30,LOW(1)
0011eb e0f0      	LDI  R31,HIGH(1)
0011ec 93e0 054d 	STS  _ruch_zlozony,R30
0011ee 93f0 054e 	STS  _ruch_zlozony+1,R31
                 ; 0000 0C20                         }
                 ; 0000 0C21 
                 ; 0000 0C22                     if(cykl_sterownik_1 < 5 & ruch_zlozony == 1 & rzad_obrabiany == 1)
                 _0x214:
0011f0 940e 1959 	CALL SUBOPT_0x3C
0011f2 940e 1a1f 	CALL SUBOPT_0x5B
0011f4 940e 187f 	CALL SUBOPT_0x1A
0011f6 940e 1a0d 	CALL SUBOPT_0x57
0011f8 21e0      	AND  R30,R0
0011f9 f031      	BREQ _0x215
                 ; 0000 0C23                         cykl_sterownik_1 = sterownik_1_praca(0x5A,0);
0011fa e5ea      	LDI  R30,LOW(90)
0011fb e0f0      	LDI  R31,HIGH(90)
0011fc 940e 1a22 	CALL SUBOPT_0x5C
0011fe 940e 1943 	CALL SUBOPT_0x37
                 ; 0000 0C24                     if(cykl_sterownik_1 < 5 & ruch_zlozony == 1 & rzad_obrabiany == 2)
                 _0x215:
001200 940e 1959 	CALL SUBOPT_0x3C
001202 940e 1a1f 	CALL SUBOPT_0x5B
001204 940e 187f 	CALL SUBOPT_0x1A
001206 940e 1a10 	CALL SUBOPT_0x58
001208 f031      	BREQ _0x216
                 ; 0000 0C25                         cykl_sterownik_1 = sterownik_1_praca(0x5B,0);
001209 e5eb      	LDI  R30,LOW(91)
00120a e0f0      	LDI  R31,HIGH(91)
00120b 940e 1a22 	CALL SUBOPT_0x5C
00120d 940e 1943 	CALL SUBOPT_0x37
                 ; 0000 0C26 
                 ; 0000 0C27 
                 ; 0000 0C28 
                 ; 0000 0C29                     if(cykl_sterownik_1 < 5 & ruch_zlozony == 2)
                 _0x216:
00120f 940e 1959 	CALL SUBOPT_0x3C
001211 940e 1a1f 	CALL SUBOPT_0x5B
001213 940e 19a3 	CALL SUBOPT_0x46
001215 f021      	BREQ _0x217
                 ; 0000 0C2A                         cykl_sterownik_1 = sterownik_1_praca(0x03,0);
001216 940e 1a25 	CALL SUBOPT_0x5D
001218 940e 1943 	CALL SUBOPT_0x37
                 ; 0000 0C2B 
                 ; 0000 0C2C                     if(cykl_sterownik_2 < 5 & koniec_rzedu_10 == 0)                                //ster 1 do pierwszego dolka
                 _0x217:
00121a 940e 1a28 	CALL SUBOPT_0x5E
00121c 940e 187a 	CALL SUBOPT_0x19
00121e 21e0      	AND  R30,R0
00121f f021      	BREQ _0x218
                 ; 0000 0C2D                         cykl_sterownik_2 = sterownik_2_praca(0x03,0);       //ster 2 pod nastpeny dolek
001220 940e 1a25 	CALL SUBOPT_0x5D
001222 940e 194c 	CALL SUBOPT_0x39
                 ; 0000 0C2E 
                 ; 0000 0C2F 
                 ; 0000 0C30                     if(cykl_sterownik_2 < 5 & koniec_rzedu_10 == 1 & rzad_obrabiany == 1)
                 _0x218:
001224 940e 1a28 	CALL SUBOPT_0x5E
001226 940e 187f 	CALL SUBOPT_0x1A
001228 940e 1a0d 	CALL SUBOPT_0x57
00122a 21e0      	AND  R30,R0
00122b f021      	BREQ _0x219
                 ; 0000 0C31                         cykl_sterownik_2 = sterownik_2_praca(0x08,0);      //ster 2 do samego tylu
00122c 940e 194f 	CALL SUBOPT_0x3A
00122e 940e 194c 	CALL SUBOPT_0x39
                 ; 0000 0C32                      if(cykl_sterownik_2 < 5 & koniec_rzedu_10 == 1 & rzad_obrabiany == 2)
                 _0x219:
001230 940e 1a28 	CALL SUBOPT_0x5E
001232 940e 187f 	CALL SUBOPT_0x1A
001234 940e 1a10 	CALL SUBOPT_0x58
001236 f021      	BREQ _0x21A
                 ; 0000 0C33                         cykl_sterownik_2 = sterownik_2_praca(0x09,0);      //ster 2 do samego tylu
001237 940e 193e 	CALL SUBOPT_0x36
001239 940e 194c 	CALL SUBOPT_0x39
                 ; 0000 0C34 
                 ; 0000 0C35                     if((cykl_sterownik_1 == 5 & cykl_sterownik_2 == 5 & ruch_zlozony == 1) | (cykl_sterownik_1 == 5 & cykl_sterownik_2 == 5) & ruch_zlozony == 2)
                 _0x21A:
00123b 940e 1959 	CALL SUBOPT_0x3C
00123d 940e 1960 	CALL SUBOPT_0x3D
00123f 220e      	AND  R0,R30
001240 91a0 054d 	LDS  R26,_ruch_zlozony
001242 91b0 054e 	LDS  R27,_ruch_zlozony+1
001244 940e 187f 	CALL SUBOPT_0x1A
001246 21e0      	AND  R30,R0
001247 2e1e      	MOV  R1,R30
001248 940e 1959 	CALL SUBOPT_0x3C
00124a 940e 1960 	CALL SUBOPT_0x3D
00124c 220e      	AND  R0,R30
00124d 91a0 054d 	LDS  R26,_ruch_zlozony
00124f 91b0 054e 	LDS  R27,_ruch_zlozony+1
001251 940e 19a3 	CALL SUBOPT_0x46
001253 29e1      	OR   R30,R1
001254 f0d9      	BREQ _0x21B
                 ; 0000 0C36                         {
                 ; 0000 0C37                         cykl_sterownik_1 = 0;
001255 940e 196c 	CALL SUBOPT_0x3E
                 ; 0000 0C38                         cykl_sterownik_2 = 0;
                 ; 0000 0C39                         cykl_sterownik_4 = 0;
001257 940e 197c 	CALL SUBOPT_0x40
                 ; 0000 0C3A                         cykl_sterownik_3 = 0;
001259 e0e0      	LDI  R30,LOW(0)
00125a 940e 1976 	CALL SUBOPT_0x3F
                 ; 0000 0C3B                         sek12 = 0;    //do przedmuchu
00125c 940e 1a36 	CALL SUBOPT_0x5F
                 ; 0000 0C3C                         start_kontynuacja = odczytaj_parametr(0,64);
00125e 940e 1910 	CALL SUBOPT_0x2E
001260 940e 1915 	CALL SUBOPT_0x2F
001262 940e 1987 	CALL SUBOPT_0x42
                 ; 0000 0C3D                         if(start_kontynuacja == 1)
001264 f459      	BRNE _0x21C
                 ; 0000 0C3E                             {
                 ; 0000 0C3F                             if(cykl_ilosc_zaciskow > 0)
001265 940e 1a3f 	CALL SUBOPT_0x60
001267 940e 1c15 	CALL __CPW02
001269 f414      	BRGE _0x21D
                 ; 0000 0C40                                 {
                 ; 0000 0C41                                 PORT_F.bits.b4 = 1;  //przedmuch zaciskow
00126a 940e 1a44 	CALL SUBOPT_0x61
                 ; 0000 0C42                                 PORTF = PORT_F.byte;
                 ; 0000 0C43                                 }
                 ; 0000 0C44                             cykl_glowny = 6;
                 _0x21D:
00126c e0e6      	LDI  R30,LOW(6)
00126d e0f0      	LDI  R31,HIGH(6)
00126e 940e 1991 	CALL SUBOPT_0x43
                 ; 0000 0C45                             }
                 ; 0000 0C46                         }
                 _0x21C:
                 ; 0000 0C47 
                 ; 0000 0C48             break;
                 _0x21B:
001270 c3b9      	RJMP _0x1E7
                 ; 0000 0C49 
                 ; 0000 0C4A 
                 ; 0000 0C4B 
                 ; 0000 0C4C            case 6:
                 _0x211:
001271 30e6      	CPI  R30,LOW(0x6)
001272 e0a0      	LDI  R26,HIGH(0x6)
001273 07fa      	CPC  R31,R26
001274 f011      	BREQ PC+3
001275 940c 12c5 	JMP _0x21E
                 ; 0000 0C4D 
                 ; 0000 0C4E 
                 ; 0000 0C4F                     if(sek12 > czas_przedmuchu)
001277 940e 1a48 	CALL SUBOPT_0x62
001279 f414      	BRGE _0x21F
                 ; 0000 0C50                         {
                 ; 0000 0C51                         PORT_F.bits.b4 = 0;  //przedmuch zaciskow
00127a 940e 1a59 	CALL SUBOPT_0x63
                 ; 0000 0C52                         PORTF = PORT_F.byte;
                 ; 0000 0C53                         }
                 ; 0000 0C54 
                 ; 0000 0C55                     if(cykl_sterownik_3 < 5)
                 _0x21F:
00127c 940e 1a5d 	CALL SUBOPT_0x64
00127e 9715      	SBIW R26,5
00127f f434      	BRGE _0x220
                 ; 0000 0C56                         cykl_sterownik_3 = sterownik_3_praca(1,0,0,0,0,1);  //ABS          //krazek scierny do gory
001280 940e 19ce 	CALL SUBOPT_0x4D
001282 940e 19b9 	CALL SUBOPT_0x49
001284 940e 1a62 	CALL SUBOPT_0x65
                 ; 0000 0C57 
                 ; 0000 0C58                     if(koniec_rzedu_10 == 1)
                 _0x220:
001286 91a0 055f 	LDS  R26,_koniec_rzedu_10
001288 91b0 0560 	LDS  R27,_koniec_rzedu_10+1
00128a 9711      	SBIW R26,1
00128b f421      	BRNE _0x221
                 ; 0000 0C59                         cykl_sterownik_4 = 5;
00128c e0e5      	LDI  R30,LOW(5)
00128d e0f0      	LDI  R31,HIGH(5)
00128e 940e 18ed 	CALL SUBOPT_0x28
                 ; 0000 0C5A 
                 ; 0000 0C5B                     if(cykl_sterownik_4 < 5)
                 _0x221:
001290 940e 19c8 	CALL SUBOPT_0x4C
001292 f424      	BRGE _0x222
                 ; 0000 0C5C                         cykl_sterownik_4 = sterownik_4_praca(1,0,0,0,1,0);  //ABS          //druciak do gory
001293 940e 19ce 	CALL SUBOPT_0x4D
001295 940e 19d1 	CALL SUBOPT_0x4E
                 ; 0000 0C5D 
                 ; 0000 0C5E                     if(cykl_sterownik_4 == 5 & cykl_sterownik_3 == 5)
                 _0x222:
001297 940e 19a9 	CALL SUBOPT_0x47
001299 940e 1bdd 	CALL __EQW12
00129b 2e0e      	MOV  R0,R30
00129c 940e 1a67 	CALL SUBOPT_0x66
00129e 940e 1bdd 	CALL __EQW12
0012a0 21e0      	AND  R30,R0
0012a1 f111      	BREQ _0x223
                 ; 0000 0C5F                         {
                 ; 0000 0C60                         if((cykl_ilosc_zaciskow != il_zaciskow_rzad_1 - 1 & rzad_obrabiany == 1) | (cykl_ilosc_zaciskow != il_zaciskow_rzad_2 - 1 & rzad_obrabiany == 2))
0012a2 940e 1a6b 	CALL SUBOPT_0x67
0012a4 2e0e      	MOV  R0,R30
0012a5 940e 1933 	CALL SUBOPT_0x34
0012a7 940e 187f 	CALL SUBOPT_0x1A
0012a9 21e0      	AND  R30,R0
0012aa 2e1e      	MOV  R1,R30
0012ab 940e 1a74 	CALL SUBOPT_0x68
0012ad 2e0e      	MOV  R0,R30
0012ae 940e 1933 	CALL SUBOPT_0x34
0012b0 940e 19a3 	CALL SUBOPT_0x46
0012b2 29e1      	OR   R30,R1
0012b3 f009      	BREQ _0x224
                 ; 0000 0C61                             PORTE.2 = 1;  //wlacz szlifierke
0012b4 9a1a      	SBI  0x3,2
                 ; 0000 0C62                         PORTE.3 = 1;  //szlifierka 2 (krazek scierny)
                 _0x224:
0012b5 9a1b      	SBI  0x3,3
                 ; 0000 0C63                         cykl_sterownik_3 = 0;
0012b6 e0e0      	LDI  R30,LOW(0)
0012b7 940e 1976 	CALL SUBOPT_0x3F
                 ; 0000 0C64                         cykl_sterownik_4 = 0;
0012b9 940e 19da 	CALL SUBOPT_0x4F
                 ; 0000 0C65                         start_kontynuacja = odczytaj_parametr(0,64);
0012bb 940e 1915 	CALL SUBOPT_0x2F
0012bd 940e 1987 	CALL SUBOPT_0x42
                 ; 0000 0C66                         if(start_kontynuacja == 1)
0012bf f421      	BRNE _0x229
                 ; 0000 0C67                             cykl_glowny = 7;
0012c0 e0e7      	LDI  R30,LOW(7)
0012c1 e0f0      	LDI  R31,HIGH(7)
0012c2 940e 1991 	CALL SUBOPT_0x43
                 ; 0000 0C68                         }
                 _0x229:
                 ; 0000 0C69 
                 ; 0000 0C6A            break;
                 _0x223:
0012c4 c365      	RJMP _0x1E7
                 ; 0000 0C6B 
                 ; 0000 0C6C 
                 ; 0000 0C6D            case 7:
                 _0x21E:
0012c5 30e7      	CPI  R30,LOW(0x7)
0012c6 e0a0      	LDI  R26,HIGH(0x7)
0012c7 07fa      	CPC  R31,R26
0012c8 f501      	BRNE _0x22A
                 ; 0000 0C6E                                                                                               //mini ruch do przygotowania do okregu
                 ; 0000 0C6F                     if(cykl_sterownik_1 < 5)
0012c9 940e 1938 	CALL SUBOPT_0x35
0012cb f424      	BRGE _0x22B
                 ; 0000 0C70                         cykl_sterownik_1 = sterownik_1_praca(0x96,1);
0012cc e9e6      	LDI  R30,LOW(150)
0012cd e0f0      	LDI  R31,HIGH(150)
0012ce 940e 1a7d 	CALL SUBOPT_0x69
                 ; 0000 0C71 
                 ; 0000 0C72                     if(cykl_sterownik_1 == 5)
                 _0x22B:
0012d0 940e 1938 	CALL SUBOPT_0x35
0012d2 f4a9      	BRNE _0x22C
                 ; 0000 0C73                         {
                 ; 0000 0C74                         cykl_sterownik_1 = 0;
0012d3 940e 1a19 	CALL SUBOPT_0x5A
                 ; 0000 0C75                         cykl_glowny = 8;
0012d5 940e 1a84 	CALL SUBOPT_0x6A
                 ; 0000 0C76                         szczotka_druc_cykl = 0;
                 ; 0000 0C77                         krazek_scierny_cykl_po_okregu = 0;
0012d7 e0e0      	LDI  R30,LOW(0)
0012d8 93e0 054f 	STS  _krazek_scierny_cykl_po_okregu,R30
0012da 93e0 0550 	STS  _krazek_scierny_cykl_po_okregu+1,R30
                 ; 0000 0C78                         wykonalem_komplet_okregow = 0;
0012dc 93e0 0559 	STS  _wykonalem_komplet_okregow,R30
0012de 93e0 055a 	STS  _wykonalem_komplet_okregow+1,R30
                 ; 0000 0C79                         abs_ster3 = 0;
0012e0 93e0 055b 	STS  _abs_ster3,R30
0012e2 93e0 055c 	STS  _abs_ster3+1,R30
                 ; 0000 0C7A                         abs_ster4 = 0;
0012e4 93e0 055d 	STS  _abs_ster4,R30
0012e6 93e0 055e 	STS  _abs_ster4+1,R30
                 ; 0000 0C7B                         }
                 ; 0000 0C7C 
                 ; 0000 0C7D 
                 ; 0000 0C7E 
                 ; 0000 0C7F            break;
                 _0x22C:
0012e8 c341      	RJMP _0x1E7
                 ; 0000 0C80 
                 ; 0000 0C81 
                 ; 0000 0C82             case 8:
                 _0x22A:
0012e9 30e8      	CPI  R30,LOW(0x8)
0012ea e0a0      	LDI  R26,HIGH(0x8)
0012eb 07fa      	CPC  R31,R26
0012ec f011      	BREQ PC+3
0012ed 940c 13e2 	JMP _0x22D
                 ; 0000 0C83 
                 ; 0000 0C84 
                 ; 0000 0C85 
                 ; 0000 0C86 
                 ; 0000 0C87                     if(cykl_sterownik_1 < 5 & krazek_scierny_cykl_po_okregu < krazek_scierny_cykl_po_okregu_ilosc &  wykonalem_komplet_okregow == 0)
0012ef 940e 1959 	CALL SUBOPT_0x3C
0012f1 940e 1bef 	CALL __LTW12
0012f3 940e 1a88 	CALL SUBOPT_0x6B
0012f5 21e0      	AND  R30,R0
0012f6 f021      	BREQ _0x22E
                 ; 0000 0C88                         cykl_sterownik_1 = sterownik_1_praca(0x97,1);
0012f7 e9e7      	LDI  R30,LOW(151)
0012f8 e0f0      	LDI  R31,HIGH(151)
0012f9 940e 1a7d 	CALL SUBOPT_0x69
                 ; 0000 0C89 
                 ; 0000 0C8A                     if(cykl_sterownik_1 == 5 & krazek_scierny_cykl_po_okregu < krazek_scierny_cykl_po_okregu_ilosc &  wykonalem_komplet_okregow == 0)
                 _0x22E:
0012fb 940e 1959 	CALL SUBOPT_0x3C
0012fd 940e 1bdd 	CALL __EQW12
0012ff 940e 1a88 	CALL SUBOPT_0x6B
001301 21e0      	AND  R30,R0
001302 f031      	BREQ _0x22F
                 ; 0000 0C8B                         {
                 ; 0000 0C8C                         cykl_sterownik_1 = 0;
001303 940e 1a19 	CALL SUBOPT_0x5A
                 ; 0000 0C8D                         krazek_scierny_cykl_po_okregu++;
001305 e4af      	LDI  R26,LOW(_krazek_scierny_cykl_po_okregu)
001306 e0b5      	LDI  R27,HIGH(_krazek_scierny_cykl_po_okregu)
001307 940e 1a99 	CALL SUBOPT_0x6C
                 ; 0000 0C8E                         }
                 ; 0000 0C8F 
                 ; 0000 0C90                     if(krazek_scierny_cykl_po_okregu == krazek_scierny_cykl_po_okregu_ilosc &  wykonalem_komplet_okregow == 0)
                 _0x22F:
001309 91e0 0551 	LDS  R30,_krazek_scierny_cykl_po_okregu_ilosc
00130b 91f0 0552 	LDS  R31,_krazek_scierny_cykl_po_okregu_ilosc+1
00130d 91a0 054f 	LDS  R26,_krazek_scierny_cykl_po_okregu
00130f 91b0 0550 	LDS  R27,_krazek_scierny_cykl_po_okregu+1
001311 940e 1a9f 	CALL SUBOPT_0x6D
001313 940e 187a 	CALL SUBOPT_0x19
001315 21e0      	AND  R30,R0
001316 f041      	BREQ _0x230
                 ; 0000 0C91                         {
                 ; 0000 0C92                         cykl_sterownik_1 = 0;
001317 940e 1a19 	CALL SUBOPT_0x5A
                 ; 0000 0C93                         wykonalem_komplet_okregow = 1;
001319 e0e1      	LDI  R30,LOW(1)
00131a e0f0      	LDI  R31,HIGH(1)
00131b 93e0 0559 	STS  _wykonalem_komplet_okregow,R30
00131d 93f0 055a 	STS  _wykonalem_komplet_okregow+1,R31
                 ; 0000 0C94                         }
                 ; 0000 0C95 
                 ; 0000 0C96                     if(koniec_rzedu_10 == 1)
                 _0x230:
00131f 91a0 055f 	LDS  R26,_koniec_rzedu_10
001321 91b0 0560 	LDS  R27,_koniec_rzedu_10+1
001323 9711      	SBIW R26,1
001324 f421      	BRNE _0x231
                 ; 0000 0C97                         cykl_sterownik_4 = 5;
001325 e0e5      	LDI  R30,LOW(5)
001326 e0f0      	LDI  R31,HIGH(5)
001327 940e 18ed 	CALL SUBOPT_0x28
                 ; 0000 0C98 
                 ; 0000 0C99                     if(cykl_sterownik_4 < 5 & abs_ster4 == 0)
                 _0x231:
001329 940e 19a9 	CALL SUBOPT_0x47
00132b 940e 1aa7 	CALL SUBOPT_0x6E
00132d 940e 187a 	CALL SUBOPT_0x19
00132f 21e0      	AND  R30,R0
001330 f021      	BREQ _0x232
                 ; 0000 0C9A                        cykl_sterownik_4 = sterownik_4_praca(0,1,0,0,0,1); //INV               //szczotka druc
001331 940e 19dc 	CALL SUBOPT_0x50
001333 940e 19df 	CALL SUBOPT_0x51
                 ; 0000 0C9B 
                 ; 0000 0C9C                     if(cykl_sterownik_4 == 5 & szczotka_druc_cykl < szczotka_druciana_ilosc_cykli)
                 _0x232:
001335 940e 19a9 	CALL SUBOPT_0x47
001337 940e 19e2 	CALL SUBOPT_0x52
001339 f0e9      	BREQ _0x233
                 ; 0000 0C9D                         {
                 ; 0000 0C9E                         if(koniec_rzedu_10 == 0)
00133a 91e0 055f 	LDS  R30,_koniec_rzedu_10
00133c 91f0 0560 	LDS  R31,_koniec_rzedu_10+1
00133e 9730      	SBIW R30,0
00133f f419      	BRNE _0x234
                 ; 0000 0C9F                             cykl_sterownik_4 = 0;
001340 e0e0      	LDI  R30,LOW(0)
001341 940e 197c 	CALL SUBOPT_0x40
                 ; 0000 0CA0                         if(abs_ster4 == 0)
                 _0x234:
001343 91e0 055d 	LDS  R30,_abs_ster4
001345 91f0 055e 	LDS  R31,_abs_ster4+1
001347 9730      	SBIW R30,0
001348 f449      	BRNE _0x235
                 ; 0000 0CA1                             {
                 ; 0000 0CA2                             szczotka_druc_cykl++;
001349 940e 19f1 	CALL SUBOPT_0x53
                 ; 0000 0CA3                             abs_ster4 = 1;
00134b e0e1      	LDI  R30,LOW(1)
00134c e0f0      	LDI  R31,HIGH(1)
00134d 93e0 055d 	STS  _abs_ster4,R30
00134f 93f0 055e 	STS  _abs_ster4+1,R31
                 ; 0000 0CA4                             }
                 ; 0000 0CA5                         else
001351 c005      	RJMP _0x236
                 _0x235:
                 ; 0000 0CA6                             abs_ster4 = 0;
001352 e0e0      	LDI  R30,LOW(0)
001353 93e0 055d 	STS  _abs_ster4,R30
001355 93e0 055e 	STS  _abs_ster4+1,R30
                 ; 0000 0CA7                         }
                 _0x236:
                 ; 0000 0CA8 
                 ; 0000 0CA9                     if(cykl_sterownik_3 < 5 & abs_ster3 == 0)
                 _0x233:
001357 940e 1a67 	CALL SUBOPT_0x66
001359 940e 1aaf 	CALL SUBOPT_0x6F
00135b 940e 187a 	CALL SUBOPT_0x19
00135d 21e0      	AND  R30,R0
00135e f041      	BREQ _0x237
                 ; 0000 0CAA                        cykl_sterownik_3 = sterownik_3_praca(0,1,0,0,1,0); //INV                   //krazek scierny
00135f 940e 19dc 	CALL SUBOPT_0x50
001361 e0e1      	LDI  R30,LOW(1)
001362 93ea      	ST   -Y,R30
001363 e0e0      	LDI  R30,LOW(0)
001364 93ea      	ST   -Y,R30
001365 940e 1ab7 	CALL SUBOPT_0x70
                 ; 0000 0CAB 
                 ; 0000 0CAC 
                 ; 0000 0CAD                     if(cykl_sterownik_3 == 5 & krazek_scierny_cykl < krazek_scierny_ilosc_cykli)
                 _0x237:
001367 940e 1a67 	CALL SUBOPT_0x66
001369 940e 1bdd 	CALL __EQW12
00136b 2e0e      	MOV  R0,R30
00136c 940e 1aba 	CALL SUBOPT_0x71
00136e 940e 1bef 	CALL __LTW12
001370 21e0      	AND  R30,R0
001371 f0d9      	BREQ _0x238
                 ; 0000 0CAE                         {
                 ; 0000 0CAF 
                 ; 0000 0CB0                          cykl_sterownik_3 = 0;
001372 e0e0      	LDI  R30,LOW(0)
001373 93e0 0535 	STS  _cykl_sterownik_3,R30
001375 93e0 0536 	STS  _cykl_sterownik_3+1,R30
                 ; 0000 0CB1                         if(abs_ster3 == 0)
001377 91e0 055b 	LDS  R30,_abs_ster3
001379 91f0 055c 	LDS  R31,_abs_ster3+1
00137b 9730      	SBIW R30,0
00137c f459      	BRNE _0x239
                 ; 0000 0CB2                             {
                 ; 0000 0CB3                             krazek_scierny_cykl++;
00137d e5a3      	LDI  R26,LOW(_krazek_scierny_cykl)
00137e e0b5      	LDI  R27,HIGH(_krazek_scierny_cykl)
00137f 940e 1a99 	CALL SUBOPT_0x6C
                 ; 0000 0CB4                             abs_ster3 = 1;
001381 e0e1      	LDI  R30,LOW(1)
001382 e0f0      	LDI  R31,HIGH(1)
001383 93e0 055b 	STS  _abs_ster3,R30
001385 93f0 055c 	STS  _abs_ster3+1,R31
                 ; 0000 0CB5                             }
                 ; 0000 0CB6                         else
001387 c005      	RJMP _0x23A
                 _0x239:
                 ; 0000 0CB7                             abs_ster3 = 0;
001388 e0e0      	LDI  R30,LOW(0)
001389 93e0 055b 	STS  _abs_ster3,R30
00138b 93e0 055c 	STS  _abs_ster3+1,R30
                 ; 0000 0CB8                         }
                 _0x23A:
                 ; 0000 0CB9 
                 ; 0000 0CBA                     if(cykl_sterownik_3 < 5 & abs_ster3 == 1)
                 _0x238:
00138d 940e 1a67 	CALL SUBOPT_0x66
00138f 940e 1aaf 	CALL SUBOPT_0x6F
001391 940e 187f 	CALL SUBOPT_0x1A
001393 21e0      	AND  R30,R0
001394 f031      	BREQ _0x23B
                 ; 0000 0CBB                         cykl_sterownik_3 = sterownik_3_praca(1,0,0,0,0,1);  //ABS          //krazek scierny do gory
001395 940e 19ce 	CALL SUBOPT_0x4D
001397 940e 19b9 	CALL SUBOPT_0x49
001399 940e 1a62 	CALL SUBOPT_0x65
                 ; 0000 0CBC 
                 ; 0000 0CBD                     if(cykl_sterownik_4 < 5 & abs_ster4 == 1)
                 _0x23B:
00139b 940e 19a9 	CALL SUBOPT_0x47
00139d 940e 1aa7 	CALL SUBOPT_0x6E
00139f 940e 187f 	CALL SUBOPT_0x1A
0013a1 21e0      	AND  R30,R0
0013a2 f021      	BREQ _0x23C
                 ; 0000 0CBE                         cykl_sterownik_4 = sterownik_4_praca(1,0,0,0,1,0);  //ABS          //druciak do gory
0013a3 940e 19ce 	CALL SUBOPT_0x4D
0013a5 940e 19d1 	CALL SUBOPT_0x4E
                 ; 0000 0CBF 
                 ; 0000 0CC0 
                 ; 0000 0CC1                                                                                            //mini ruch powrotny do okregu, zeby nie szorowal
                 ; 0000 0CC2                     if(cykl_sterownik_1 < 5 & wykonalem_komplet_okregow == 1)
                 _0x23C:
0013a7 940e 1959 	CALL SUBOPT_0x3C
0013a9 940e 1bef 	CALL __LTW12
0013ab 2e0e      	MOV  R0,R30
0013ac 91a0 0559 	LDS  R26,_wykonalem_komplet_okregow
0013ae 91b0 055a 	LDS  R27,_wykonalem_komplet_okregow+1
0013b0 940e 187f 	CALL SUBOPT_0x1A
0013b2 21e0      	AND  R30,R0
0013b3 f021      	BREQ _0x23D
                 ; 0000 0CC3                         cykl_sterownik_1 = sterownik_1_praca(0x98,1);
0013b4 e9e8      	LDI  R30,LOW(152)
0013b5 e0f0      	LDI  R31,HIGH(152)
0013b6 940e 1a7d 	CALL SUBOPT_0x69
                 ; 0000 0CC4 
                 ; 0000 0CC5 
                 ; 0000 0CC6                     if(cykl_sterownik_1 == 5 & wykonalem_komplet_okregow == 1 &
                 _0x23D:
                 ; 0000 0CC7                        szczotka_druc_cykl == szczotka_druciana_ilosc_cykli &
                 ; 0000 0CC8                        krazek_scierny_cykl == krazek_scierny_ilosc_cykli)
0013b8 940e 1959 	CALL SUBOPT_0x3C
0013ba 940e 1a9f 	CALL SUBOPT_0x6D
0013bc 940e 187f 	CALL SUBOPT_0x1A
0013be 220e      	AND  R0,R30
0013bf 940e 19f9 	CALL SUBOPT_0x54
0013c1 940e 1bdd 	CALL __EQW12
0013c3 220e      	AND  R0,R30
0013c4 940e 1aba 	CALL SUBOPT_0x71
0013c6 940e 1bdd 	CALL __EQW12
0013c8 21e0      	AND  R30,R0
0013c9 f0b9      	BREQ _0x23E
                 ; 0000 0CC9                         {
                 ; 0000 0CCA                         cykl_sterownik_1 = 0;
0013ca 940e 196c 	CALL SUBOPT_0x3E
                 ; 0000 0CCB                         cykl_sterownik_2 = 0;
                 ; 0000 0CCC                         cykl_sterownik_3 = 0;
0013cc 940e 1976 	CALL SUBOPT_0x3F
                 ; 0000 0CCD                         cykl_sterownik_4 = 0;
0013ce 940e 197c 	CALL SUBOPT_0x40
                 ; 0000 0CCE                         cykl_glowny = 8;
0013d0 940e 1a84 	CALL SUBOPT_0x6A
                 ; 0000 0CCF                         szczotka_druc_cykl = 0;
                 ; 0000 0CD0                         krazek_scierny_cykl = 0;
0013d2 e0e0      	LDI  R30,LOW(0)
0013d3 93e0 0553 	STS  _krazek_scierny_cykl,R30
0013d5 93e0 0554 	STS  _krazek_scierny_cykl+1,R30
                 ; 0000 0CD1                         krazek_scierny_cykl_po_okregu = 0;
0013d7 93e0 054f 	STS  _krazek_scierny_cykl_po_okregu,R30
0013d9 93e0 0550 	STS  _krazek_scierny_cykl_po_okregu+1,R30
                 ; 0000 0CD2                         PORT_F.bits.b4 = 0;  //przedmuch zaciskow wylacz
0013db 940e 1a59 	CALL SUBOPT_0x63
                 ; 0000 0CD3                         PORTF = PORT_F.byte;
                 ; 0000 0CD4                         cykl_glowny = 9;
0013dd e0e9      	LDI  R30,LOW(9)
0013de e0f0      	LDI  R31,HIGH(9)
0013df 940e 1991 	CALL SUBOPT_0x43
                 ; 0000 0CD5                         }
                 ; 0000 0CD6 
                 ; 0000 0CD7                                                                                                 //ster 1 - ruch po okregu
                 ; 0000 0CD8                                                                                                 //ster 2 - nic
                 ; 0000 0CD9                                                                                                 //ster 3 - krazek - gora dol
                 ; 0000 0CDA                                                                                                 //ster 4 - druciak - gora dol
                 ; 0000 0CDB 
                 ; 0000 0CDC             break;
                 _0x23E:
0013e1 c248      	RJMP _0x1E7
                 ; 0000 0CDD 
                 ; 0000 0CDE 
                 ; 0000 0CDF             case 9:
                 _0x22D:
0013e2 30e9      	CPI  R30,LOW(0x9)
0013e3 e0a0      	LDI  R26,HIGH(0x9)
0013e4 07fa      	CPC  R31,R26
0013e5 f011      	BREQ PC+3
0013e6 940c 148e 	JMP _0x23F
                 ; 0000 0CE0 
                 ; 0000 0CE1 
                 ; 0000 0CE2                          if(rzad_obrabiany == 1)
0013e8 940e 1933 	CALL SUBOPT_0x34
0013ea 9711      	SBIW R26,1
0013eb f5e9      	BRNE _0x240
                 ; 0000 0CE3                          {
                 ; 0000 0CE4                          if(cykl_sterownik_3 < 5 & cykl_ilosc_zaciskow != il_zaciskow_rzad_1 - 1)
0013ec 940e 1a67 	CALL SUBOPT_0x66
0013ee 940e 1bef 	CALL __LTW12
0013f0 2e0e      	MOV  R0,R30
0013f1 940e 1a6b 	CALL SUBOPT_0x67
0013f3 21e0      	AND  R30,R0
0013f4 f041      	BREQ _0x241
                 ; 0000 0CE5                             cykl_sterownik_3 = sterownik_3_praca(0,0,0,0,0,1);  //do pozycji bazowej
0013f5 940e 19b9 	CALL SUBOPT_0x49
0013f7 940e 19b9 	CALL SUBOPT_0x49
0013f9 e0e0      	LDI  R30,LOW(0)
0013fa 93ea      	ST   -Y,R30
0013fb 940e 1a62 	CALL SUBOPT_0x65
                 ; 0000 0CE6 
                 ; 0000 0CE7                           //if(cykl_sterownik_4 < 5 & cykl_ilosc_zaciskow != il_zaciskow_rzad_1 - 1)
                 ; 0000 0CE8                           //  cykl_sterownik_4 = sterownik_4_praca(0,0,0,0,0,1);  //do pozycji bazowej
                 ; 0000 0CE9 
                 ; 0000 0CEA                           if(cykl_sterownik_4 < 5 & cykl_ilosc_zaciskow < il_zaciskow_rzad_1 - 2)
                 _0x241:
0013fd 940e 19a9 	CALL SUBOPT_0x47
0013ff 940e 1ac3 	CALL SUBOPT_0x72
001401 940e 1acb 	CALL SUBOPT_0x73
001403 f031      	BREQ _0x242
                 ; 0000 0CEB                             cykl_sterownik_4 = sterownik_4_praca(0,0,0,0,0,1);  //do pozycji bazowej
001404 940e 19b9 	CALL SUBOPT_0x49
001406 940e 19b9 	CALL SUBOPT_0x49
001408 940e 19df 	CALL SUBOPT_0x51
                 ; 0000 0CEC 
                 ; 0000 0CED 
                 ; 0000 0CEE                          if(cykl_sterownik_3 < 5 & cykl_ilosc_zaciskow == il_zaciskow_rzad_1 - 1)
                 _0x242:
00140a 940e 1a67 	CALL SUBOPT_0x66
00140c 940e 1ac3 	CALL SUBOPT_0x72
00140e 940e 1ad1 	CALL SUBOPT_0x74
001410 f041      	BREQ _0x243
                 ; 0000 0CEF                             cykl_sterownik_3 = sterownik_3_praca(0,0,0,0,0,0);  //na sam dol, jedziemy miedzy rzedami
001411 940e 19b9 	CALL SUBOPT_0x49
001413 940e 19b9 	CALL SUBOPT_0x49
001415 940e 19b9 	CALL SUBOPT_0x49
001417 940e 1ab7 	CALL SUBOPT_0x70
                 ; 0000 0CF0 
                 ; 0000 0CF1                           //if(cykl_sterownik_4 < 5 & cykl_ilosc_zaciskow == il_zaciskow_rzad_1 - 1)
                 ; 0000 0CF2                          //   cykl_sterownik_4 = sterownik_4_praca(0,0,0,0,0,0);  //na sam dol, jedziemy miedzy rzedami
                 ; 0000 0CF3 
                 ; 0000 0CF4                          if(cykl_sterownik_4 < 5 & cykl_ilosc_zaciskow >= il_zaciskow_rzad_1 - 2)
                 _0x243:
001419 940e 19a9 	CALL SUBOPT_0x47
00141b 940e 1ac3 	CALL SUBOPT_0x72
00141d 940e 1ad7 	CALL SUBOPT_0x75
00141f f049      	BREQ _0x244
                 ; 0000 0CF5                             cykl_sterownik_4 = sterownik_4_praca(0,0,0,0,0,0);  //na sam dol, jedziemy miedzy rzedami
001420 940e 19b9 	CALL SUBOPT_0x49
001422 940e 19b9 	CALL SUBOPT_0x49
001424 940e 19b9 	CALL SUBOPT_0x49
001426 dac9      	RCALL _sterownik_4_praca
001427 940e 18ed 	CALL SUBOPT_0x28
                 ; 0000 0CF6 
                 ; 0000 0CF7                           }
                 _0x244:
                 ; 0000 0CF8 
                 ; 0000 0CF9 
                 ; 0000 0CFA                          if(rzad_obrabiany == 2)
                 _0x240:
001429 940e 1933 	CALL SUBOPT_0x34
00142b 9712      	SBIW R26,2
00142c f5e9      	BRNE _0x245
                 ; 0000 0CFB                          {
                 ; 0000 0CFC                          if(cykl_sterownik_3 < 5 & cykl_ilosc_zaciskow != il_zaciskow_rzad_2 - 1)
00142d 940e 1a67 	CALL SUBOPT_0x66
00142f 940e 1bef 	CALL __LTW12
001431 2e0e      	MOV  R0,R30
001432 940e 1a74 	CALL SUBOPT_0x68
001434 21e0      	AND  R30,R0
001435 f041      	BREQ _0x246
                 ; 0000 0CFD                             cykl_sterownik_3 = sterownik_3_praca(0,0,0,0,0,1);  //do pozycji bazowej
001436 940e 19b9 	CALL SUBOPT_0x49
001438 940e 19b9 	CALL SUBOPT_0x49
00143a e0e0      	LDI  R30,LOW(0)
00143b 93ea      	ST   -Y,R30
00143c 940e 1a62 	CALL SUBOPT_0x65
                 ; 0000 0CFE 
                 ; 0000 0CFF                          // if(cykl_sterownik_4 < 5 & cykl_ilosc_zaciskow != il_zaciskow_rzad_2 - 1)
                 ; 0000 0D00                          //   cykl_sterownik_4 = sterownik_4_praca(0,0,0,0,0,1);  //do pozycji bazowej
                 ; 0000 0D01 
                 ; 0000 0D02                           if(cykl_sterownik_4 < 5 & cykl_ilosc_zaciskow < il_zaciskow_rzad_2 - 2)
                 _0x246:
00143e 940e 19a9 	CALL SUBOPT_0x47
001440 940e 1add 	CALL SUBOPT_0x76
001442 940e 1acb 	CALL SUBOPT_0x73
001444 f031      	BREQ _0x247
                 ; 0000 0D03                             cykl_sterownik_4 = sterownik_4_praca(0,0,0,0,0,1);  //do pozycji bazowej
001445 940e 19b9 	CALL SUBOPT_0x49
001447 940e 19b9 	CALL SUBOPT_0x49
001449 940e 19df 	CALL SUBOPT_0x51
                 ; 0000 0D04 
                 ; 0000 0D05                          if(cykl_sterownik_3 < 5 & cykl_ilosc_zaciskow == il_zaciskow_rzad_2 - 1)
                 _0x247:
00144b 940e 1a67 	CALL SUBOPT_0x66
00144d 940e 1add 	CALL SUBOPT_0x76
00144f 940e 1ad1 	CALL SUBOPT_0x74
001451 f041      	BREQ _0x248
                 ; 0000 0D06                             cykl_sterownik_3 = sterownik_3_praca(0,0,0,0,0,0);  //na sam dol, jedziemy miedzy rzedami
001452 940e 19b9 	CALL SUBOPT_0x49
001454 940e 19b9 	CALL SUBOPT_0x49
001456 940e 19b9 	CALL SUBOPT_0x49
001458 940e 1ab7 	CALL SUBOPT_0x70
                 ; 0000 0D07 
                 ; 0000 0D08                          // if(cykl_sterownik_4 < 5 & cykl_ilosc_zaciskow == il_zaciskow_rzad_2 - 1)
                 ; 0000 0D09                          //   cykl_sterownik_4 = sterownik_4_praca(0,0,0,0,0,0);  //na sam dol, jedziemy miedzy rzedami
                 ; 0000 0D0A 
                 ; 0000 0D0B                           if(cykl_sterownik_4 < 5 & cykl_ilosc_zaciskow >= il_zaciskow_rzad_2 - 2)
                 _0x248:
00145a 940e 19a9 	CALL SUBOPT_0x47
00145c 940e 1add 	CALL SUBOPT_0x76
00145e 940e 1ad7 	CALL SUBOPT_0x75
001460 f049      	BREQ _0x249
                 ; 0000 0D0C                             cykl_sterownik_4 = sterownik_4_praca(0,0,0,0,0,0);  //na sam dol, jedziemy miedzy rzedami
001461 940e 19b9 	CALL SUBOPT_0x49
001463 940e 19b9 	CALL SUBOPT_0x49
001465 940e 19b9 	CALL SUBOPT_0x49
001467 da88      	RCALL _sterownik_4_praca
001468 940e 18ed 	CALL SUBOPT_0x28
                 ; 0000 0D0D 
                 ; 0000 0D0E                           }
                 _0x249:
                 ; 0000 0D0F 
                 ; 0000 0D10 
                 ; 0000 0D11                           if(cykl_sterownik_3 == 5 & cykl_sterownik_4 == 5)
                 _0x245:
00146a 940e 1a67 	CALL SUBOPT_0x66
00146c 940e 1bdd 	CALL __EQW12
00146e 2e0e      	MOV  R0,R30
00146f 940e 19a9 	CALL SUBOPT_0x47
001471 940e 1bdd 	CALL __EQW12
001473 21e0      	AND  R30,R0
001474 f0c1      	BREQ _0x24A
                 ; 0000 0D12                             {
                 ; 0000 0D13                             PORTE.2 = 0;  //wylacz szlifierke
001475 981a      	CBI  0x3,2
                 ; 0000 0D14                             PORTE.3 = 0;  //szlifierka 2 (krazek scierny)
001476 981b      	CBI  0x3,3
                 ; 0000 0D15                             cykl_sterownik_4 = 0;
001477 e0e0      	LDI  R30,LOW(0)
001478 940e 197c 	CALL SUBOPT_0x40
                 ; 0000 0D16                             cykl_sterownik_3 = 0;
00147a e0e0      	LDI  R30,LOW(0)
00147b 93e0 0535 	STS  _cykl_sterownik_3,R30
00147d 93e0 0536 	STS  _cykl_sterownik_3+1,R30
                 ; 0000 0D17                             cykl_ilosc_zaciskow++;
00147f e5a7      	LDI  R26,LOW(_cykl_ilosc_zaciskow)
001480 e0b5      	LDI  R27,HIGH(_cykl_ilosc_zaciskow)
001481 940e 1a99 	CALL SUBOPT_0x6C
                 ; 0000 0D18                             ruch_zlozony = 2;                       //il_zaciskow_rzad_1
001483 e0e2      	LDI  R30,LOW(2)
001484 e0f0      	LDI  R31,HIGH(2)
001485 93e0 054d 	STS  _ruch_zlozony,R30
001487 93f0 054e 	STS  _ruch_zlozony+1,R31
                 ; 0000 0D19                             cykl_glowny = 10;
001489 e0ea      	LDI  R30,LOW(10)
00148a e0f0      	LDI  R31,HIGH(10)
00148b 940e 1991 	CALL SUBOPT_0x43
                 ; 0000 0D1A                             }
                 ; 0000 0D1B 
                 ; 0000 0D1C 
                 ; 0000 0D1D             break;
                 _0x24A:
00148d c19c      	RJMP _0x1E7
                 ; 0000 0D1E 
                 ; 0000 0D1F 
                 ; 0000 0D20 
                 ; 0000 0D21             case 10:
                 _0x23F:
00148e 30ea      	CPI  R30,LOW(0xA)
00148f e0a0      	LDI  R26,HIGH(0xA)
001490 07fa      	CPC  R31,R26
001491 f011      	BREQ PC+3
001492 940c 14fd 	JMP _0x24F
                 ; 0000 0D22 
                 ; 0000 0D23                                                //wywali ten warunek jak zadziala
                 ; 0000 0D24                      if(rzad_obrabiany == 1 & cykl_glowny != 0)
001494 940e 1933 	CALL SUBOPT_0x34
001496 940e 187f 	CALL SUBOPT_0x1A
001498 940e 1ae5 	CALL SUBOPT_0x77
00149a f171      	BREQ _0x250
                 ; 0000 0D25                             {
                 ; 0000 0D26                             wartosc_parametru_panelu(cykl_ilosc_zaciskow,0,16);  //wykonano zaciskow rzad1
00149b 940e 1af0 	CALL SUBOPT_0x78
00149d 940e 1927 	CALL SUBOPT_0x32
                 ; 0000 0D27                             if(cykl_ilosc_zaciskow <  il_zaciskow_rzad_1 - 1)
00149f 940e 1af5 	CALL SUBOPT_0x79
0014a1 17ae      	CP   R26,R30
0014a2 07bf      	CPC  R27,R31
0014a3 f424      	BRGE _0x251
                 ; 0000 0D28                                 {
                 ; 0000 0D29                                 cykl_glowny = 5;
0014a4 940e 1a02 	CALL SUBOPT_0x55
                 ; 0000 0D2A                                 koniec_rzedu_10 = 0;
0014a6 940e 1981 	CALL SUBOPT_0x41
                 ; 0000 0D2B                                 }
                 ; 0000 0D2C 
                 ; 0000 0D2D                             if(cykl_ilosc_zaciskow == il_zaciskow_rzad_1 - 1)
                 _0x251:
0014a8 940e 1af5 	CALL SUBOPT_0x79
0014aa 17ea      	CP   R30,R26
0014ab 07fb      	CPC  R31,R27
0014ac f421      	BRNE _0x252
                 ; 0000 0D2E                                 {
                 ; 0000 0D2F                                 cykl_glowny = 5;
0014ad 940e 1a02 	CALL SUBOPT_0x55
                 ; 0000 0D30                                 koniec_rzedu_10 = 1;
0014af 940e 1afb 	CALL SUBOPT_0x7A
                 ; 0000 0D31                                 }
                 ; 0000 0D32 
                 ; 0000 0D33                             if(cykl_ilosc_zaciskow == il_zaciskow_rzad_1 & il_zaciskow_rzad_1 == 10)
                 _0x252:
0014b1 940e 1b02 	CALL SUBOPT_0x7B
0014b3 e0ea      	LDI  R30,LOW(10)
0014b4 e0f0      	LDI  R31,HIGH(10)
0014b5 940e 1bdd 	CALL __EQW12
0014b7 21e0      	AND  R30,R0
0014b8 f021      	BREQ _0x253
                 ; 0000 0D34                                 {
                 ; 0000 0D35                                 cykl_glowny = 11;
0014b9 e0eb      	LDI  R30,LOW(11)
0014ba e0f0      	LDI  R31,HIGH(11)
0014bb 940e 1991 	CALL SUBOPT_0x43
                 ; 0000 0D36                                 }
                 ; 0000 0D37 
                 ; 0000 0D38                              if(cykl_ilosc_zaciskow == il_zaciskow_rzad_1 & il_zaciskow_rzad_1 != 10)  /////zmieniam + 1 20.02
                 _0x253:
0014bd 940e 1b02 	CALL SUBOPT_0x7B
0014bf e0ea      	LDI  R30,LOW(10)
0014c0 e0f0      	LDI  R31,HIGH(10)
0014c1 940e 1be3 	CALL __NEW12
0014c3 21e0      	AND  R30,R0
0014c4 f021      	BREQ _0x254
                 ; 0000 0D39                                 {
                 ; 0000 0D3A                                 cykl_glowny = 14;
0014c5 e0ee      	LDI  R30,LOW(14)
0014c6 e0f0      	LDI  R31,HIGH(14)
0014c7 940e 1991 	CALL SUBOPT_0x43
                 ; 0000 0D3B                                 }
                 ; 0000 0D3C                             }
                 _0x254:
                 ; 0000 0D3D 
                 ; 0000 0D3E 
                 ; 0000 0D3F                             if(rzad_obrabiany == 2 & cykl_glowny != 0)
                 _0x250:
0014c9 940e 1933 	CALL SUBOPT_0x34
0014cb e0e2      	LDI  R30,LOW(2)
0014cc e0f0      	LDI  R31,HIGH(2)
0014cd 940e 1bdd 	CALL __EQW12
0014cf 940e 1ae5 	CALL SUBOPT_0x77
0014d1 f151      	BREQ _0x255
                 ; 0000 0D40                             {
                 ; 0000 0D41                             wartosc_parametru_panelu(cykl_ilosc_zaciskow,0,96);  //wykonano zaciskow rzad1
0014d2 940e 1af0 	CALL SUBOPT_0x78
0014d4 940e 192d 	CALL SUBOPT_0x33
                 ; 0000 0D42                             if(cykl_ilosc_zaciskow <  il_zaciskow_rzad_2 - 1)
0014d6 940e 1b0a 	CALL SUBOPT_0x7C
0014d8 17ae      	CP   R26,R30
0014d9 07bf      	CPC  R27,R31
0014da f424      	BRGE _0x256
                 ; 0000 0D43                                 {
                 ; 0000 0D44                                 cykl_glowny = 5;
0014db 940e 1a02 	CALL SUBOPT_0x55
                 ; 0000 0D45                                 koniec_rzedu_10 = 0;
0014dd 940e 1981 	CALL SUBOPT_0x41
                 ; 0000 0D46                                 }
                 ; 0000 0D47 
                 ; 0000 0D48                             if(cykl_ilosc_zaciskow == il_zaciskow_rzad_2 - 1)
                 _0x256:
0014df 940e 1b0a 	CALL SUBOPT_0x7C
0014e1 17ea      	CP   R30,R26
0014e2 07fb      	CPC  R31,R27
0014e3 f421      	BRNE _0x257
                 ; 0000 0D49                                 {
                 ; 0000 0D4A                                 cykl_glowny = 5;
0014e4 940e 1a02 	CALL SUBOPT_0x55
                 ; 0000 0D4B                                 koniec_rzedu_10 = 1;
0014e6 940e 1afb 	CALL SUBOPT_0x7A
                 ; 0000 0D4C                                 }
                 ; 0000 0D4D 
                 ; 0000 0D4E                             if(cykl_ilosc_zaciskow == il_zaciskow_rzad_2 & il_zaciskow_rzad_2 == 10)
                 _0x257:
0014e8 940e 1b10 	CALL SUBOPT_0x7D
0014ea 940e 1bdd 	CALL __EQW12
0014ec 21e0      	AND  R30,R0
0014ed f021      	BREQ _0x258
                 ; 0000 0D4F                                 {
                 ; 0000 0D50                                 cykl_glowny = 12;
0014ee e0ec      	LDI  R30,LOW(12)
0014ef e0f0      	LDI  R31,HIGH(12)
0014f0 940e 1991 	CALL SUBOPT_0x43
                 ; 0000 0D51                                 }
                 ; 0000 0D52 
                 ; 0000 0D53 
                 ; 0000 0D54                              if(cykl_ilosc_zaciskow == il_zaciskow_rzad_2 & il_zaciskow_rzad_2 != 10)   ///////////////////zmieniam + 1 20.02
                 _0x258:
0014f2 940e 1b10 	CALL SUBOPT_0x7D
0014f4 940e 1be3 	CALL __NEW12
0014f6 21e0      	AND  R30,R0
0014f7 f021      	BREQ _0x259
                 ; 0000 0D55                                 {
                 ; 0000 0D56                                 cykl_glowny = 14;
0014f8 e0ee      	LDI  R30,LOW(14)
0014f9 e0f0      	LDI  R31,HIGH(14)
0014fa 940e 1991 	CALL SUBOPT_0x43
                 ; 0000 0D57                                 }
                 ; 0000 0D58                             }
                 _0x259:
                 ; 0000 0D59 
                 ; 0000 0D5A 
                 ; 0000 0D5B 
                 ; 0000 0D5C             break;
                 _0x255:
0014fc c12d      	RJMP _0x1E7
                 ; 0000 0D5D 
                 ; 0000 0D5E 
                 ; 0000 0D5F 
                 ; 0000 0D60             case 11:
                 _0x24F:
0014fd 30eb      	CPI  R30,LOW(0xB)
0014fe e0a0      	LDI  R26,HIGH(0xB)
0014ff 07fa      	CPC  R31,R26
001500 f4e9      	BRNE _0x25A
                 ; 0000 0D61 
                 ; 0000 0D62                              //ster 1 ucieka od szafy
                 ; 0000 0D63                              if(cykl_sterownik_1 < 5)
001501 940e 1938 	CALL SUBOPT_0x35
001503 f434      	BRGE _0x25B
                 ; 0000 0D64                                     cykl_sterownik_1 = sterownik_1_praca(0x07,0);     //uciekamy do tylu
001504 e0e7      	LDI  R30,LOW(7)
001505 e0f0      	LDI  R31,HIGH(7)
001506 940e 1a22 	CALL SUBOPT_0x5C
001508 940e 1943 	CALL SUBOPT_0x37
                 ; 0000 0D65 
                 ; 0000 0D66                              if(cykl_sterownik_2 < 5)
                 _0x25B:
00150a 940e 1946 	CALL SUBOPT_0x38
00150c f424      	BRGE _0x25C
                 ; 0000 0D67                                     cykl_sterownik_2 = sterownik_2_praca(0x90,1);     //pod dolek ostatni 10 do przedmuchu rzad 1
00150d e9e0      	LDI  R30,LOW(144)
00150e e0f0      	LDI  R31,HIGH(144)
00150f 940e 1b1f 	CALL SUBOPT_0x7E
                 ; 0000 0D68 
                 ; 0000 0D69                              if(cykl_sterownik_1 == 5 & cykl_sterownik_2 == 5)
                 _0x25C:
001511 940e 1959 	CALL SUBOPT_0x3C
001513 940e 1960 	CALL SUBOPT_0x3D
001515 21e0      	AND  R30,R0
001516 f031      	BREQ _0x25D
                 ; 0000 0D6A                                     {
                 ; 0000 0D6B                                     PORT_F.bits.b4 = 1;  //przedmuch zaciskow
001517 940e 1a44 	CALL SUBOPT_0x61
                 ; 0000 0D6C                                     PORTF = PORT_F.byte;
                 ; 0000 0D6D                                     cykl_sterownik_1 = 0;
001519 940e 1a19 	CALL SUBOPT_0x5A
                 ; 0000 0D6E                                     cykl_sterownik_2 = 0;
00151b 940e 1b24 	CALL SUBOPT_0x7F
                 ; 0000 0D6F                                     cykl_glowny = 13;
                 ; 0000 0D70                                     }
                 ; 0000 0D71             break;
                 _0x25D:
00151d c10c      	RJMP _0x1E7
                 ; 0000 0D72 
                 ; 0000 0D73 
                 ; 0000 0D74             case 12:
                 _0x25A:
00151e 30ec      	CPI  R30,LOW(0xC)
00151f e0a0      	LDI  R26,HIGH(0xC)
001520 07fa      	CPC  R31,R26
001521 f4e9      	BRNE _0x25E
                 ; 0000 0D75 
                 ; 0000 0D76                                //ster 1 ucieka od szafy
                 ; 0000 0D77                              if(cykl_sterownik_1 < 5)
001522 940e 1938 	CALL SUBOPT_0x35
001524 f434      	BRGE _0x25F
                 ; 0000 0D78                                     cykl_sterownik_1 = sterownik_1_praca(0x07,0);     //uciekamy do tylu
001525 e0e7      	LDI  R30,LOW(7)
001526 e0f0      	LDI  R31,HIGH(7)
001527 940e 1a22 	CALL SUBOPT_0x5C
001529 940e 1943 	CALL SUBOPT_0x37
                 ; 0000 0D79 
                 ; 0000 0D7A                             if(cykl_sterownik_2 < 5)
                 _0x25F:
00152b 940e 1946 	CALL SUBOPT_0x38
00152d f424      	BRGE _0x260
                 ; 0000 0D7B                                     cykl_sterownik_2 = sterownik_2_praca(0x91,1);     //pod dolek ostatni 10 do przedmuchu rzad 2
00152e e9e1      	LDI  R30,LOW(145)
00152f e0f0      	LDI  R31,HIGH(145)
001530 940e 1b1f 	CALL SUBOPT_0x7E
                 ; 0000 0D7C 
                 ; 0000 0D7D                              if(cykl_sterownik_1 == 5 & cykl_sterownik_2 == 5)
                 _0x260:
001532 940e 1959 	CALL SUBOPT_0x3C
001534 940e 1960 	CALL SUBOPT_0x3D
001536 21e0      	AND  R30,R0
001537 f031      	BREQ _0x261
                 ; 0000 0D7E                                     {
                 ; 0000 0D7F                                     PORT_F.bits.b4 = 1;  //przedmuch zaciskow
001538 940e 1a44 	CALL SUBOPT_0x61
                 ; 0000 0D80                                     PORTF = PORT_F.byte;
                 ; 0000 0D81                                     cykl_sterownik_1 = 0;
00153a 940e 1a19 	CALL SUBOPT_0x5A
                 ; 0000 0D82                                     cykl_sterownik_2 = 0;
00153c 940e 1b24 	CALL SUBOPT_0x7F
                 ; 0000 0D83                                     cykl_glowny = 13;
                 ; 0000 0D84                                     }
                 ; 0000 0D85 
                 ; 0000 0D86 
                 ; 0000 0D87             break;
                 _0x261:
00153e c0eb      	RJMP _0x1E7
                 ; 0000 0D88 
                 ; 0000 0D89 
                 ; 0000 0D8A 
                 ; 0000 0D8B             case 13:
                 _0x25E:
00153f 30ed      	CPI  R30,LOW(0xD)
001540 e0a0      	LDI  R26,HIGH(0xD)
001541 07fa      	CPC  R31,R26
001542 f4b1      	BRNE _0x262
                 ; 0000 0D8C 
                 ; 0000 0D8D 
                 ; 0000 0D8E                              if(cykl_sterownik_2 < 5)
001543 940e 1946 	CALL SUBOPT_0x38
001545 f424      	BRGE _0x263
                 ; 0000 0D8F                                     cykl_sterownik_2 = sterownik_2_praca(0x92,1);     //okrag
001546 e9e2      	LDI  R30,LOW(146)
001547 e0f0      	LDI  R31,HIGH(146)
001548 940e 1b1f 	CALL SUBOPT_0x7E
                 ; 0000 0D90                              if(cykl_sterownik_2 == 5)
                 _0x263:
00154a 940e 1946 	CALL SUBOPT_0x38
00154c f459      	BRNE _0x264
                 ; 0000 0D91                                     {
                 ; 0000 0D92                                     PORT_F.bits.b4 = 0;  //przedmuch zaciskow - wylaczenie
00154d 940e 1a59 	CALL SUBOPT_0x63
                 ; 0000 0D93                                     PORTF = PORT_F.byte;
                 ; 0000 0D94                                     cykl_sterownik_2 = 0;
00154f e0e0      	LDI  R30,LOW(0)
001550 93e0 0537 	STS  _cykl_sterownik_2,R30
001552 93e0 0538 	STS  _cykl_sterownik_2+1,R30
                 ; 0000 0D95                                     cykl_glowny = 16;
001554 e1e0      	LDI  R30,LOW(16)
001555 e0f0      	LDI  R31,HIGH(16)
001556 940e 1991 	CALL SUBOPT_0x43
                 ; 0000 0D96                                     }
                 ; 0000 0D97 
                 ; 0000 0D98             break;
                 _0x264:
001558 c0d1      	RJMP _0x1E7
                 ; 0000 0D99 
                 ; 0000 0D9A 
                 ; 0000 0D9B 
                 ; 0000 0D9C             case 14:
                 _0x262:
001559 30ee      	CPI  R30,LOW(0xE)
00155a e0a0      	LDI  R26,HIGH(0xE)
00155b 07fa      	CPC  R31,R26
00155c f4a1      	BRNE _0x265
                 ; 0000 0D9D 
                 ; 0000 0D9E 
                 ; 0000 0D9F                     if(cykl_sterownik_1 < 5)
00155d 940e 1938 	CALL SUBOPT_0x35
00155f f424      	BRGE _0x266
                 ; 0000 0DA0                         cykl_sterownik_1 = sterownik_1_praca(0x03,0);     //pod nastepny dolek zeby przedmuchac
001560 940e 1a25 	CALL SUBOPT_0x5D
001562 940e 1943 	CALL SUBOPT_0x37
                 ; 0000 0DA1                     if(cykl_sterownik_1 == 5)
                 _0x266:
001564 940e 1938 	CALL SUBOPT_0x35
001566 f449      	BRNE _0x267
                 ; 0000 0DA2                         {
                 ; 0000 0DA3                         cykl_sterownik_1 = 0;
001567 940e 1a19 	CALL SUBOPT_0x5A
                 ; 0000 0DA4                         sek12 = 0;
001569 e0e0      	LDI  R30,LOW(0)
00156a 940e 1a36 	CALL SUBOPT_0x5F
                 ; 0000 0DA5                         cykl_glowny = 15;
00156c e0ef      	LDI  R30,LOW(15)
00156d e0f0      	LDI  R31,HIGH(15)
00156e 940e 1991 	CALL SUBOPT_0x43
                 ; 0000 0DA6                         }
                 ; 0000 0DA7 
                 ; 0000 0DA8             break;
                 _0x267:
001570 c0b9      	RJMP _0x1E7
                 ; 0000 0DA9 
                 ; 0000 0DAA 
                 ; 0000 0DAB 
                 ; 0000 0DAC             case 15:
                 _0x265:
001571 30ef      	CPI  R30,LOW(0xF)
001572 e0a0      	LDI  R26,HIGH(0xF)
001573 07fa      	CPC  R31,R26
001574 f461      	BRNE _0x268
                 ; 0000 0DAD 
                 ; 0000 0DAE                     //przedmuch
                 ; 0000 0DAF                     PORT_F.bits.b4 = 1;  //przedmuch zaciskow
001575 940e 1a44 	CALL SUBOPT_0x61
                 ; 0000 0DB0                     PORTF = PORT_F.byte;
                 ; 0000 0DB1                     if(sek12 > czas_przedmuchu)
001577 940e 1a48 	CALL SUBOPT_0x62
001579 f434      	BRGE _0x269
                 ; 0000 0DB2                         {
                 ; 0000 0DB3                         PORT_F.bits.b4 = 0;  //przedmuch zaciskow
00157a 940e 1a59 	CALL SUBOPT_0x63
                 ; 0000 0DB4                         PORTF = PORT_F.byte;
                 ; 0000 0DB5                         cykl_glowny = 16;
00157c e1e0      	LDI  R30,LOW(16)
00157d e0f0      	LDI  R31,HIGH(16)
00157e 940e 1991 	CALL SUBOPT_0x43
                 ; 0000 0DB6                         }
                 ; 0000 0DB7             break;
                 _0x269:
001580 c0a9      	RJMP _0x1E7
                 ; 0000 0DB8 
                 ; 0000 0DB9 
                 ; 0000 0DBA             case 16:
                 _0x268:
001581 31e0      	CPI  R30,LOW(0x10)
001582 e0a0      	LDI  R26,HIGH(0x10)
001583 07fa      	CPC  R31,R26
001584 f011      	BREQ PC+3
001585 940c 1603 	JMP _0x26A
                 ; 0000 0DBB 
                 ; 0000 0DBC                      if(cykl_ilosc_zaciskow == il_zaciskow_rzad_1 & wykonalem_rzedow == 0)  /////zmieniam + 1 20.02
001587 91e0 052f 	LDS  R30,_il_zaciskow_rzad_1
001589 91f0 0530 	LDS  R31,_il_zaciskow_rzad_1+1
00158b 940e 1a3f 	CALL SUBOPT_0x60
00158d 940e 1bdd 	CALL __EQW12
00158f 2e0e      	MOV  R0,R30
001590 940e 1b2c 	CALL SUBOPT_0x80
001592 940e 187a 	CALL SUBOPT_0x19
001594 21e0      	AND  R30,R0
001595 f0e9      	BREQ _0x26B
                 ; 0000 0DBD                                 {
                 ; 0000 0DBE                                 cykl_ilosc_zaciskow = 0;
001596 940e 190a 	CALL SUBOPT_0x2D
                 ; 0000 0DBF 
                 ; 0000 0DC0                                 if(il_zaciskow_rzad_2 > 0)
001598 940e 1b31 	CALL SUBOPT_0x81
00159a 940e 1c15 	CALL __CPW02
00159c f464      	BRGE _0x26C
                 ; 0000 0DC1                                     {
                 ; 0000 0DC2                                     rzad_obrabiany = 2;
00159d e0e2      	LDI  R30,LOW(2)
00159e e0f0      	LDI  R31,HIGH(2)
00159f 93e0 0561 	STS  _rzad_obrabiany,R30
0015a1 93f0 0562 	STS  _rzad_obrabiany+1,R31
                 ; 0000 0DC3                                     cykl_glowny = 0;
0015a3 e0e0      	LDI  R30,LOW(0)
0015a4 93e0 0549 	STS  _cykl_glowny,R30
0015a6 93e0 054a 	STS  _cykl_glowny+1,R30
                 ; 0000 0DC4                                     }
                 ; 0000 0DC5                                 else
0015a8 c004      	RJMP _0x26D
                 _0x26C:
                 ; 0000 0DC6                                     cykl_glowny = 17;
0015a9 e1e1      	LDI  R30,LOW(17)
0015aa e0f0      	LDI  R31,HIGH(17)
0015ab 940e 1991 	CALL SUBOPT_0x43
                 ; 0000 0DC7 
                 ; 0000 0DC8                                 wykonalem_rzedow = 1;
                 _0x26D:
0015ad e0e1      	LDI  R30,LOW(1)
0015ae e0f0      	LDI  R31,HIGH(1)
0015af 93e0 0565 	STS  _wykonalem_rzedow,R30
0015b1 93f0 0566 	STS  _wykonalem_rzedow+1,R31
                 ; 0000 0DC9                                 }
                 ; 0000 0DCA 
                 ; 0000 0DCB                        if(cykl_ilosc_zaciskow == il_zaciskow_rzad_2 & il_zaciskow_rzad_2 > 0 & wykonalem_rzedow == 1)   ///////////////////zmieniam + 1 20.02
                 _0x26B:
0015b3 91e0 0531 	LDS  R30,_il_zaciskow_rzad_2
0015b5 91f0 0532 	LDS  R31,_il_zaciskow_rzad_2+1
0015b7 940e 1a3f 	CALL SUBOPT_0x60
0015b9 940e 1bdd 	CALL __EQW12
0015bb 2e0e      	MOV  R0,R30
0015bc 940e 1b31 	CALL SUBOPT_0x81
0015be 940e 1921 	CALL SUBOPT_0x31
0015c0 940e 1b2c 	CALL SUBOPT_0x80
0015c2 940e 187f 	CALL SUBOPT_0x1A
0015c4 21e0      	AND  R30,R0
0015c5 f071      	BREQ _0x26E
                 ; 0000 0DCC                                 {
                 ; 0000 0DCD                                 cykl_ilosc_zaciskow = 0;
0015c6 940e 190a 	CALL SUBOPT_0x2D
                 ; 0000 0DCE                                 cykl_glowny = 17;
0015c8 e1e1      	LDI  R30,LOW(17)
0015c9 e0f0      	LDI  R31,HIGH(17)
0015ca 940e 1991 	CALL SUBOPT_0x43
                 ; 0000 0DCF                                 rzad_obrabiany = 1;
0015cc 940e 18f8 	CALL SUBOPT_0x2A
                 ; 0000 0DD0                                 wykonalem_rzedow = 2;
0015ce e0e2      	LDI  R30,LOW(2)
0015cf e0f0      	LDI  R31,HIGH(2)
0015d0 93e0 0565 	STS  _wykonalem_rzedow,R30
0015d2 93f0 0566 	STS  _wykonalem_rzedow+1,R31
                 ; 0000 0DD1                                 }
                 ; 0000 0DD2 
                 ; 0000 0DD3 
                 ; 0000 0DD4 
                 ; 0000 0DD5 
                 ; 0000 0DD6                         if(il_zaciskow_rzad_1 > 0 & il_zaciskow_rzad_2 > 0 & wykonalem_rzedow == 2)
                 _0x26E:
0015d4 940e 1b36 	CALL SUBOPT_0x82
0015d6 940e 1921 	CALL SUBOPT_0x31
0015d8 940e 1b2c 	CALL SUBOPT_0x80
0015da 940e 19a3 	CALL SUBOPT_0x46
0015dc f069      	BREQ _0x26F
                 ; 0000 0DD7                                   {
                 ; 0000 0DD8                                   rzad_obrabiany = 1;
0015dd 940e 18f8 	CALL SUBOPT_0x2A
                 ; 0000 0DD9                                   wykonalem_rzedow = 0;
0015df e0e0      	LDI  R30,LOW(0)
0015e0 940e 1905 	CALL SUBOPT_0x2C
                 ; 0000 0DDA                                   PORTE.6 = 0;    //przelacz rzad zaciskow - rzad 1
0015e2 981e      	CBI  0x3,6
                 ; 0000 0DDB                                   PORTB.6 = 0;   ////zielona lampka
0015e3 98c6      	CBI  0x18,6
                 ; 0000 0DDC                                   wartosc_parametru_panelu(0,0,64);
0015e4 940e 1910 	CALL SUBOPT_0x2E
0015e6 940e 1910 	CALL SUBOPT_0x2E
0015e8 940e 1b40 	CALL SUBOPT_0x83
                 ; 0000 0DDD                                   }
                 ; 0000 0DDE 
                 ; 0000 0DDF                             if(il_zaciskow_rzad_1 > 0 & il_zaciskow_rzad_2 == 0 & wykonalem_rzedow == 1)
                 _0x26F:
0015ea 940e 1b36 	CALL SUBOPT_0x82
0015ec 940e 187a 	CALL SUBOPT_0x19
0015ee 220e      	AND  R0,R30
0015ef 940e 1b2c 	CALL SUBOPT_0x80
0015f1 940e 187f 	CALL SUBOPT_0x1A
0015f3 21e0      	AND  R30,R0
0015f4 f069      	BREQ _0x274
                 ; 0000 0DE0                                   {
                 ; 0000 0DE1                                   rzad_obrabiany = 1;
0015f5 940e 18f8 	CALL SUBOPT_0x2A
                 ; 0000 0DE2                                   wykonalem_rzedow = 0;
0015f7 e0e0      	LDI  R30,LOW(0)
0015f8 940e 1905 	CALL SUBOPT_0x2C
                 ; 0000 0DE3                                   PORTE.6 = 1;    //przelacz rzad zaciskow - rzad 2
0015fa 9a1e      	SBI  0x3,6
                 ; 0000 0DE4                                   PORTB.6 = 0;   ////zielona lampka
0015fb 98c6      	CBI  0x18,6
                 ; 0000 0DE5                                   wartosc_parametru_panelu(0,0,64);
0015fc 940e 1910 	CALL SUBOPT_0x2E
0015fe 940e 1910 	CALL SUBOPT_0x2E
001600 940e 1b40 	CALL SUBOPT_0x83
                 ; 0000 0DE6                                   }
                 ; 0000 0DE7 
                 ; 0000 0DE8 
                 ; 0000 0DE9 
                 ; 0000 0DEA             break;
                 _0x274:
001602 c027      	RJMP _0x1E7
                 ; 0000 0DEB 
                 ; 0000 0DEC 
                 ; 0000 0DED             case 17:
                 _0x26A:
001603 31e1      	CPI  R30,LOW(0x11)
001604 e0a0      	LDI  R26,HIGH(0x11)
001605 07fa      	CPC  R31,R26
001606 f519      	BRNE _0x1E7
                 ; 0000 0DEE 
                 ; 0000 0DEF 
                 ; 0000 0DF0                                  if(cykl_sterownik_1 < 5)
001607 940e 1938 	CALL SUBOPT_0x35
001609 f424      	BRGE _0x27A
                 ; 0000 0DF1                                     cykl_sterownik_1 = sterownik_1_praca(0x09,0);
00160a 940e 193e 	CALL SUBOPT_0x36
00160c 940e 1943 	CALL SUBOPT_0x37
                 ; 0000 0DF2                                  if(cykl_sterownik_2 < 5)                                //ster 1 do 0
                 _0x27A:
00160e 940e 1946 	CALL SUBOPT_0x38
001610 f434      	BRGE _0x27B
                 ; 0000 0DF3                                     cykl_sterownik_2 = sterownik_2_praca(0x00,0);       //ster 2 pod pin pozy rzad 1
001611 940e 1910 	CALL SUBOPT_0x2E
001613 940e 1910 	CALL SUBOPT_0x2E
001615 940e 194c 	CALL SUBOPT_0x39
                 ; 0000 0DF4 
                 ; 0000 0DF5                                     if(cykl_sterownik_1 == 5 & cykl_sterownik_2 == 5)
                 _0x27B:
001617 940e 1959 	CALL SUBOPT_0x3C
001619 940e 1960 	CALL SUBOPT_0x3D
00161b 21e0      	AND  R30,R0
00161c f069      	BREQ _0x27C
                 ; 0000 0DF6                                         {
                 ; 0000 0DF7                                         cykl_sterownik_1 = 0;
00161d 940e 1a19 	CALL SUBOPT_0x5A
                 ; 0000 0DF8                                         cykl_sterownik_2 = 0;
00161f e0e0      	LDI  R30,LOW(0)
001620 93e0 0537 	STS  _cykl_sterownik_2,R30
001622 93e0 0538 	STS  _cykl_sterownik_2+1,R30
                 ; 0000 0DF9                                         jestem_w_trakcie_czyszczenia_calosci = 0;
001624 940e 18ff 	CALL SUBOPT_0x2B
                 ; 0000 0DFA                                         start = 0;
001626 93e0 0525 	STS  _start,R30
001628 93e0 0526 	STS  _start+1,R30
                 ; 0000 0DFB                                         }
                 ; 0000 0DFC 
                 ; 0000 0DFD 
                 ; 0000 0DFE 
                 ; 0000 0DFF 
                 ; 0000 0E00             break;
                 _0x27C:
                 ; 0000 0E01 
                 ; 0000 0E02 
                 ; 0000 0E03             }//switch
                 _0x1E7:
                 ; 0000 0E04 
                 ; 0000 0E05 
                 ; 0000 0E06   }//while
00162a ca57      	RJMP _0x1E2
                 _0x1E4:
                 ; 0000 0E07 }//while glowny
00162b ca33      	RJMP _0x1DF
                 ; 0000 0E08 
                 ; 0000 0E09 }//koniec
                 _0x27D:
00162c cfff      	RJMP _0x27D
                 ;
                 ;
                 ;
                 ;//odrzuty
                 ; /*
                 ;      putchar(90);
                 ;      putchar(165);
                 ;      putchar(10);       //ilosc liter 8 + 3, tu moze byc faza bo jade przez putchar a nie printf, moze byc wiecej znakow
                 ;      putchar(130);  //82
                 ;      putchar(0);    //0
                 ;      putchar(80);  //adres 90 - 144   , nowy adres to 50 czyli 80
                 ;      putchar('8');
                 ;      putchar('6');
                 ;      putchar('-');
                 ;      putchar('0');
                 ;      putchar('1');
                 ;      putchar('9');
                 ;      putchar('3');
                 ;      */
                 ;
                 ;
                 ;
                 ;
                 ;//odrzuty
                 ;/*
                 ;  while(cykl_sterownik_2 != 5)
                 ;        {
                 ;        if(cykl_sterownik_2 < 5)
                 ;                cykl_sterownik_2 = sterownik_2_praca(0x00,0);
                 ;
                 ;        }
                 ;
                 ;        if(cykl_sterownik_2 == 5)
                 ;              cykl_sterownik_2 = 0;
                 ;
                 ;        while(cykl_sterownik_2 != 5)
                 ;        {
                 ;        xxx = 1;
                 ;        PORTB.6 = 0;  //zielona lampka
                 ;        if(cykl_sterownik_2 < 5)
                 ;                cykl_sterownik_2 = sterownik_2_praca(0x5A,0);
                 ;
                 ;        }
                 ;
                 ;
                 ;        while(1)
                 ;            {
                 ;            }
                 ;
                 ;*/
                 ;
                 ; /*
                 ;        if(cykl_sterownik_3 < 5 & cykl_sterownik_3_wykonalem == 0)
                 ;                cykl_sterownik_3 = sterownik_3_praca(0,0,1,0,1,0);
                 ;        if(cykl_sterownik_3 == 5)
                 ;              cykl_sterownik_3 = 0;
                 ;        if(cykl_sterownik_3 < 5 & cykl_sterownik_3_wykonalem == 1)
                 ;                cykl_sterownik_3 = sterownik_3_praca(0,0,1,0,1,1);
                 ;
                 ;        */
                 ;
                 ;
                 ; /*
                 ;             if(cykl_sterownik_1 != 5)
                 ;                cykl_sterownik_1 = sterownik_1_praca(0x00);
                 ;             if(cykl_sterownik_3 != 5)
                 ;                cykl_sterownik_3 = sterownik_3_praca(0,0,0,0);
                 ;             */
                 ;
                 ;
                 ;//interrupt [TIM2_OVF] void timer2_ovf_isr(void)
                 ;//{
                 ;
                 ;/*
                 ;if(odczytalem_zacisk < il_prob_odczytu & (PINA.0 == 1 | PINA.1 == 1 | PINA.2 == 1 | PINA.3 == 1 | PINA.4 == 1 | PINA.5 == 1 | PINA.6 == 1 | PINA.7 == 1))
                 ;    {
                 ;    //PORT_CZYTNIK.byte = PORTHH.byte;
                 ;
                 ;    PORT_CZYTNIK.bits.b0 = PINA.0;
                 ;    PORT_CZYTNIK.bits.b1 = PINA.1;
                 ;    PORT_CZYTNIK.bits.b2 = PINA.2;
                 ;    PORT_CZYTNIK.bits.b3 = PINA.3;
                 ;    PORT_CZYTNIK.bits.b4 = PINA.4;
                 ;    PORT_CZYTNIK.bits.b5 = PINA.5;
                 ;    PORT_CZYTNIK.bits.b6 = PINA.6;
                 ;    PORT_CZYTNIK.bits.b7 = PINA.7;
                 ;
                 ;    odczytalem_zacisk++;
                 ;    }
                 ;
                 ;
                 ;*/
                 ;
                 ;/*
                 ;if(odczytalem_zacisk < il_prob_odczytu &
                 ;                                           (sprawdz_pin0(PORTHH,0x73) == 1 |
                 ;                                            sprawdz_pin1(PORTHH,0x73) == 1 |
                 ;                                            sprawdz_pin2(PORTHH,0x73) == 1 |
                 ;                                            sprawdz_pin3(PORTHH,0x73) == 1 |
                 ;                                            sprawdz_pin4(PORTHH,0x73) == 1 |
                 ;                                            sprawdz_pin5(PORTHH,0x73) == 1 |
                 ;                                            sprawdz_pin6(PORTHH,0x73) == 1 |
                 ;                                            sprawdz_pin7(PORTHH,0x73) == 1))
                 ;        {
                 ;        //PORTB = 0xFF;
                 ;        odczytalem_zacisk++;
                 ;        }
                 ;
                 ;*/
                 ;
                 ;//}
                 ;
                 ;
                 ;/*
                 ;
                 ;
                 ;                         if(rzad_obrabiany == 1)
                 ;                         {
                 ;                         if(cykl_sterownik_3 < 5 & cykl_ilosc_zaciskow != 2)
                 ;                            cykl_sterownik_3 = sterownik_3_praca(0,0,0,0,0,1);  //do pozycji bazowej
                 ;
                 ;                          if(cykl_sterownik_4 < 5 & cykl_ilosc_zaciskow != 2)
                 ;                            cykl_sterownik_4 = sterownik_4_praca(0,0,0,0,0,1);  //do pozycji bazowej
                 ;
                 ;
                 ;                         if(cykl_sterownik_3 < 5 & cykl_ilosc_zaciskow == 2)
                 ;                            cykl_sterownik_3 = sterownik_3_praca(0,0,0,0,0,0);  //na sam dol, jedziemy miedzy rzedami
                 ;
                 ;                          if(cykl_sterownik_4 < 5 & cykl_ilosc_zaciskow == 2)
                 ;                            cykl_sterownik_4 = sterownik_4_praca(0,0,0,0,0,0);  //na sam dol, jedziemy miedzy rzedami
                 ;                          }
                 ;
                 ;
                 ;*/
                 
                 	.CSEG
                 _strlen:
00162d 91a9          ld   r26,y+
00162e 91b9          ld   r27,y+
00162f 27ee          clr  r30
001630 27ff          clr  r31
                 strlen0:
001631 916d          ld   r22,x+
001632 2366          tst  r22
001633 f011          breq strlen1
001634 9631          adiw r30,1
001635 cffb          rjmp strlen0
                 strlen1:
001636 9508          ret
                 _strlenf:
001637 27aa          clr  r26
001638 27bb          clr  r27
001639 91e9          ld   r30,y+
00163a 91f9          ld   r31,y+
                 strlenf0:
00163b 9005      	lpm  r0,z+
00163c 2000          tst  r0
00163d f011          breq strlenf1
00163e 9611          adiw r26,1
00163f cffb          rjmp strlenf0
                 strlenf1:
001640 01fd          movw r30,r26
001641 9508          ret
                 
                 	.CSEG
                 
                 	.DSEG
                 
                 	.CSEG
                 
                 	.CSEG
                 	#ifndef __SLEEP_DEFINED__
                 	#endif
                 
                 	.CSEG
                 _getchar:
                 getchar0:
001642 9b5f           sbis usr,rxc
001643 cffe           rjmp getchar0
001644 b1ec           in   r30,udr
001645 9508      	RET
                 _putchar:
                 putchar0:
001646 9b5d           sbis usr,udre
001647 cffe           rjmp putchar0
001648 81e8           ld   r30,y
001649 b9ec           out  udr,r30
00164a 9621      	ADIW R28,1
00164b 9508      	RET
                 _put_usart_G103:
00164c 81ea      	LDD  R30,Y+2
00164d 93ea      	ST   -Y,R30
00164e dff7      	RCALL _putchar
00164f 81a8      	LD   R26,Y
001650 81b9      	LDD  R27,Y+1
001651 940e 1a99 	CALL SUBOPT_0x6C
001653 9623      	ADIW R28,3
001654 9508      	RET
                 __print_G103:
001655 9726      	SBIW R28,6
001656 940e 1c1e 	CALL __SAVELOCR6
001658 e010      	LDI  R17,0
001659 85ac      	LDD  R26,Y+12
00165a 85bd      	LDD  R27,Y+12+1
00165b e0e0      	LDI  R30,LOW(0)
00165c e0f0      	LDI  R31,HIGH(0)
00165d 93ed      	ST   X+,R30
00165e 93fc      	ST   X,R31
                 _0x2060016:
00165f 89ea      	LDD  R30,Y+18
001660 89fb      	LDD  R31,Y+18+1
001661 9631      	ADIW R30,1
001662 8bea      	STD  Y+18,R30
001663 8bfb      	STD  Y+18+1,R31
001664 9731      	SBIW R30,1
001665 91e4      	LPM  R30,Z
001666 2f2e      	MOV  R18,R30
001667 30e0      	CPI  R30,0
001668 f411      	BRNE PC+3
001669 940c 1782 	JMP _0x2060018
00166b 2fe1      	MOV  R30,R17
00166c 30e0      	CPI  R30,0
00166d f439      	BRNE _0x206001C
00166e 3225      	CPI  R18,37
00166f f411      	BRNE _0x206001D
001670 e011      	LDI  R17,LOW(1)
001671 c002      	RJMP _0x206001E
                 _0x206001D:
001672 940e 1b46 	CALL SUBOPT_0x84
                 _0x206001E:
001674 c10c      	RJMP _0x206001B
                 _0x206001C:
001675 30e1      	CPI  R30,LOW(0x1)
001676 f4a9      	BRNE _0x206001F
001677 3225      	CPI  R18,37
001678 f419      	BRNE _0x2060020
001679 940e 1b46 	CALL SUBOPT_0x84
00167b c104      	RJMP _0x20600C9
                 _0x2060020:
00167c e012      	LDI  R17,LOW(2)
00167d e040      	LDI  R20,LOW(0)
00167e e000      	LDI  R16,LOW(0)
00167f 322d      	CPI  R18,45
001680 f411      	BRNE _0x2060021
001681 e001      	LDI  R16,LOW(1)
001682 c0fe      	RJMP _0x206001B
                 _0x2060021:
001683 322b      	CPI  R18,43
001684 f411      	BRNE _0x2060022
001685 e24b      	LDI  R20,LOW(43)
001686 c0fa      	RJMP _0x206001B
                 _0x2060022:
001687 3220      	CPI  R18,32
001688 f411      	BRNE _0x2060023
001689 e240      	LDI  R20,LOW(32)
00168a c0f6      	RJMP _0x206001B
                 _0x2060023:
00168b c002      	RJMP _0x2060024
                 _0x206001F:
00168c 30e2      	CPI  R30,LOW(0x2)
00168d f439      	BRNE _0x2060025
                 _0x2060024:
00168e e050      	LDI  R21,LOW(0)
00168f e013      	LDI  R17,LOW(3)
001690 3320      	CPI  R18,48
001691 f411      	BRNE _0x2060026
001692 6800      	ORI  R16,LOW(128)
001693 c0ed      	RJMP _0x206001B
                 _0x2060026:
001694 c004      	RJMP _0x2060027
                 _0x2060025:
001695 30e3      	CPI  R30,LOW(0x3)
001696 f011      	BREQ PC+3
001697 940c 1781 	JMP _0x206001B
                 _0x2060027:
001699 3320      	CPI  R18,48
00169a f010      	BRLO _0x206002A
00169b 332a      	CPI  R18,58
00169c f008      	BRLO _0x206002B
                 _0x206002A:
00169d c007      	RJMP _0x2060029
                 _0x206002B:
00169e e0aa      	LDI  R26,LOW(10)
00169f 9f5a      	MUL  R21,R26
0016a0 2d50      	MOV  R21,R0
0016a1 2fe2      	MOV  R30,R18
0016a2 53e0      	SUBI R30,LOW(48)
0016a3 0f5e      	ADD  R21,R30
0016a4 c0dc      	RJMP _0x206001B
                 _0x2060029:
0016a5 2fe2      	MOV  R30,R18
0016a6 36e3      	CPI  R30,LOW(0x63)
0016a7 f449      	BRNE _0x206002F
0016a8 940e 1b4f 	CALL SUBOPT_0x85
0016aa 89e8      	LDD  R30,Y+16
0016ab 89f9      	LDD  R31,Y+16+1
0016ac 81a4      	LDD  R26,Z+4
0016ad 93aa      	ST   -Y,R26
0016ae 940e 1b55 	CALL SUBOPT_0x86
0016b0 c0cf      	RJMP _0x2060030
                 _0x206002F:
0016b1 37e3      	CPI  R30,LOW(0x73)
0016b2 f441      	BRNE _0x2060032
0016b3 940e 1b4f 	CALL SUBOPT_0x85
0016b5 940e 1b5d 	CALL SUBOPT_0x87
0016b7 940e 162d 	CALL _strlen
0016b9 2f1e      	MOV  R17,R30
0016ba c00a      	RJMP _0x2060033
                 _0x2060032:
0016bb 37e0      	CPI  R30,LOW(0x70)
0016bc f461      	BRNE _0x2060035
0016bd 940e 1b4f 	CALL SUBOPT_0x85
0016bf 940e 1b5d 	CALL SUBOPT_0x87
0016c1 940e 1637 	CALL _strlenf
0016c3 2f1e      	MOV  R17,R30
0016c4 6008      	ORI  R16,LOW(8)
                 _0x2060033:
0016c5 6002      	ORI  R16,LOW(2)
0016c6 770f      	ANDI R16,LOW(127)
0016c7 e030      	LDI  R19,LOW(0)
0016c8 c035      	RJMP _0x2060036
                 _0x2060035:
0016c9 36e4      	CPI  R30,LOW(0x64)
0016ca f011      	BREQ _0x2060039
0016cb 36e9      	CPI  R30,LOW(0x69)
0016cc f411      	BRNE _0x206003A
                 _0x2060039:
0016cd 6004      	ORI  R16,LOW(4)
0016ce c002      	RJMP _0x206003B
                 _0x206003A:
0016cf 37e5      	CPI  R30,LOW(0x75)
0016d0 f431      	BRNE _0x206003C
                 _0x206003B:
0016d1 e8ec      	LDI  R30,LOW(_tbl10_G103*2)
0016d2 e0f0      	LDI  R31,HIGH(_tbl10_G103*2)
0016d3 83ee      	STD  Y+6,R30
0016d4 83ff      	STD  Y+6+1,R31
0016d5 e015      	LDI  R17,LOW(5)
0016d6 c00d      	RJMP _0x206003D
                 _0x206003C:
0016d7 35e8      	CPI  R30,LOW(0x58)
0016d8 f411      	BRNE _0x206003F
0016d9 6008      	ORI  R16,LOW(8)
0016da c004      	RJMP _0x2060040
                 _0x206003F:
0016db 37e8      	CPI  R30,LOW(0x78)
0016dc f011      	BREQ PC+3
0016dd 940c 1780 	JMP _0x2060071
                 _0x2060040:
0016df e9e6      	LDI  R30,LOW(_tbl16_G103*2)
0016e0 e0f0      	LDI  R31,HIGH(_tbl16_G103*2)
0016e1 83ee      	STD  Y+6,R30
0016e2 83ff      	STD  Y+6+1,R31
0016e3 e014      	LDI  R17,LOW(4)
                 _0x206003D:
0016e4 ff02      	SBRS R16,2
0016e5 c014      	RJMP _0x2060042
0016e6 940e 1b4f 	CALL SUBOPT_0x85
0016e8 940e 1b65 	CALL SUBOPT_0x88
0016ea 85ab      	LDD  R26,Y+11
0016eb 23aa      	TST  R26
0016ec f43a      	BRPL _0x2060043
0016ed 85ea      	LDD  R30,Y+10
0016ee 85fb      	LDD  R31,Y+10+1
0016ef 940e 1bcf 	CALL __ANEGW1
0016f1 87ea      	STD  Y+10,R30
0016f2 87fb      	STD  Y+10+1,R31
0016f3 e24d      	LDI  R20,LOW(45)
                 _0x2060043:
0016f4 3040      	CPI  R20,0
0016f5 f011      	BREQ _0x2060044
0016f6 5f1f      	SUBI R17,-LOW(1)
0016f7 c001      	RJMP _0x2060045
                 _0x2060044:
0016f8 7f0b      	ANDI R16,LOW(251)
                 _0x2060045:
0016f9 c004      	RJMP _0x2060046
                 _0x2060042:
0016fa 940e 1b4f 	CALL SUBOPT_0x85
0016fc 940e 1b65 	CALL SUBOPT_0x88
                 _0x2060046:
                 _0x2060036:
0016fe fd00      	SBRC R16,0
0016ff c011      	RJMP _0x2060047
                 _0x2060048:
001700 1715      	CP   R17,R21
001701 f478      	BRSH _0x206004A
001702 ff07      	SBRS R16,7
001703 c008      	RJMP _0x206004B
001704 ff02      	SBRS R16,2
001705 c004      	RJMP _0x206004C
001706 7f0b      	ANDI R16,LOW(251)
001707 2f24      	MOV  R18,R20
001708 5011      	SUBI R17,LOW(1)
001709 c001      	RJMP _0x206004D
                 _0x206004C:
00170a e320      	LDI  R18,LOW(48)
                 _0x206004D:
00170b c001      	RJMP _0x206004E
                 _0x206004B:
00170c e220      	LDI  R18,LOW(32)
                 _0x206004E:
00170d 940e 1b46 	CALL SUBOPT_0x84
00170f 5051      	SUBI R21,LOW(1)
001710 cfef      	RJMP _0x2060048
                 _0x206004A:
                 _0x2060047:
001711 2f31      	MOV  R19,R17
001712 ff01      	SBRS R16,1
001713 c017      	RJMP _0x206004F
                 _0x2060050:
001714 3030      	CPI  R19,0
001715 f0a1      	BREQ _0x2060052
001716 ff03      	SBRS R16,3
001717 c006      	RJMP _0x2060053
001718 81ee      	LDD  R30,Y+6
001719 81ff      	LDD  R31,Y+6+1
00171a 9125      	LPM  R18,Z+
00171b 83ee      	STD  Y+6,R30
00171c 83ff      	STD  Y+6+1,R31
00171d c005      	RJMP _0x2060054
                 _0x2060053:
00171e 81ae      	LDD  R26,Y+6
00171f 81bf      	LDD  R27,Y+6+1
001720 912d      	LD   R18,X+
001721 83ae      	STD  Y+6,R26
001722 83bf      	STD  Y+6+1,R27
                 _0x2060054:
001723 940e 1b46 	CALL SUBOPT_0x84
001725 3050      	CPI  R21,0
001726 f009      	BREQ _0x2060055
001727 5051      	SUBI R21,LOW(1)
                 _0x2060055:
001728 5031      	SUBI R19,LOW(1)
001729 cfea      	RJMP _0x2060050
                 _0x2060052:
00172a c04b      	RJMP _0x2060056
                 _0x206004F:
                 _0x2060058:
00172b e320      	LDI  R18,LOW(48)
00172c 81ee      	LDD  R30,Y+6
00172d 81ff      	LDD  R31,Y+6+1
00172e 940e 1c09 	CALL __GETW1PF
001730 87e8      	STD  Y+8,R30
001731 87f9      	STD  Y+8+1,R31
001732 81ee      	LDD  R30,Y+6
001733 81ff      	LDD  R31,Y+6+1
001734 9632      	ADIW R30,2
001735 83ee      	STD  Y+6,R30
001736 83ff      	STD  Y+6+1,R31
                 _0x206005A:
001737 85e8      	LDD  R30,Y+8
001738 85f9      	LDD  R31,Y+8+1
001739 85aa      	LDD  R26,Y+10
00173a 85bb      	LDD  R27,Y+10+1
00173b 17ae      	CP   R26,R30
00173c 07bf      	CPC  R27,R31
00173d f050      	BRLO _0x206005C
00173e 5f2f      	SUBI R18,-LOW(1)
00173f 85a8      	LDD  R26,Y+8
001740 85b9      	LDD  R27,Y+8+1
001741 85ea      	LDD  R30,Y+10
001742 85fb      	LDD  R31,Y+10+1
001743 1bea      	SUB  R30,R26
001744 0bfb      	SBC  R31,R27
001745 87ea      	STD  Y+10,R30
001746 87fb      	STD  Y+10+1,R31
001747 cfef      	RJMP _0x206005A
                 _0x206005C:
001748 332a      	CPI  R18,58
001749 f028      	BRLO _0x206005D
00174a ff03      	SBRS R16,3
00174b c002      	RJMP _0x206005E
00174c 5f29      	SUBI R18,-LOW(7)
00174d c001      	RJMP _0x206005F
                 _0x206005E:
00174e 5d29      	SUBI R18,-LOW(39)
                 _0x206005F:
                 _0x206005D:
00174f fd04      	SBRC R16,4
001750 c01a      	RJMP _0x2060061
001751 3321      	CPI  R18,49
001752 f420      	BRSH _0x2060063
001753 85a8      	LDD  R26,Y+8
001754 85b9      	LDD  R27,Y+8+1
001755 9711      	SBIW R26,1
001756 f409      	BRNE _0x2060062
                 _0x2060063:
001757 c009      	RJMP _0x20600CA
                 _0x2060062:
001758 1753      	CP   R21,R19
001759 f010      	BRLO _0x2060067
00175a ff00      	SBRS R16,0
00175b c001      	RJMP _0x2060068
                 _0x2060067:
00175c c013      	RJMP _0x2060066
                 _0x2060068:
00175d e220      	LDI  R18,LOW(32)
00175e ff07      	SBRS R16,7
00175f c00b      	RJMP _0x2060069
001760 e320      	LDI  R18,LOW(48)
                 _0x20600CA:
001761 6100      	ORI  R16,LOW(16)
001762 ff02      	SBRS R16,2
001763 c007      	RJMP _0x206006A
001764 7f0b      	ANDI R16,LOW(251)
001765 934a      	ST   -Y,R20
001766 940e 1b55 	CALL SUBOPT_0x86
001768 3050      	CPI  R21,0
001769 f009      	BREQ _0x206006B
00176a 5051      	SUBI R21,LOW(1)
                 _0x206006B:
                 _0x206006A:
                 _0x2060069:
                 _0x2060061:
00176b 940e 1b46 	CALL SUBOPT_0x84
00176d 3050      	CPI  R21,0
00176e f009      	BREQ _0x206006C
00176f 5051      	SUBI R21,LOW(1)
                 _0x206006C:
                 _0x2060066:
001770 5031      	SUBI R19,LOW(1)
001771 85a8      	LDD  R26,Y+8
001772 85b9      	LDD  R27,Y+8+1
001773 9712      	SBIW R26,2
001774 f008      	BRLO _0x2060059
001775 cfb5      	RJMP _0x2060058
                 _0x2060059:
                 _0x2060056:
001776 ff00      	SBRS R16,0
001777 c008      	RJMP _0x206006D
                 _0x206006E:
001778 3050      	CPI  R21,0
001779 f031      	BREQ _0x2060070
00177a 5051      	SUBI R21,LOW(1)
00177b e2e0      	LDI  R30,LOW(32)
00177c 93ea      	ST   -Y,R30
00177d 940e 1b55 	CALL SUBOPT_0x86
00177f cff8      	RJMP _0x206006E
                 _0x2060070:
                 _0x206006D:
                 _0x2060071:
                 _0x2060030:
                 _0x20600C9:
001780 e010      	LDI  R17,LOW(0)
                 _0x206001B:
001781 cedd      	RJMP _0x2060016
                 _0x2060018:
001782 85ac      	LDD  R26,Y+12
001783 85bd      	LDD  R27,Y+12+1
001784 940e 1bfb 	CALL __GETW1P
001786 940e 1c25 	CALL __LOADLOCR6
001788 9664      	ADIW R28,20
001789 9508      	RET
                 _printf:
00178a 92ff      	PUSH R15
00178b 2ef8      	MOV  R15,R24
00178c 9726      	SBIW R28,6
00178d 931a      	ST   -Y,R17
00178e 930a      	ST   -Y,R16
00178f 01de      	MOVW R26,R28
001790 9614      	ADIW R26,4
001791 940e 1bcb 	CALL __ADDW2R15
001793 018d      	MOVW R16,R26
001794 e0e0      	LDI  R30,LOW(0)
001795 83ec      	STD  Y+4,R30
001796 83ed      	STD  Y+4+1,R30
001797 83ee      	STD  Y+6,R30
001798 83ef      	STD  Y+6+1,R30
001799 01de      	MOVW R26,R28
00179a 9618      	ADIW R26,8
00179b 940e 1bcb 	CALL __ADDW2R15
00179d 940e 1bfb 	CALL __GETW1P
00179f 93fa      	ST   -Y,R31
0017a0 93ea      	ST   -Y,R30
0017a1 931a      	ST   -Y,R17
0017a2 930a      	ST   -Y,R16
0017a3 e4ec      	LDI  R30,LOW(_put_usart_G103)
0017a4 e1f6      	LDI  R31,HIGH(_put_usart_G103)
0017a5 93fa      	ST   -Y,R31
0017a6 93ea      	ST   -Y,R30
0017a7 01fe      	MOVW R30,R28
0017a8 9638      	ADIW R30,8
0017a9 93fa      	ST   -Y,R31
0017aa 93ea      	ST   -Y,R30
0017ab dea9      	RCALL __print_G103
0017ac 8119      	LDD  R17,Y+1
0017ad 8108      	LDD  R16,Y+0
0017ae 9628      	ADIW R28,8
0017af 90ff      	POP  R15
0017b0 9508      	RET
                 
                 	.CSEG
                 
                 	.DSEG
                 _PORT_F:
000500           	.BYTE 0x1
                 _PORTHH:
000501           	.BYTE 0x1
                 _PORT_CZYTNIK:
000502           	.BYTE 0x1
                 _PORTJJ:
000503           	.BYTE 0x1
                 _PORTKK:
000504           	.BYTE 0x1
                 _PORTLL:
000505           	.BYTE 0x1
                 _PORTMM:
000506           	.BYTE 0x1
                 _macierz_zaciskow:
000507           	.BYTE 0x6
                 _sek1:
00050d           	.BYTE 0x4
                 _sek2:
000511           	.BYTE 0x4
                 _sek3:
000515           	.BYTE 0x4
                 _sek4:
000519           	.BYTE 0x4
                 _sek11:
00051d           	.BYTE 0x4
                 _sek12:
000521           	.BYTE 0x4
                 _start:
000525           	.BYTE 0x2
                 _cykl:
000527           	.BYTE 0x2
                 _bbb:
000529           	.BYTE 0x2
                 _pozycjonowanie_LEFS32_300_1:
00052b           	.BYTE 0x2
                 _pozycjonowanie_LEFS32_300_2:
00052d           	.BYTE 0x2
                 _il_zaciskow_rzad_1:
00052f           	.BYTE 0x2
                 _il_zaciskow_rzad_2:
000531           	.BYTE 0x2
                 _cykl_sterownik_1:
000533           	.BYTE 0x2
                 _cykl_sterownik_3:
000535           	.BYTE 0x2
                 _cykl_sterownik_2:
000537           	.BYTE 0x2
                 _cykl_sterownik_4:
000539           	.BYTE 0x2
                 _adr1:
00053b           	.BYTE 0x2
                 _adr2:
00053d           	.BYTE 0x2
                 _adr3:
00053f           	.BYTE 0x2
                 _adr4:
000541           	.BYTE 0x2
                 _cykl_sterownik_3_wykonalem:
000543           	.BYTE 0x2
                 _szczotka_druciana_ilosc_cykli:
000545           	.BYTE 0x2
                 _szczotka_druc_cykl:
000547           	.BYTE 0x2
                 _cykl_glowny:
000549           	.BYTE 0x2
                 _start_kontynuacja:
00054b           	.BYTE 0x2
                 _ruch_zlozony:
00054d           	.BYTE 0x2
                 _krazek_scierny_cykl_po_okregu:
00054f           	.BYTE 0x2
                 _krazek_scierny_cykl_po_okregu_ilosc:
000551           	.BYTE 0x2
                 _krazek_scierny_cykl:
000553           	.BYTE 0x2
                 _krazek_scierny_ilosc_cykli:
000555           	.BYTE 0x2
                 _cykl_ilosc_zaciskow:
000557           	.BYTE 0x2
                 _wykonalem_komplet_okregow:
000559           	.BYTE 0x2
                 _abs_ster3:
00055b           	.BYTE 0x2
                 _abs_ster4:
00055d           	.BYTE 0x2
                 _koniec_rzedu_10:
00055f           	.BYTE 0x2
                 _rzad_obrabiany:
000561           	.BYTE 0x2
                 _jestem_w_trakcie_czyszczenia_calosci:
000563           	.BYTE 0x2
                 _wykonalem_rzedow:
000565           	.BYTE 0x2
                 _czekaj_az_puszcze:
000567           	.BYTE 0x2
                 _czas_przedmuchu:
000569           	.BYTE 0x2
                 _a:
00056b           	.BYTE 0x14
                 __seed_G101:
00057f           	.BYTE 0x4
                 
                 	.CSEG
                 ;OPTIMIZER ADDED SUBROUTINE, CALLED 8 TIMES, CODE SIZE REDUCTION:81 WORDS
                 SUBOPT_0x0:
0017b1 940e 1b72 	CALL _i2c_start
0017b3 81e8      	LD   R30,Y
0017b4 93ea      	ST   -Y,R30
0017b5 940e 1ba6 	CALL _i2c_write
0017b7 e0e0      	LDI  R30,LOW(0)
0017b8 93ea      	ST   -Y,R30
0017b9 940e 1b8b 	CALL _i2c_read
0017bb 83ea      	STD  Y+2,R30
0017bc 940e 1b81 	CALL _i2c_stop
0017be 81ea      	LDD  R30,Y+2
0017bf 9508      	RET
                 
                 ;OPTIMIZER ADDED SUBROUTINE, CALLED 5 TIMES, CODE SIZE REDUCTION:21 WORDS
                 SUBOPT_0x1:
0017c0 e5ea      	LDI  R30,LOW(90)
0017c1 93ea      	ST   -Y,R30
0017c2 940e 1646 	CALL _putchar
0017c4 eae5      	LDI  R30,LOW(165)
0017c5 93ea      	ST   -Y,R30
0017c6 940c 1646 	JMP  _putchar
                 
                 ;OPTIMIZER ADDED SUBROUTINE, CALLED 2 TIMES, CODE SIZE REDUCTION:6 WORDS
                 SUBOPT_0x2:
0017c8 93ea      	ST   -Y,R30
0017c9 940e 1646 	CALL _putchar
0017cb 81ec      	LDD  R30,Y+4
0017cc 93ea      	ST   -Y,R30
0017cd 940e 1646 	CALL _putchar
0017cf 81ea      	LDD  R30,Y+2
0017d0 93ea      	ST   -Y,R30
0017d1 940c 1646 	JMP  _putchar
                 
                 ;OPTIMIZER ADDED SUBROUTINE, CALLED 3 TIMES, CODE SIZE REDUCTION:5 WORDS
                 SUBOPT_0x3:
0017d3 940e 1642 	CALL _getchar
0017d5 940e 1642 	CALL _getchar
0017d7 940c 1642 	JMP  _getchar
                 
                 ;OPTIMIZER ADDED SUBROUTINE, CALLED 6 TIMES, CODE SIZE REDUCTION:27 WORDS
                 SUBOPT_0x4:
0017d9 940e 1bff 	CALL __GETD1P_INC
                +
0017db 5fef     +SUBI R30 , LOW ( - 1 )
0017dc 4fff     +SBCI R31 , HIGH ( - 1 )
0017dd 4f6f     +SBCI R22 , BYTE3 ( - 1 )
0017de 4f7f     +SBCI R23 , BYTE4 ( - 1 )
                 	__SUBD1N -1
0017df 940e 1c04 	CALL __PUTDP1_DEC
0017e1 9508      	RET
                 
                 ;OPTIMIZER ADDED SUBROUTINE, CALLED 4 TIMES, CODE SIZE REDUCTION:3 WORDS
                 SUBOPT_0x5:
0017e2 81ee      	LDD  R30,Y+6
0017e3 81ff      	LDD  R31,Y+6+1
0017e4 93fa      	ST   -Y,R31
0017e5 93ea      	ST   -Y,R30
0017e6 9508      	RET
                 
                 ;OPTIMIZER ADDED SUBROUTINE, CALLED 2 TIMES, CODE SIZE REDUCTION:1 WORDS
                 SUBOPT_0x6:
0017e7 940e 1646 	CALL _putchar
0017e9 e8e2      	LDI  R30,LOW(130)
0017ea 93ea      	ST   -Y,R30
0017eb 940c 1646 	JMP  _putchar
                 
                 ;OPTIMIZER ADDED SUBROUTINE, CALLED 12 TIMES, CODE SIZE REDUCTION:19 WORDS
                 SUBOPT_0x7:
                +
0017ed eae0     +LDI R30 , LOW ( 2 * _0x0 + ( 0 ) )
0017ee e0f0     +LDI R31 , HIGH ( 2 * _0x0 + ( 0 ) )
                 	__POINTW1FN _0x0,0
0017ef 93fa      	ST   -Y,R31
0017f0 93ea      	ST   -Y,R30
0017f1 9508      	RET
                 
                 ;OPTIMIZER ADDED SUBROUTINE, CALLED 4 TIMES, CODE SIZE REDUCTION:3 WORDS
                 SUBOPT_0x8:
0017f2 85ea      	LDD  R30,Y+10
0017f3 85fb      	LDD  R31,Y+10+1
0017f4 93fa      	ST   -Y,R31
0017f5 93ea      	ST   -Y,R30
0017f6 9508      	RET
                 
                 ;OPTIMIZER ADDED SUBROUTINE, CALLED 6 TIMES, CODE SIZE REDUCTION:27 WORDS
                 SUBOPT_0x9:
0017f7 e0e3      	LDI  R30,LOW(_PORTJJ)
0017f8 e0f5      	LDI  R31,HIGH(_PORTJJ)
0017f9 e0a1      	LDI  R26,1
0017fa 940e 1c0d 	CALL __PUTPARL
0017fc e7e9      	LDI  R30,LOW(121)
0017fd e0f0      	LDI  R31,HIGH(121)
0017fe 93fa      	ST   -Y,R31
0017ff 93ea      	ST   -Y,R30
001800 9508      	RET
                 
                 ;OPTIMIZER ADDED SUBROUTINE, CALLED 14 TIMES, CODE SIZE REDUCTION:153 WORDS
                 SUBOPT_0xA:
001801 91e0 053b 	LDS  R30,_adr1
001803 91f0 053c 	LDS  R31,_adr1+1
001805 93fa      	ST   -Y,R31
001806 93ea      	ST   -Y,R30
001807 91e0 053d 	LDS  R30,_adr2
001809 91f0 053e 	LDS  R31,_adr2+1
00180b 93fa      	ST   -Y,R31
00180c 93ea      	ST   -Y,R30
00180d 940c 0410 	JMP  _komunikat_na_panel
                 
                 ;OPTIMIZER ADDED SUBROUTINE, CALLED 16 TIMES, CODE SIZE REDUCTION:87 WORDS
                 SUBOPT_0xB:
00180f e0e1      	LDI  R30,LOW(_PORTHH)
001810 e0f5      	LDI  R31,HIGH(_PORTHH)
001811 e0a1      	LDI  R26,1
001812 940e 1c0d 	CALL __PUTPARL
001814 e7e3      	LDI  R30,LOW(115)
001815 e0f0      	LDI  R31,HIGH(115)
001816 93fa      	ST   -Y,R31
001817 93ea      	ST   -Y,R30
001818 9508      	RET
                 
                 ;OPTIMIZER ADDED SUBROUTINE, CALLED 7 TIMES, CODE SIZE REDUCTION:15 WORDS
                 SUBOPT_0xC:
001819 29e0      	OR   R30,R0
00181a 93e0 0502 	STS  _PORT_CZYTNIK,R30
00181c cff2      	RJMP SUBOPT_0xB
                 
                 ;OPTIMIZER ADDED SUBROUTINE, CALLED 2 TIMES, CODE SIZE REDUCTION:3 WORDS
                 SUBOPT_0xD:
00181d e2e0      	LDI  R30,LOW(32)
00181e e0f0      	LDI  R31,HIGH(32)
00181f 93fa      	ST   -Y,R31
001820 93ea      	ST   -Y,R30
001821 e8e0      	LDI  R30,LOW(128)
001822 e0f0      	LDI  R31,HIGH(128)
001823 93fa      	ST   -Y,R31
001824 93ea      	ST   -Y,R30
001825 9508      	RET
                 
                 ;OPTIMIZER ADDED SUBROUTINE, CALLED 144 TIMES, CODE SIZE REDUCTION:1570 WORDS
                 SUBOPT_0xE:
001826 93fa      	ST   -Y,R31
001827 93ea      	ST   -Y,R30
001828 92da      	ST   -Y,R13
001829 92ca      	ST   -Y,R12
00182a 940e 0445 	CALL _komunikat_z_czytnika_kodow
00182c 01f6      	MOVW R30,R12
00182d e0a7      	LDI  R26,LOW(_macierz_zaciskow)
00182e e0b5      	LDI  R27,HIGH(_macierz_zaciskow)
00182f 0fee      	LSL  R30
001830 1fff      	ROL  R31
001831 0fae      	ADD  R26,R30
001832 1fbf      	ADC  R27,R31
001833 9508      	RET
                 
                 ;OPTIMIZER ADDED SUBROUTINE, CALLED 2 TIMES, CODE SIZE REDUCTION:1 WORDS
                 SUBOPT_0xF:
                +
001834 e9e1     +LDI R30 , LOW ( 2 * _0x0 + ( 1265 ) )
001835 e0f5     +LDI R31 , HIGH ( 2 * _0x0 + ( 1265 ) )
                 	__POINTW1FN _0x0,1265
001836 93fa      	ST   -Y,R31
001837 93ea      	ST   -Y,R30
001838 cfc8      	RJMP SUBOPT_0xA
                 
                 ;OPTIMIZER ADDED SUBROUTINE, CALLED 8 TIMES, CODE SIZE REDUCTION:81 WORDS
                 SUBOPT_0x10:
001839 91e0 053f 	LDS  R30,_adr3
00183b 91f0 0540 	LDS  R31,_adr3+1
00183d 93fa      	ST   -Y,R31
00183e 93ea      	ST   -Y,R30
00183f 91e0 0541 	LDS  R30,_adr4
001841 91f0 0542 	LDS  R31,_adr4+1
001843 93fa      	ST   -Y,R31
001844 93ea      	ST   -Y,R30
001845 940c 0410 	JMP  _komunikat_na_panel
                 
                 ;OPTIMIZER ADDED SUBROUTINE, CALLED 7 TIMES, CODE SIZE REDUCTION:21 WORDS
                 SUBOPT_0x11:
001847 eee8      	LDI  R30,LOW(1000)
001848 e0f3      	LDI  R31,HIGH(1000)
001849 93fa      	ST   -Y,R31
00184a 93ea      	ST   -Y,R30
00184b 940c 1bbf 	JMP  _delay_ms
                 
                 ;OPTIMIZER ADDED SUBROUTINE, CALLED 4 TIMES, CODE SIZE REDUCTION:6 WORDS
                 SUBOPT_0x12:
00184d 940e 03ab 	CALL _sprawdz_pin3
00184f e0a1      	LDI  R26,LOW(1)
001850 940e 1bd8 	CALL __EQB12
001852 9508      	RET
                 
                 ;OPTIMIZER ADDED SUBROUTINE, CALLED 9 TIMES, CODE SIZE REDUCTION:45 WORDS
                 SUBOPT_0x13:
001853 e0e5      	LDI  R30,LOW(_PORTLL)
001854 e0f5      	LDI  R31,HIGH(_PORTLL)
001855 e0a1      	LDI  R26,1
001856 940e 1c0d 	CALL __PUTPARL
001858 e7e1      	LDI  R30,LOW(113)
001859 e0f0      	LDI  R31,HIGH(113)
00185a 93fa      	ST   -Y,R31
00185b 93ea      	ST   -Y,R30
00185c 9508      	RET
                 
                 ;OPTIMIZER ADDED SUBROUTINE, CALLED 10 TIMES, CODE SIZE REDUCTION:51 WORDS
                 SUBOPT_0x14:
00185d e0e4      	LDI  R30,LOW(_PORTKK)
00185e e0f5      	LDI  R31,HIGH(_PORTKK)
00185f e0a1      	LDI  R26,1
001860 940e 1c0d 	CALL __PUTPARL
001862 e7e5      	LDI  R30,LOW(117)
001863 e0f0      	LDI  R31,HIGH(117)
001864 93fa      	ST   -Y,R31
001865 93ea      	ST   -Y,R30
001866 9508      	RET
                 
                 ;OPTIMIZER ADDED SUBROUTINE, CALLED 3 TIMES, CODE SIZE REDUCTION:3 WORDS
                 SUBOPT_0x15:
001867 940e 03c2 	CALL _sprawdz_pin7
001869 e0a1      	LDI  R26,LOW(1)
00186a 940e 1bd8 	CALL __EQB12
00186c 9508      	RET
                 
                 ;OPTIMIZER ADDED SUBROUTINE, CALLED 5 TIMES, CODE SIZE REDUCTION:5 WORDS
                 SUBOPT_0x16:
00186d 93fa      	ST   -Y,R31
00186e 93ea      	ST   -Y,R30
00186f cf91      	RJMP SUBOPT_0xA
                 
                 ;OPTIMIZER ADDED SUBROUTINE, CALLED 3 TIMES, CODE SIZE REDUCTION:1 WORDS
                 SUBOPT_0x17:
001870 93fa      	ST   -Y,R31
001871 93ea      	ST   -Y,R30
001872 cfc6      	RJMP SUBOPT_0x10
                 
                 ;OPTIMIZER ADDED SUBROUTINE, CALLED 2 TIMES, CODE SIZE REDUCTION:1 WORDS
                 SUBOPT_0x18:
001873 23ea      	AND  R30,R26
001874 2e0e      	MOV  R0,R30
001875 91a0 0567 	LDS  R26,_czekaj_az_puszcze
001877 91b0 0568 	LDS  R27,_czekaj_az_puszcze+1
001879 9508      	RET
                 
                 ;OPTIMIZER ADDED SUBROUTINE, CALLED 12 TIMES, CODE SIZE REDUCTION:19 WORDS
                 SUBOPT_0x19:
00187a e0e0      	LDI  R30,LOW(0)
00187b e0f0      	LDI  R31,HIGH(0)
00187c 940e 1bdd 	CALL __EQW12
00187e 9508      	RET
                 
                 ;OPTIMIZER ADDED SUBROUTINE, CALLED 20 TIMES, CODE SIZE REDUCTION:35 WORDS
                 SUBOPT_0x1A:
00187f e0e1      	LDI  R30,LOW(1)
001880 e0f0      	LDI  R31,HIGH(1)
001881 940e 1bdd 	CALL __EQW12
001883 9508      	RET
                 
                 ;OPTIMIZER ADDED SUBROUTINE, CALLED 2 TIMES, CODE SIZE REDUCTION:7 WORDS
                 SUBOPT_0x1B:
001884 91a0 0567 	LDS  R26,_czekaj_az_puszcze
001886 91b0 0568 	LDS  R27,_czekaj_az_puszcze+1
001888 e0e2      	LDI  R30,LOW(2)
001889 e0f0      	LDI  R31,HIGH(2)
00188a 940e 1bdd 	CALL __EQW12
00188c 2e0e      	MOV  R0,R30
00188d e0a0      	LDI  R26,0
00188e 991e      	SBIC 0x3,6
00188f e0a1      	LDI  R26,1
001890 9508      	RET
                 
                 ;OPTIMIZER ADDED SUBROUTINE, CALLED 2 TIMES, CODE SIZE REDUCTION:6 WORDS
                 SUBOPT_0x1C:
001891 e0e0      	LDI  R30,LOW(0)
001892 93e0 0567 	STS  _czekaj_az_puszcze,R30
001894 93e0 0568 	STS  _czekaj_az_puszcze+1,R30
001896 e6e4      	LDI  R30,LOW(100)
001897 e0f0      	LDI  R31,HIGH(100)
001898 93fa      	ST   -Y,R31
001899 93ea      	ST   -Y,R30
00189a 940c 1bbf 	JMP  _delay_ms
                 
                 ;OPTIMIZER ADDED SUBROUTINE, CALLED 2 TIMES, CODE SIZE REDUCTION:4 WORDS
                 SUBOPT_0x1D:
00189c e0e0      	LDI  R30,LOW(0)
00189d 93e0 051d 	STS  _sek11,R30
00189f 93e0 051e 	STS  _sek11+1,R30
0018a1 93e0 051f 	STS  _sek11+2,R30
0018a3 93e0 0520 	STS  _sek11+3,R30
0018a5 9508      	RET
                 
                 ;OPTIMIZER ADDED SUBROUTINE, CALLED 3 TIMES, CODE SIZE REDUCTION:11 WORDS
                 SUBOPT_0x1E:
0018a6 e0e0      	LDI  R30,LOW(0)
0018a7 93e0 050d 	STS  _sek1,R30
0018a9 93e0 050e 	STS  _sek1+1,R30
0018ab 93e0 050f 	STS  _sek1+2,R30
0018ad 93e0 0510 	STS  _sek1+3,R30
0018af 9508      	RET
                 
                 ;OPTIMIZER ADDED SUBROUTINE, CALLED 4 TIMES, CODE SIZE REDUCTION:12 WORDS
                 SUBOPT_0x1F:
                +
0018b0 30a2     +CPI R26 , LOW ( 0x2 )
0018b1 e0e0     +LDI R30 , HIGH ( 0x2 )
0018b2 07be     +CPC R27 , R30
0018b3 e0e0     +LDI R30 , BYTE3 ( 0x2 )
0018b4 078e     +CPC R24 , R30
0018b5 e0e0     +LDI R30 , BYTE4 ( 0x2 )
0018b6 079e     +CPC R25 , R30
                 	__CPD2N 0x2
0018b7 9508      	RET
                 
                 ;OPTIMIZER ADDED SUBROUTINE, CALLED 17 TIMES, CODE SIZE REDUCTION:29 WORDS
                 SUBOPT_0x20:
0018b8 93e0 0533 	STS  _cykl_sterownik_1,R30
0018ba 93f0 0534 	STS  _cykl_sterownik_1+1,R31
0018bc 9508      	RET
                 
                 ;OPTIMIZER ADDED SUBROUTINE, CALLED 3 TIMES, CODE SIZE REDUCTION:11 WORDS
                 SUBOPT_0x21:
0018bd e0e0      	LDI  R30,LOW(0)
0018be 93e0 0515 	STS  _sek3,R30
0018c0 93e0 0516 	STS  _sek3+1,R30
0018c2 93e0 0517 	STS  _sek3+2,R30
0018c4 93e0 0518 	STS  _sek3+3,R30
0018c6 9508      	RET
                 
                 ;OPTIMIZER ADDED SUBROUTINE, CALLED 14 TIMES, CODE SIZE REDUCTION:23 WORDS
                 SUBOPT_0x22:
0018c7 93e0 0537 	STS  _cykl_sterownik_2,R30
0018c9 93f0 0538 	STS  _cykl_sterownik_2+1,R31
0018cb 9508      	RET
                 
                 ;OPTIMIZER ADDED SUBROUTINE, CALLED 12 TIMES, CODE SIZE REDUCTION:41 WORDS
                 SUBOPT_0x23:
0018cc 93e0 0500 	STS  _PORT_F,R30
0018ce 93e0 0062 	STS  98,R30
0018d0 9508      	RET
                 
                 ;OPTIMIZER ADDED SUBROUTINE, CALLED 3 TIMES, CODE SIZE REDUCTION:11 WORDS
                 SUBOPT_0x24:
0018d1 e0e0      	LDI  R30,LOW(0)
0018d2 93e0 0511 	STS  _sek2,R30
0018d4 93e0 0512 	STS  _sek2+1,R30
0018d6 93e0 0513 	STS  _sek2+2,R30
0018d8 93e0 0514 	STS  _sek2+3,R30
0018da 9508      	RET
                 
                 ;OPTIMIZER ADDED SUBROUTINE, CALLED 12 TIMES, CODE SIZE REDUCTION:19 WORDS
                 SUBOPT_0x25:
0018db 93e0 0535 	STS  _cykl_sterownik_3,R30
0018dd 93f0 0536 	STS  _cykl_sterownik_3+1,R31
0018df 9508      	RET
                 
                 ;OPTIMIZER ADDED SUBROUTINE, CALLED 4 TIMES, CODE SIZE REDUCTION:3 WORDS
                 SUBOPT_0x26:
0018e0 93e0 0500 	STS  _PORT_F,R30
0018e2 9508      	RET
                 
                 ;OPTIMIZER ADDED SUBROUTINE, CALLED 3 TIMES, CODE SIZE REDUCTION:11 WORDS
                 SUBOPT_0x27:
0018e3 e0e0      	LDI  R30,LOW(0)
0018e4 93e0 0519 	STS  _sek4,R30
0018e6 93e0 051a 	STS  _sek4+1,R30
0018e8 93e0 051b 	STS  _sek4+2,R30
0018ea 93e0 051c 	STS  _sek4+3,R30
0018ec 9508      	RET
                 
                 ;OPTIMIZER ADDED SUBROUTINE, CALLED 16 TIMES, CODE SIZE REDUCTION:27 WORDS
                 SUBOPT_0x28:
0018ed 93e0 0539 	STS  _cykl_sterownik_4,R30
0018ef 93f0 053a 	STS  _cykl_sterownik_4+1,R31
0018f1 9508      	RET
                 
                 ;OPTIMIZER ADDED SUBROUTINE, CALLED 4 TIMES, CODE SIZE REDUCTION:9 WORDS
                 SUBOPT_0x29:
0018f2 ede0      	LDI  R30,LOW(2000)
0018f3 e0f7      	LDI  R31,HIGH(2000)
0018f4 93fa      	ST   -Y,R31
0018f5 93ea      	ST   -Y,R30
0018f6 940c 1bbf 	JMP  _delay_ms
                 
                 ;OPTIMIZER ADDED SUBROUTINE, CALLED 4 TIMES, CODE SIZE REDUCTION:9 WORDS
                 SUBOPT_0x2A:
0018f8 e0e1      	LDI  R30,LOW(1)
0018f9 e0f0      	LDI  R31,HIGH(1)
0018fa 93e0 0561 	STS  _rzad_obrabiany,R30
0018fc 93f0 0562 	STS  _rzad_obrabiany+1,R31
0018fe 9508      	RET
                 
                 ;OPTIMIZER ADDED SUBROUTINE, CALLED 2 TIMES, CODE SIZE REDUCTION:1 WORDS
                 SUBOPT_0x2B:
0018ff e0e0      	LDI  R30,LOW(0)
001900 93e0 0563 	STS  _jestem_w_trakcie_czyszczenia_calosci,R30
001902 93e0 0564 	STS  _jestem_w_trakcie_czyszczenia_calosci+1,R30
001904 9508      	RET
                 
                 ;OPTIMIZER ADDED SUBROUTINE, CALLED 3 TIMES, CODE SIZE REDUCTION:1 WORDS
                 SUBOPT_0x2C:
001905 93e0 0565 	STS  _wykonalem_rzedow,R30
001907 93e0 0566 	STS  _wykonalem_rzedow+1,R30
001909 9508      	RET
                 
                 ;OPTIMIZER ADDED SUBROUTINE, CALLED 4 TIMES, CODE SIZE REDUCTION:6 WORDS
                 SUBOPT_0x2D:
00190a e0e0      	LDI  R30,LOW(0)
00190b 93e0 0557 	STS  _cykl_ilosc_zaciskow,R30
00190d 93e0 0558 	STS  _cykl_ilosc_zaciskow+1,R30
00190f 9508      	RET
                 
                 ;OPTIMIZER ADDED SUBROUTINE, CALLED 41 TIMES, CODE SIZE REDUCTION:77 WORDS
                 SUBOPT_0x2E:
001910 e0e0      	LDI  R30,LOW(0)
001911 e0f0      	LDI  R31,HIGH(0)
001912 93fa      	ST   -Y,R31
001913 93ea      	ST   -Y,R30
001914 9508      	RET
                 
                 ;OPTIMIZER ADDED SUBROUTINE, CALLED 9 TIMES, CODE SIZE REDUCTION:29 WORDS
                 SUBOPT_0x2F:
001915 e4e0      	LDI  R30,LOW(64)
001916 e0f0      	LDI  R31,HIGH(64)
001917 93fa      	ST   -Y,R31
001918 93ea      	ST   -Y,R30
001919 940c 03ca 	JMP  _odczytaj_parametr
                 
                 ;OPTIMIZER ADDED SUBROUTINE, CALLED 3 TIMES, CODE SIZE REDUCTION:3 WORDS
                 SUBOPT_0x30:
00191b 2e0e      	MOV  R0,R30
00191c 91a0 052f 	LDS  R26,_il_zaciskow_rzad_1
00191e 91b0 0530 	LDS  R27,_il_zaciskow_rzad_1+1
001920 9508      	RET
                 
                 ;OPTIMIZER ADDED SUBROUTINE, CALLED 3 TIMES, CODE SIZE REDUCTION:3 WORDS
                 SUBOPT_0x31:
001921 e0e0      	LDI  R30,LOW(0)
001922 e0f0      	LDI  R31,HIGH(0)
001923 940e 1bf5 	CALL __GTW12
001925 220e      	AND  R0,R30
001926 9508      	RET
                 
                 ;OPTIMIZER ADDED SUBROUTINE, CALLED 2 TIMES, CODE SIZE REDUCTION:1 WORDS
                 SUBOPT_0x32:
001927 e1e0      	LDI  R30,LOW(16)
001928 e0f0      	LDI  R31,HIGH(16)
001929 93fa      	ST   -Y,R31
00192a 93ea      	ST   -Y,R30
00192b 940c 042d 	JMP  _wartosc_parametru_panelu
                 
                 ;OPTIMIZER ADDED SUBROUTINE, CALLED 2 TIMES, CODE SIZE REDUCTION:1 WORDS
                 SUBOPT_0x33:
00192d e6e0      	LDI  R30,LOW(96)
00192e e0f0      	LDI  R31,HIGH(96)
00192f 93fa      	ST   -Y,R31
001930 93ea      	ST   -Y,R30
001931 940c 042d 	JMP  _wartosc_parametru_panelu
                 
                 ;OPTIMIZER ADDED SUBROUTINE, CALLED 16 TIMES, CODE SIZE REDUCTION:27 WORDS
                 SUBOPT_0x34:
001933 91a0 0561 	LDS  R26,_rzad_obrabiany
001935 91b0 0562 	LDS  R27,_rzad_obrabiany+1
001937 9508      	RET
                 
                 ;OPTIMIZER ADDED SUBROUTINE, CALLED 9 TIMES, CODE SIZE REDUCTION:21 WORDS
                 SUBOPT_0x35:
001938 91a0 0533 	LDS  R26,_cykl_sterownik_1
00193a 91b0 0534 	LDS  R27,_cykl_sterownik_1+1
00193c 9715      	SBIW R26,5
00193d 9508      	RET
                 
                 ;OPTIMIZER ADDED SUBROUTINE, CALLED 3 TIMES, CODE SIZE REDUCTION:5 WORDS
                 SUBOPT_0x36:
00193e e0e9      	LDI  R30,LOW(9)
00193f e0f0      	LDI  R31,HIGH(9)
001940 93fa      	ST   -Y,R31
001941 93ea      	ST   -Y,R30
001942 cfcd      	RJMP SUBOPT_0x2E
                 
                 ;OPTIMIZER ADDED SUBROUTINE, CALLED 14 TIMES, CODE SIZE REDUCTION:23 WORDS
                 SUBOPT_0x37:
001943 940e 0d63 	CALL _sterownik_1_praca
001945 cf72      	RJMP SUBOPT_0x20
                 
                 ;OPTIMIZER ADDED SUBROUTINE, CALLED 7 TIMES, CODE SIZE REDUCTION:15 WORDS
                 SUBOPT_0x38:
001946 91a0 0537 	LDS  R26,_cykl_sterownik_2
001948 91b0 0538 	LDS  R27,_cykl_sterownik_2+1
00194a 9715      	SBIW R26,5
00194b 9508      	RET
                 
                 ;OPTIMIZER ADDED SUBROUTINE, CALLED 11 TIMES, CODE SIZE REDUCTION:17 WORDS
                 SUBOPT_0x39:
00194c 940e 0dc6 	CALL _sterownik_2_praca
00194e cf78      	RJMP SUBOPT_0x22
                 
                 ;OPTIMIZER ADDED SUBROUTINE, CALLED 2 TIMES, CODE SIZE REDUCTION:1 WORDS
                 SUBOPT_0x3A:
00194f e0e8      	LDI  R30,LOW(8)
001950 e0f0      	LDI  R31,HIGH(8)
001951 93fa      	ST   -Y,R31
001952 93ea      	ST   -Y,R30
001953 cfbc      	RJMP SUBOPT_0x2E
                 
                 ;OPTIMIZER ADDED SUBROUTINE, CALLED 2 TIMES, CODE SIZE REDUCTION:1 WORDS
                 SUBOPT_0x3B:
001954 e0e1      	LDI  R30,LOW(1)
001955 e0f0      	LDI  R31,HIGH(1)
001956 93fa      	ST   -Y,R31
001957 93ea      	ST   -Y,R30
001958 cfb7      	RJMP SUBOPT_0x2E
                 
                 ;OPTIMIZER ADDED SUBROUTINE, CALLED 16 TIMES, CODE SIZE REDUCTION:57 WORDS
                 SUBOPT_0x3C:
001959 91a0 0533 	LDS  R26,_cykl_sterownik_1
00195b 91b0 0534 	LDS  R27,_cykl_sterownik_1+1
00195d e0e5      	LDI  R30,LOW(5)
00195e e0f0      	LDI  R31,HIGH(5)
00195f 9508      	RET
                 
                 ;OPTIMIZER ADDED SUBROUTINE, CALLED 6 TIMES, CODE SIZE REDUCTION:42 WORDS
                 SUBOPT_0x3D:
001960 940e 1bdd 	CALL __EQW12
001962 2e0e      	MOV  R0,R30
001963 91a0 0537 	LDS  R26,_cykl_sterownik_2
001965 91b0 0538 	LDS  R27,_cykl_sterownik_2+1
001967 e0e5      	LDI  R30,LOW(5)
001968 e0f0      	LDI  R31,HIGH(5)
001969 940e 1bdd 	CALL __EQW12
00196b 9508      	RET
                 
                 ;OPTIMIZER ADDED SUBROUTINE, CALLED 4 TIMES, CODE SIZE REDUCTION:24 WORDS
                 SUBOPT_0x3E:
00196c e0e0      	LDI  R30,LOW(0)
00196d 93e0 0533 	STS  _cykl_sterownik_1,R30
00196f 93e0 0534 	STS  _cykl_sterownik_1+1,R30
001971 93e0 0537 	STS  _cykl_sterownik_2,R30
001973 93e0 0538 	STS  _cykl_sterownik_2+1,R30
001975 9508      	RET
                 
                 ;OPTIMIZER ADDED SUBROUTINE, CALLED 4 TIMES, CODE SIZE REDUCTION:6 WORDS
                 SUBOPT_0x3F:
001976 93e0 0535 	STS  _cykl_sterownik_3,R30
001978 93e0 0536 	STS  _cykl_sterownik_3+1,R30
00197a e0e0      	LDI  R30,LOW(0)
00197b 9508      	RET
                 
                 ;OPTIMIZER ADDED SUBROUTINE, CALLED 10 TIMES, CODE SIZE REDUCTION:15 WORDS
                 SUBOPT_0x40:
00197c 93e0 0539 	STS  _cykl_sterownik_4,R30
00197e 93e0 053a 	STS  _cykl_sterownik_4+1,R30
001980 9508      	RET
                 
                 ;OPTIMIZER ADDED SUBROUTINE, CALLED 3 TIMES, CODE SIZE REDUCTION:3 WORDS
                 SUBOPT_0x41:
001981 e0e0      	LDI  R30,LOW(0)
001982 93e0 055f 	STS  _koniec_rzedu_10,R30
001984 93e0 0560 	STS  _koniec_rzedu_10+1,R30
001986 9508      	RET
                 
                 ;OPTIMIZER ADDED SUBROUTINE, CALLED 8 TIMES, CODE SIZE REDUCTION:46 WORDS
                 SUBOPT_0x42:
001987 93e0 054b 	STS  _start_kontynuacja,R30
001989 93f0 054c 	STS  _start_kontynuacja+1,R31
00198b 91a0 054b 	LDS  R26,_start_kontynuacja
00198d 91b0 054c 	LDS  R27,_start_kontynuacja+1
00198f 9711      	SBIW R26,1
001990 9508      	RET
                 
                 ;OPTIMIZER ADDED SUBROUTINE, CALLED 27 TIMES, CODE SIZE REDUCTION:49 WORDS
                 SUBOPT_0x43:
001991 93e0 0549 	STS  _cykl_glowny,R30
001993 93f0 054a 	STS  _cykl_glowny+1,R31
001995 9508      	RET
                 
                 ;OPTIMIZER ADDED SUBROUTINE, CALLED 2 TIMES, CODE SIZE REDUCTION:6 WORDS
                 SUBOPT_0x44:
001996 91a0 0537 	LDS  R26,_cykl_sterownik_2
001998 91b0 0538 	LDS  R27,_cykl_sterownik_2+1
00199a e0e5      	LDI  R30,LOW(5)
00199b e0f0      	LDI  R31,HIGH(5)
00199c 940e 1bef 	CALL __LTW12
00199e 2e0e      	MOV  R0,R30
00199f cf93      	RJMP SUBOPT_0x34
                 
                 ;OPTIMIZER ADDED SUBROUTINE, CALLED 5 TIMES, CODE SIZE REDUCTION:5 WORDS
                 SUBOPT_0x45:
0019a0 93fa      	ST   -Y,R31
0019a1 93ea      	ST   -Y,R30
0019a2 cfa9      	RJMP SUBOPT_0x39
                 
                 ;OPTIMIZER ADDED SUBROUTINE, CALLED 8 TIMES, CODE SIZE REDUCTION:18 WORDS
                 SUBOPT_0x46:
0019a3 e0e2      	LDI  R30,LOW(2)
0019a4 e0f0      	LDI  R31,HIGH(2)
0019a5 940e 1bdd 	CALL __EQW12
0019a7 21e0      	AND  R30,R0
0019a8 9508      	RET
                 
                 ;OPTIMIZER ADDED SUBROUTINE, CALLED 12 TIMES, CODE SIZE REDUCTION:41 WORDS
                 SUBOPT_0x47:
0019a9 91a0 0539 	LDS  R26,_cykl_sterownik_4
0019ab 91b0 053a 	LDS  R27,_cykl_sterownik_4+1
0019ad e0e5      	LDI  R30,LOW(5)
0019ae e0f0      	LDI  R31,HIGH(5)
0019af 9508      	RET
                 
                 ;OPTIMIZER ADDED SUBROUTINE, CALLED 2 TIMES, CODE SIZE REDUCTION:3 WORDS
                 SUBOPT_0x48:
0019b0 91a0 0537 	LDS  R26,_cykl_sterownik_2
0019b2 91b0 0538 	LDS  R27,_cykl_sterownik_2+1
0019b4 e0e5      	LDI  R30,LOW(5)
0019b5 e0f0      	LDI  R31,HIGH(5)
0019b6 940e 1bdd 	CALL __EQW12
0019b8 9508      	RET
                 
                 ;OPTIMIZER ADDED SUBROUTINE, CALLED 34 TIMES, CODE SIZE REDUCTION:63 WORDS
                 SUBOPT_0x49:
0019b9 e0e0      	LDI  R30,LOW(0)
0019ba 93ea      	ST   -Y,R30
0019bb 93ea      	ST   -Y,R30
0019bc 9508      	RET
                 
                 ;OPTIMIZER ADDED SUBROUTINE, CALLED 6 TIMES, CODE SIZE REDUCTION:17 WORDS
                 SUBOPT_0x4A:
0019bd e0e1      	LDI  R30,LOW(1)
0019be 93ea      	ST   -Y,R30
0019bf 940e 0ef0 	CALL _sterownik_4_praca
0019c1 cf2b      	RJMP SUBOPT_0x28
                 
                 ;OPTIMIZER ADDED SUBROUTINE, CALLED 3 TIMES, CODE SIZE REDUCTION:3 WORDS
                 SUBOPT_0x4B:
0019c2 e0e0      	LDI  R30,LOW(0)
0019c3 93e0 0547 	STS  _szczotka_druc_cykl,R30
0019c5 93e0 0548 	STS  _szczotka_druc_cykl+1,R30
0019c7 9508      	RET
                 
                 ;OPTIMIZER ADDED SUBROUTINE, CALLED 6 TIMES, CODE SIZE REDUCTION:12 WORDS
                 SUBOPT_0x4C:
0019c8 91a0 0539 	LDS  R26,_cykl_sterownik_4
0019ca 91b0 053a 	LDS  R27,_cykl_sterownik_4+1
0019cc 9715      	SBIW R26,5
0019cd 9508      	RET
                 
                 ;OPTIMIZER ADDED SUBROUTINE, CALLED 8 TIMES, CODE SIZE REDUCTION:11 WORDS
                 SUBOPT_0x4D:
0019ce e0e1      	LDI  R30,LOW(1)
0019cf 93ea      	ST   -Y,R30
0019d0 cfe8      	RJMP SUBOPT_0x49
                 
                 ;OPTIMIZER ADDED SUBROUTINE, CALLED 3 TIMES, CODE SIZE REDUCTION:13 WORDS
                 SUBOPT_0x4E:
0019d1 e0e0      	LDI  R30,LOW(0)
0019d2 93ea      	ST   -Y,R30
0019d3 e0e1      	LDI  R30,LOW(1)
0019d4 93ea      	ST   -Y,R30
0019d5 e0e0      	LDI  R30,LOW(0)
0019d6 93ea      	ST   -Y,R30
0019d7 940e 0ef0 	CALL _sterownik_4_praca
0019d9 cf13      	RJMP SUBOPT_0x28
                 
                 ;OPTIMIZER ADDED SUBROUTINE, CALLED 3 TIMES, CODE SIZE REDUCTION:1 WORDS
                 SUBOPT_0x4F:
0019da dfa1      	RCALL SUBOPT_0x40
0019db cf34      	RJMP SUBOPT_0x2E
                 
                 ;OPTIMIZER ADDED SUBROUTINE, CALLED 3 TIMES, CODE SIZE REDUCTION:1 WORDS
                 SUBOPT_0x50:
0019dc e0e0      	LDI  R30,LOW(0)
0019dd 93ea      	ST   -Y,R30
0019de cfef      	RJMP SUBOPT_0x4D
                 
                 ;OPTIMIZER ADDED SUBROUTINE, CALLED 5 TIMES, CODE SIZE REDUCTION:5 WORDS
                 SUBOPT_0x51:
0019df e0e0      	LDI  R30,LOW(0)
0019e0 93ea      	ST   -Y,R30
0019e1 cfdb      	RJMP SUBOPT_0x4A
                 
                 ;OPTIMIZER ADDED SUBROUTINE, CALLED 2 TIMES, CODE SIZE REDUCTION:9 WORDS
                 SUBOPT_0x52:
0019e2 940e 1bdd 	CALL __EQW12
0019e4 2e0e      	MOV  R0,R30
0019e5 91e0 0545 	LDS  R30,_szczotka_druciana_ilosc_cykli
0019e7 91f0 0546 	LDS  R31,_szczotka_druciana_ilosc_cykli+1
0019e9 91a0 0547 	LDS  R26,_szczotka_druc_cykl
0019eb 91b0 0548 	LDS  R27,_szczotka_druc_cykl+1
0019ed 940e 1bef 	CALL __LTW12
0019ef 21e0      	AND  R30,R0
0019f0 9508      	RET
                 
                 ;OPTIMIZER ADDED SUBROUTINE, CALLED 2 TIMES, CODE SIZE REDUCTION:2 WORDS
                 SUBOPT_0x53:
0019f1 e4a7      	LDI  R26,LOW(_szczotka_druc_cykl)
0019f2 e0b5      	LDI  R27,HIGH(_szczotka_druc_cykl)
0019f3 91ed      	LD   R30,X+
0019f4 91fd      	LD   R31,X+
0019f5 9631      	ADIW R30,1
0019f6 93fe      	ST   -X,R31
0019f7 93ee      	ST   -X,R30
0019f8 9508      	RET
                 
                 ;OPTIMIZER ADDED SUBROUTINE, CALLED 2 TIMES, CODE SIZE REDUCTION:3 WORDS
                 SUBOPT_0x54:
0019f9 91e0 0545 	LDS  R30,_szczotka_druciana_ilosc_cykli
0019fb 91f0 0546 	LDS  R31,_szczotka_druciana_ilosc_cykli+1
0019fd 91a0 0547 	LDS  R26,_szczotka_druc_cykl
0019ff 91b0 0548 	LDS  R27,_szczotka_druc_cykl+1
001a01 9508      	RET
                 
                 ;OPTIMIZER ADDED SUBROUTINE, CALLED 5 TIMES, CODE SIZE REDUCTION:5 WORDS
                 SUBOPT_0x55:
001a02 e0e5      	LDI  R30,LOW(5)
001a03 e0f0      	LDI  R31,HIGH(5)
001a04 cf8c      	RJMP SUBOPT_0x43
                 
                 ;OPTIMIZER ADDED SUBROUTINE, CALLED 2 TIMES, CODE SIZE REDUCTION:4 WORDS
                 SUBOPT_0x56:
001a05 940e 1bef 	CALL __LTW12
001a07 2e0e      	MOV  R0,R30
001a08 91a0 054d 	LDS  R26,_ruch_zlozony
001a0a 91b0 054e 	LDS  R27,_ruch_zlozony+1
001a0c ce6d      	RJMP SUBOPT_0x19
                 
                 ;OPTIMIZER ADDED SUBROUTINE, CALLED 3 TIMES, CODE SIZE REDUCTION:3 WORDS
                 SUBOPT_0x57:
001a0d 220e      	AND  R0,R30
001a0e df24      	RCALL SUBOPT_0x34
001a0f ce6f      	RJMP SUBOPT_0x1A
                 
                 ;OPTIMIZER ADDED SUBROUTINE, CALLED 3 TIMES, CODE SIZE REDUCTION:3 WORDS
                 SUBOPT_0x58:
001a10 220e      	AND  R0,R30
001a11 df21      	RCALL SUBOPT_0x34
001a12 cf90      	RJMP SUBOPT_0x46
                 
                 ;OPTIMIZER ADDED SUBROUTINE, CALLED 4 TIMES, CODE SIZE REDUCTION:6 WORDS
                 SUBOPT_0x59:
001a13 2e0e      	MOV  R0,R30
001a14 91a0 054d 	LDS  R26,_ruch_zlozony
001a16 91b0 054e 	LDS  R27,_ruch_zlozony+1
001a18 9508      	RET
                 
                 ;OPTIMIZER ADDED SUBROUTINE, CALLED 8 TIMES, CODE SIZE REDUCTION:18 WORDS
                 SUBOPT_0x5A:
001a19 e0e0      	LDI  R30,LOW(0)
001a1a 93e0 0533 	STS  _cykl_sterownik_1,R30
001a1c 93e0 0534 	STS  _cykl_sterownik_1+1,R30
001a1e 9508      	RET
                 
                 ;OPTIMIZER ADDED SUBROUTINE, CALLED 3 TIMES, CODE SIZE REDUCTION:1 WORDS
                 SUBOPT_0x5B:
001a1f 940e 1bef 	CALL __LTW12
001a21 cff1      	RJMP SUBOPT_0x59
                 
                 ;OPTIMIZER ADDED SUBROUTINE, CALLED 9 TIMES, CODE SIZE REDUCTION:13 WORDS
                 SUBOPT_0x5C:
001a22 93fa      	ST   -Y,R31
001a23 93ea      	ST   -Y,R30
001a24 ceeb      	RJMP SUBOPT_0x2E
                 
                 ;OPTIMIZER ADDED SUBROUTINE, CALLED 3 TIMES, CODE SIZE REDUCTION:1 WORDS
                 SUBOPT_0x5D:
001a25 e0e3      	LDI  R30,LOW(3)
001a26 e0f0      	LDI  R31,HIGH(3)
001a27 cffa      	RJMP SUBOPT_0x5C
                 
                 ;OPTIMIZER ADDED SUBROUTINE, CALLED 3 TIMES, CODE SIZE REDUCTION:19 WORDS
                 SUBOPT_0x5E:
001a28 91a0 0537 	LDS  R26,_cykl_sterownik_2
001a2a 91b0 0538 	LDS  R27,_cykl_sterownik_2+1
001a2c e0e5      	LDI  R30,LOW(5)
001a2d e0f0      	LDI  R31,HIGH(5)
001a2e 940e 1bef 	CALL __LTW12
001a30 2e0e      	MOV  R0,R30
001a31 91a0 055f 	LDS  R26,_koniec_rzedu_10
001a33 91b0 0560 	LDS  R27,_koniec_rzedu_10+1
001a35 9508      	RET
                 
                 ;OPTIMIZER ADDED SUBROUTINE, CALLED 2 TIMES, CODE SIZE REDUCTION:3 WORDS
                 SUBOPT_0x5F:
001a36 93e0 0521 	STS  _sek12,R30
001a38 93e0 0522 	STS  _sek12+1,R30
001a3a 93e0 0523 	STS  _sek12+2,R30
001a3c 93e0 0524 	STS  _sek12+3,R30
001a3e 9508      	RET
                 
                 ;OPTIMIZER ADDED SUBROUTINE, CALLED 21 TIMES, CODE SIZE REDUCTION:37 WORDS
                 SUBOPT_0x60:
001a3f 91a0 0557 	LDS  R26,_cykl_ilosc_zaciskow
001a41 91b0 0558 	LDS  R27,_cykl_ilosc_zaciskow+1
001a43 9508      	RET
                 
                 ;OPTIMIZER ADDED SUBROUTINE, CALLED 4 TIMES, CODE SIZE REDUCTION:6 WORDS
                 SUBOPT_0x61:
001a44 91e0 0500 	LDS  R30,_PORT_F
001a46 61e0      	ORI  R30,0x10
001a47 ce84      	RJMP SUBOPT_0x23
                 
                 ;OPTIMIZER ADDED SUBROUTINE, CALLED 2 TIMES, CODE SIZE REDUCTION:11 WORDS
                 SUBOPT_0x62:
001a48 91e0 0569 	LDS  R30,_czas_przedmuchu
001a4a 91f0 056a 	LDS  R31,_czas_przedmuchu+1
001a4c 91a0 0521 	LDS  R26,_sek12
001a4e 91b0 0522 	LDS  R27,_sek12+1
001a50 9180 0523 	LDS  R24,_sek12+2
001a52 9190 0524 	LDS  R25,_sek12+3
001a54 940e 1bd3 	CALL __CWD1
001a56 940e 1c19 	CALL __CPD12
001a58 9508      	RET
                 
                 ;OPTIMIZER ADDED SUBROUTINE, CALLED 4 TIMES, CODE SIZE REDUCTION:6 WORDS
                 SUBOPT_0x63:
001a59 91e0 0500 	LDS  R30,_PORT_F
001a5b 7eef      	ANDI R30,0xEF
001a5c ce6f      	RJMP SUBOPT_0x23
                 
                 ;OPTIMIZER ADDED SUBROUTINE, CALLED 10 TIMES, CODE SIZE REDUCTION:15 WORDS
                 SUBOPT_0x64:
001a5d 91a0 0535 	LDS  R26,_cykl_sterownik_3
001a5f 91b0 0536 	LDS  R27,_cykl_sterownik_3+1
001a61 9508      	RET
                 
                 ;OPTIMIZER ADDED SUBROUTINE, CALLED 4 TIMES, CODE SIZE REDUCTION:9 WORDS
                 SUBOPT_0x65:
001a62 e0e1      	LDI  R30,LOW(1)
001a63 93ea      	ST   -Y,R30
001a64 940e 0e2a 	CALL _sterownik_3_praca
001a66 ce74      	RJMP SUBOPT_0x25
                 
                 ;OPTIMIZER ADDED SUBROUTINE, CALLED 9 TIMES, CODE SIZE REDUCTION:13 WORDS
                 SUBOPT_0x66:
001a67 dff5      	RCALL SUBOPT_0x64
001a68 e0e5      	LDI  R30,LOW(5)
001a69 e0f0      	LDI  R31,HIGH(5)
001a6a 9508      	RET
                 
                 ;OPTIMIZER ADDED SUBROUTINE, CALLED 2 TIMES, CODE SIZE REDUCTION:4 WORDS
                 SUBOPT_0x67:
001a6b 91e0 052f 	LDS  R30,_il_zaciskow_rzad_1
001a6d 91f0 0530 	LDS  R31,_il_zaciskow_rzad_1+1
001a6f 9731      	SBIW R30,1
001a70 dfce      	RCALL SUBOPT_0x60
001a71 940e 1be3 	CALL __NEW12
001a73 9508      	RET
                 
                 ;OPTIMIZER ADDED SUBROUTINE, CALLED 2 TIMES, CODE SIZE REDUCTION:4 WORDS
                 SUBOPT_0x68:
001a74 91e0 0531 	LDS  R30,_il_zaciskow_rzad_2
001a76 91f0 0532 	LDS  R31,_il_zaciskow_rzad_2+1
001a78 9731      	SBIW R30,1
001a79 dfc5      	RCALL SUBOPT_0x60
001a7a 940e 1be3 	CALL __NEW12
001a7c 9508      	RET
                 
                 ;OPTIMIZER ADDED SUBROUTINE, CALLED 3 TIMES, CODE SIZE REDUCTION:9 WORDS
                 SUBOPT_0x69:
001a7d 93fa      	ST   -Y,R31
001a7e 93ea      	ST   -Y,R30
001a7f e0e1      	LDI  R30,LOW(1)
001a80 e0f0      	LDI  R31,HIGH(1)
001a81 93fa      	ST   -Y,R31
001a82 93ea      	ST   -Y,R30
001a83 cebf      	RJMP SUBOPT_0x37
                 
                 ;OPTIMIZER ADDED SUBROUTINE, CALLED 2 TIMES, CODE SIZE REDUCTION:1 WORDS
                 SUBOPT_0x6A:
001a84 e0e8      	LDI  R30,LOW(8)
001a85 e0f0      	LDI  R31,HIGH(8)
001a86 df0a      	RCALL SUBOPT_0x43
001a87 cf3a      	RJMP SUBOPT_0x4B
                 
                 ;OPTIMIZER ADDED SUBROUTINE, CALLED 2 TIMES, CODE SIZE REDUCTION:13 WORDS
                 SUBOPT_0x6B:
001a88 2e0e      	MOV  R0,R30
001a89 91e0 0551 	LDS  R30,_krazek_scierny_cykl_po_okregu_ilosc
001a8b 91f0 0552 	LDS  R31,_krazek_scierny_cykl_po_okregu_ilosc+1
001a8d 91a0 054f 	LDS  R26,_krazek_scierny_cykl_po_okregu
001a8f 91b0 0550 	LDS  R27,_krazek_scierny_cykl_po_okregu+1
001a91 940e 1bef 	CALL __LTW12
001a93 220e      	AND  R0,R30
001a94 91a0 0559 	LDS  R26,_wykonalem_komplet_okregow
001a96 91b0 055a 	LDS  R27,_wykonalem_komplet_okregow+1
001a98 cde1      	RJMP SUBOPT_0x19
                 
                 ;OPTIMIZER ADDED SUBROUTINE, CALLED 4 TIMES, CODE SIZE REDUCTION:6 WORDS
                 SUBOPT_0x6C:
001a99 91ed      	LD   R30,X+
001a9a 91fd      	LD   R31,X+
001a9b 9631      	ADIW R30,1
001a9c 93fe      	ST   -X,R31
001a9d 93ee      	ST   -X,R30
001a9e 9508      	RET
                 
                 ;OPTIMIZER ADDED SUBROUTINE, CALLED 2 TIMES, CODE SIZE REDUCTION:2 WORDS
                 SUBOPT_0x6D:
001a9f 940e 1bdd 	CALL __EQW12
001aa1 2e0e      	MOV  R0,R30
001aa2 91a0 0559 	LDS  R26,_wykonalem_komplet_okregow
001aa4 91b0 055a 	LDS  R27,_wykonalem_komplet_okregow+1
001aa6 9508      	RET
                 
                 ;OPTIMIZER ADDED SUBROUTINE, CALLED 2 TIMES, CODE SIZE REDUCTION:2 WORDS
                 SUBOPT_0x6E:
001aa7 940e 1bef 	CALL __LTW12
001aa9 2e0e      	MOV  R0,R30
001aaa 91a0 055d 	LDS  R26,_abs_ster4
001aac 91b0 055e 	LDS  R27,_abs_ster4+1
001aae 9508      	RET
                 
                 ;OPTIMIZER ADDED SUBROUTINE, CALLED 2 TIMES, CODE SIZE REDUCTION:2 WORDS
                 SUBOPT_0x6F:
001aaf 940e 1bef 	CALL __LTW12
001ab1 2e0e      	MOV  R0,R30
001ab2 91a0 055b 	LDS  R26,_abs_ster3
001ab4 91b0 055c 	LDS  R27,_abs_ster3+1
001ab6 9508      	RET
                 
                 ;OPTIMIZER ADDED SUBROUTINE, CALLED 3 TIMES, CODE SIZE REDUCTION:1 WORDS
                 SUBOPT_0x70:
001ab7 940e 0e2a 	CALL _sterownik_3_praca
001ab9 ce21      	RJMP SUBOPT_0x25
                 
                 ;OPTIMIZER ADDED SUBROUTINE, CALLED 2 TIMES, CODE SIZE REDUCTION:3 WORDS
                 SUBOPT_0x71:
001aba 91e0 0555 	LDS  R30,_krazek_scierny_ilosc_cykli
001abc 91f0 0556 	LDS  R31,_krazek_scierny_ilosc_cykli+1
001abe 91a0 0553 	LDS  R26,_krazek_scierny_cykl
001ac0 91b0 0554 	LDS  R27,_krazek_scierny_cykl+1
001ac2 9508      	RET
                 
                 ;OPTIMIZER ADDED SUBROUTINE, CALLED 3 TIMES, CODE SIZE REDUCTION:7 WORDS
                 SUBOPT_0x72:
001ac3 940e 1bef 	CALL __LTW12
001ac5 2e0e      	MOV  R0,R30
001ac6 91e0 052f 	LDS  R30,_il_zaciskow_rzad_1
001ac8 91f0 0530 	LDS  R31,_il_zaciskow_rzad_1+1
001aca 9508      	RET
                 
                 ;OPTIMIZER ADDED SUBROUTINE, CALLED 2 TIMES, CODE SIZE REDUCTION:1 WORDS
                 SUBOPT_0x73:
001acb 9732      	SBIW R30,2
001acc df72      	RCALL SUBOPT_0x60
001acd 940e 1bef 	CALL __LTW12
001acf 21e0      	AND  R30,R0
001ad0 9508      	RET
                 
                 ;OPTIMIZER ADDED SUBROUTINE, CALLED 2 TIMES, CODE SIZE REDUCTION:1 WORDS
                 SUBOPT_0x74:
001ad1 9731      	SBIW R30,1
001ad2 df6c      	RCALL SUBOPT_0x60
001ad3 940e 1bdd 	CALL __EQW12
001ad5 21e0      	AND  R30,R0
001ad6 9508      	RET
                 
                 ;OPTIMIZER ADDED SUBROUTINE, CALLED 2 TIMES, CODE SIZE REDUCTION:1 WORDS
                 SUBOPT_0x75:
001ad7 9732      	SBIW R30,2
001ad8 df66      	RCALL SUBOPT_0x60
001ad9 940e 1be9 	CALL __GEW12
001adb 21e0      	AND  R30,R0
001adc 9508      	RET
                 
                 ;OPTIMIZER ADDED SUBROUTINE, CALLED 3 TIMES, CODE SIZE REDUCTION:7 WORDS
                 SUBOPT_0x76:
001add 940e 1bef 	CALL __LTW12
001adf 2e0e      	MOV  R0,R30
001ae0 91e0 0531 	LDS  R30,_il_zaciskow_rzad_2
001ae2 91f0 0532 	LDS  R31,_il_zaciskow_rzad_2+1
001ae4 9508      	RET
                 
                 ;OPTIMIZER ADDED SUBROUTINE, CALLED 2 TIMES, CODE SIZE REDUCTION:5 WORDS
                 SUBOPT_0x77:
001ae5 2e0e      	MOV  R0,R30
001ae6 91a0 0549 	LDS  R26,_cykl_glowny
001ae8 91b0 054a 	LDS  R27,_cykl_glowny+1
001aea e0e0      	LDI  R30,LOW(0)
001aeb e0f0      	LDI  R31,HIGH(0)
001aec 940e 1be3 	CALL __NEW12
001aee 21e0      	AND  R30,R0
001aef 9508      	RET
                 
                 ;OPTIMIZER ADDED SUBROUTINE, CALLED 2 TIMES, CODE SIZE REDUCTION:1 WORDS
                 SUBOPT_0x78:
001af0 91e0 0557 	LDS  R30,_cykl_ilosc_zaciskow
001af2 91f0 0558 	LDS  R31,_cykl_ilosc_zaciskow+1
001af4 cf2d      	RJMP SUBOPT_0x5C
                 
                 ;OPTIMIZER ADDED SUBROUTINE, CALLED 2 TIMES, CODE SIZE REDUCTION:2 WORDS
                 SUBOPT_0x79:
001af5 91e0 052f 	LDS  R30,_il_zaciskow_rzad_1
001af7 91f0 0530 	LDS  R31,_il_zaciskow_rzad_1+1
001af9 9731      	SBIW R30,1
001afa cf44      	RJMP SUBOPT_0x60
                 
                 ;OPTIMIZER ADDED SUBROUTINE, CALLED 2 TIMES, CODE SIZE REDUCTION:1 WORDS
                 SUBOPT_0x7A:
001afb e0e1      	LDI  R30,LOW(1)
001afc e0f0      	LDI  R31,HIGH(1)
001afd 93e0 055f 	STS  _koniec_rzedu_10,R30
001aff 93f0 0560 	STS  _koniec_rzedu_10+1,R31
001b01 9508      	RET
                 
                 ;OPTIMIZER ADDED SUBROUTINE, CALLED 2 TIMES, CODE SIZE REDUCTION:5 WORDS
                 SUBOPT_0x7B:
001b02 91e0 052f 	LDS  R30,_il_zaciskow_rzad_1
001b04 91f0 0530 	LDS  R31,_il_zaciskow_rzad_1+1
001b06 df38      	RCALL SUBOPT_0x60
001b07 940e 1bdd 	CALL __EQW12
001b09 ce11      	RJMP SUBOPT_0x30
                 
                 ;OPTIMIZER ADDED SUBROUTINE, CALLED 2 TIMES, CODE SIZE REDUCTION:2 WORDS
                 SUBOPT_0x7C:
001b0a 91e0 0531 	LDS  R30,_il_zaciskow_rzad_2
001b0c 91f0 0532 	LDS  R31,_il_zaciskow_rzad_2+1
001b0e 9731      	SBIW R30,1
001b0f cf2f      	RJMP SUBOPT_0x60
                 
                 ;OPTIMIZER ADDED SUBROUTINE, CALLED 2 TIMES, CODE SIZE REDUCTION:10 WORDS
                 SUBOPT_0x7D:
001b10 91e0 0531 	LDS  R30,_il_zaciskow_rzad_2
001b12 91f0 0532 	LDS  R31,_il_zaciskow_rzad_2+1
001b14 df2a      	RCALL SUBOPT_0x60
001b15 940e 1bdd 	CALL __EQW12
001b17 2e0e      	MOV  R0,R30
001b18 91a0 0531 	LDS  R26,_il_zaciskow_rzad_2
001b1a 91b0 0532 	LDS  R27,_il_zaciskow_rzad_2+1
001b1c e0ea      	LDI  R30,LOW(10)
001b1d e0f0      	LDI  R31,HIGH(10)
001b1e 9508      	RET
                 
                 ;OPTIMIZER ADDED SUBROUTINE, CALLED 3 TIMES, CODE SIZE REDUCTION:5 WORDS
                 SUBOPT_0x7E:
001b1f 93fa      	ST   -Y,R31
001b20 93ea      	ST   -Y,R30
001b21 e0e1      	LDI  R30,LOW(1)
001b22 e0f0      	LDI  R31,HIGH(1)
001b23 ce7c      	RJMP SUBOPT_0x45
                 
                 ;OPTIMIZER ADDED SUBROUTINE, CALLED 2 TIMES, CODE SIZE REDUCTION:4 WORDS
                 SUBOPT_0x7F:
001b24 e0e0      	LDI  R30,LOW(0)
001b25 93e0 0537 	STS  _cykl_sterownik_2,R30
001b27 93e0 0538 	STS  _cykl_sterownik_2+1,R30
001b29 e0ed      	LDI  R30,LOW(13)
001b2a e0f0      	LDI  R31,HIGH(13)
001b2b ce65      	RJMP SUBOPT_0x43
                 
                 ;OPTIMIZER ADDED SUBROUTINE, CALLED 4 TIMES, CODE SIZE REDUCTION:3 WORDS
                 SUBOPT_0x80:
001b2c 91a0 0565 	LDS  R26,_wykonalem_rzedow
001b2e 91b0 0566 	LDS  R27,_wykonalem_rzedow+1
001b30 9508      	RET
                 
                 ;OPTIMIZER ADDED SUBROUTINE, CALLED 4 TIMES, CODE SIZE REDUCTION:3 WORDS
                 SUBOPT_0x81:
001b31 91a0 0531 	LDS  R26,_il_zaciskow_rzad_2
001b33 91b0 0532 	LDS  R27,_il_zaciskow_rzad_2+1
001b35 9508      	RET
                 
                 ;OPTIMIZER ADDED SUBROUTINE, CALLED 2 TIMES, CODE SIZE REDUCTION:6 WORDS
                 SUBOPT_0x82:
001b36 91a0 052f 	LDS  R26,_il_zaciskow_rzad_1
001b38 91b0 0530 	LDS  R27,_il_zaciskow_rzad_1+1
001b3a e0e0      	LDI  R30,LOW(0)
001b3b e0f0      	LDI  R31,HIGH(0)
001b3c 940e 1bf5 	CALL __GTW12
001b3e 2e0e      	MOV  R0,R30
001b3f cff1      	RJMP SUBOPT_0x81
                 
                 ;OPTIMIZER ADDED SUBROUTINE, CALLED 2 TIMES, CODE SIZE REDUCTION:1 WORDS
                 SUBOPT_0x83:
001b40 e4e0      	LDI  R30,LOW(64)
001b41 e0f0      	LDI  R31,HIGH(64)
001b42 93fa      	ST   -Y,R31
001b43 93ea      	ST   -Y,R30
001b44 940c 042d 	JMP  _wartosc_parametru_panelu
                 
                 ;OPTIMIZER ADDED SUBROUTINE, CALLED 5 TIMES, CODE SIZE REDUCTION:21 WORDS
                 SUBOPT_0x84:
001b46 932a      	ST   -Y,R18
001b47 85ed      	LDD  R30,Y+13
001b48 85fe      	LDD  R31,Y+13+1
001b49 93fa      	ST   -Y,R31
001b4a 93ea      	ST   -Y,R30
001b4b 89e9      	LDD  R30,Y+17
001b4c 89fa      	LDD  R31,Y+17+1
001b4d 9509      	ICALL
001b4e 9508      	RET
                 
                 ;OPTIMIZER ADDED SUBROUTINE, CALLED 5 TIMES, CODE SIZE REDUCTION:9 WORDS
                 SUBOPT_0x85:
001b4f 89e8      	LDD  R30,Y+16
001b50 89f9      	LDD  R31,Y+16+1
001b51 9734      	SBIW R30,4
001b52 8be8      	STD  Y+16,R30
001b53 8bf9      	STD  Y+16+1,R31
001b54 9508      	RET
                 
                 ;OPTIMIZER ADDED SUBROUTINE, CALLED 3 TIMES, CODE SIZE REDUCTION:7 WORDS
                 SUBOPT_0x86:
001b55 85ed      	LDD  R30,Y+13
001b56 85fe      	LDD  R31,Y+13+1
001b57 93fa      	ST   -Y,R31
001b58 93ea      	ST   -Y,R30
001b59 89e9      	LDD  R30,Y+17
001b5a 89fa      	LDD  R31,Y+17+1
001b5b 9509      	ICALL
001b5c 9508      	RET
                 
                 ;OPTIMIZER ADDED SUBROUTINE, CALLED 2 TIMES, CODE SIZE REDUCTION:4 WORDS
                 SUBOPT_0x87:
001b5d 89a8      	LDD  R26,Y+16
001b5e 89b9      	LDD  R27,Y+16+1
001b5f 9614      	ADIW R26,4
001b60 940e 1bfb 	CALL __GETW1P
001b62 83ee      	STD  Y+6,R30
001b63 83ff      	STD  Y+6+1,R31
001b64 cc7d      	RJMP SUBOPT_0x5
                 
                 ;OPTIMIZER ADDED SUBROUTINE, CALLED 2 TIMES, CODE SIZE REDUCTION:2 WORDS
                 SUBOPT_0x88:
001b65 89a8      	LDD  R26,Y+16
001b66 89b9      	LDD  R27,Y+16+1
001b67 9614      	ADIW R26,4
001b68 940e 1bfb 	CALL __GETW1P
001b6a 87ea      	STD  Y+10,R30
001b6b 87fb      	STD  Y+10+1,R31
001b6c 9508      	RET
                 
                 
                 	.CSEG
                 	.equ __i2c_dir=__i2c_port-1
                 	.equ __i2c_pin=__i2c_port-2
                 _i2c_init:
001b6d 9890      	cbi  __i2c_port,__scl_bit
001b6e 9891      	cbi  __i2c_port,__sda_bit
001b6f 9a88      	sbi  __i2c_dir,__scl_bit
001b70 9889      	cbi  __i2c_dir,__sda_bit
001b71 c015      	rjmp __i2c_delay2
                 _i2c_start:
001b72 9889      	cbi  __i2c_dir,__sda_bit
001b73 9888      	cbi  __i2c_dir,__scl_bit
001b74 27ee      	clr  r30
001b75 0000      	nop
001b76 9b81      	sbis __i2c_pin,__sda_bit
001b77 9508      	ret
001b78 9b80      	sbis __i2c_pin,__scl_bit
001b79 9508      	ret
001b7a d004      	rcall __i2c_delay1
001b7b 9a89      	sbi  __i2c_dir,__sda_bit
001b7c d002      	rcall __i2c_delay1
001b7d 9a88      	sbi  __i2c_dir,__scl_bit
001b7e e0e1      	ldi  r30,1
                 __i2c_delay1:
001b7f e16b      	ldi  r22,27
001b80 c007      	rjmp __i2c_delay2l
                 _i2c_stop:
001b81 9a89      	sbi  __i2c_dir,__sda_bit
001b82 9a88      	sbi  __i2c_dir,__scl_bit
001b83 d003      	rcall __i2c_delay2
001b84 9888      	cbi  __i2c_dir,__scl_bit
001b85 dff9      	rcall __i2c_delay1
001b86 9889      	cbi  __i2c_dir,__sda_bit
                 __i2c_delay2:
001b87 e365      	ldi  r22,53
                 __i2c_delay2l:
001b88 956a      	dec  r22
001b89 f7f1      	brne __i2c_delay2l
001b8a 9508      	ret
                 _i2c_read:
001b8b e078      	ldi  r23,8
                 __i2c_read0:
001b8c 9888      	cbi  __i2c_dir,__scl_bit
001b8d dff1      	rcall __i2c_delay1
                 __i2c_read3:
001b8e 9b80      	sbis __i2c_pin,__scl_bit
001b8f cffe      	rjmp __i2c_read3
001b90 dfee      	rcall __i2c_delay1
001b91 9488      	clc
001b92 9981      	sbic __i2c_pin,__sda_bit
001b93 9408      	sec
001b94 9a88      	sbi  __i2c_dir,__scl_bit
001b95 dff1      	rcall __i2c_delay2
001b96 1fee      	rol  r30
001b97 957a      	dec  r23
001b98 f799      	brne __i2c_read0
001b99 9179      	ld   r23,y+
001b9a 2377      	tst  r23
001b9b f411      	brne __i2c_read1
001b9c 9889      	cbi  __i2c_dir,__sda_bit
001b9d c001      	rjmp __i2c_read2
                 __i2c_read1:
001b9e 9a89      	sbi  __i2c_dir,__sda_bit
                 __i2c_read2:
001b9f dfdf      	rcall __i2c_delay1
001ba0 9888      	cbi  __i2c_dir,__scl_bit
001ba1 dfe5      	rcall __i2c_delay2
001ba2 9a88      	sbi  __i2c_dir,__scl_bit
001ba3 dfdb      	rcall __i2c_delay1
001ba4 9889      	cbi  __i2c_dir,__sda_bit
001ba5 cfd9      	rjmp __i2c_delay1
                 
                 _i2c_write:
001ba6 91e9      	ld   r30,y+
001ba7 e078      	ldi  r23,8
                 __i2c_write0:
001ba8 0fee      	lsl  r30
001ba9 f410      	brcc __i2c_write1
001baa 9889      	cbi  __i2c_dir,__sda_bit
001bab c001      	rjmp __i2c_write2
                 __i2c_write1:
001bac 9a89      	sbi  __i2c_dir,__sda_bit
                 __i2c_write2:
001bad dfd9      	rcall __i2c_delay2
001bae 9888      	cbi  __i2c_dir,__scl_bit
001baf dfcf      	rcall __i2c_delay1
                 __i2c_write3:
001bb0 9b80      	sbis __i2c_pin,__scl_bit
001bb1 cffe      	rjmp __i2c_write3
001bb2 dfcc      	rcall __i2c_delay1
001bb3 9a88      	sbi  __i2c_dir,__scl_bit
001bb4 957a      	dec  r23
001bb5 f791      	brne __i2c_write0
001bb6 9889      	cbi  __i2c_dir,__sda_bit
001bb7 dfc7      	rcall __i2c_delay1
001bb8 9888      	cbi  __i2c_dir,__scl_bit
001bb9 dfcd      	rcall __i2c_delay2
001bba e0e1      	ldi  r30,1
001bbb 9981      	sbic __i2c_pin,__sda_bit
001bbc 27ee      	clr  r30
001bbd 9a88      	sbi  __i2c_dir,__scl_bit
001bbe cfc0      	rjmp __i2c_delay1
                 
                 _delay_ms:
001bbf 91e9      	ld   r30,y+
001bc0 91f9      	ld   r31,y+
001bc1 9630      	adiw r30,0
001bc2 f039      	breq __delay_ms1
                 __delay_ms0:
                +
001bc3 ea80     +LDI R24 , LOW ( 0xFA0 )
001bc4 e09f     +LDI R25 , HIGH ( 0xFA0 )
                +__DELAY_USW_LOOP :
001bc5 9701     +SBIW R24 , 1
001bc6 f7f1     +BRNE __DELAY_USW_LOOP
                 	__DELAY_USW 0xFA0
001bc7 95a8      	wdr
001bc8 9731      	sbiw r30,1
001bc9 f7c9      	brne __delay_ms0
                 __delay_ms1:
001bca 9508      	ret
                 
                 __ADDW2R15:
001bcb 2400      	CLR  R0
001bcc 0daf      	ADD  R26,R15
001bcd 1db0      	ADC  R27,R0
001bce 9508      	RET
                 
                 __ANEGW1:
001bcf 95f1      	NEG  R31
001bd0 95e1      	NEG  R30
001bd1 40f0      	SBCI R31,0
001bd2 9508      	RET
                 
                 __CWD1:
001bd3 2f6f      	MOV  R22,R31
001bd4 0f66      	ADD  R22,R22
001bd5 0b66      	SBC  R22,R22
001bd6 2f76      	MOV  R23,R22
001bd7 9508      	RET
                 
                 __EQB12:
001bd8 17ea      	CP   R30,R26
001bd9 e0e1      	LDI  R30,1
001bda f009      	BREQ __EQB12T
001bdb 27ee      	CLR  R30
                 __EQB12T:
001bdc 9508      	RET
                 
                 __EQW12:
001bdd 17ea      	CP   R30,R26
001bde 07fb      	CPC  R31,R27
001bdf e0e1      	LDI  R30,1
001be0 f009      	BREQ __EQW12T
001be1 27ee      	CLR  R30
                 __EQW12T:
001be2 9508      	RET
                 
                 __NEW12:
001be3 17ea      	CP   R30,R26
001be4 07fb      	CPC  R31,R27
001be5 e0e1      	LDI  R30,1
001be6 f409      	BRNE __NEW12T
001be7 27ee      	CLR  R30
                 __NEW12T:
001be8 9508      	RET
                 
                 __GEW12:
001be9 17ae      	CP   R26,R30
001bea 07bf      	CPC  R27,R31
001beb e0e1      	LDI  R30,1
001bec f40c      	BRGE __GEW12T
001bed 27ee      	CLR  R30
                 __GEW12T:
001bee 9508      	RET
                 
                 __LTW12:
001bef 17ae      	CP   R26,R30
001bf0 07bf      	CPC  R27,R31
001bf1 e0e1      	LDI  R30,1
001bf2 f00c      	BRLT __LTW12T
001bf3 27ee      	CLR  R30
                 __LTW12T:
001bf4 9508      	RET
                 
                 __GTW12:
001bf5 17ea      	CP   R30,R26
001bf6 07fb      	CPC  R31,R27
001bf7 e0e1      	LDI  R30,1
001bf8 f00c      	BRLT __GTW12T
001bf9 27ee      	CLR  R30
                 __GTW12T:
001bfa 9508      	RET
                 
                 __GETW1P:
001bfb 91ed      	LD   R30,X+
001bfc 91fc      	LD   R31,X
001bfd 9711      	SBIW R26,1
001bfe 9508      	RET
                 
                 __GETD1P_INC:
001bff 91ed      	LD   R30,X+
001c00 91fd      	LD   R31,X+
001c01 916d      	LD   R22,X+
001c02 917d      	LD   R23,X+
001c03 9508      	RET
                 
                 __PUTDP1_DEC:
001c04 937e      	ST   -X,R23
001c05 936e      	ST   -X,R22
001c06 93fe      	ST   -X,R31
001c07 93ee      	ST   -X,R30
001c08 9508      	RET
                 
                 __GETW1PF:
001c09 9005      	LPM  R0,Z+
001c0a 91f4      	LPM  R31,Z
001c0b 2de0      	MOV  R30,R0
001c0c 9508      	RET
                 
                 __PUTPARL:
001c0d 27bb      	CLR  R27
                 __PUTPAR:
001c0e 0fea      	ADD  R30,R26
001c0f 1ffb      	ADC  R31,R27
                 __PUTPAR0:
001c10 9002      	LD   R0,-Z
001c11 920a      	ST   -Y,R0
001c12 9711      	SBIW R26,1
001c13 f7e1      	BRNE __PUTPAR0
001c14 9508      	RET
                 
                 __CPW02:
001c15 2400      	CLR  R0
001c16 160a      	CP   R0,R26
001c17 060b      	CPC  R0,R27
001c18 9508      	RET
                 
                 __CPD12:
001c19 17ea      	CP   R30,R26
001c1a 07fb      	CPC  R31,R27
001c1b 0768      	CPC  R22,R24
001c1c 0779      	CPC  R23,R25
001c1d 9508      	RET
                 
                 __SAVELOCR6:
001c1e 935a      	ST   -Y,R21
                 __SAVELOCR5:
001c1f 934a      	ST   -Y,R20
                 __SAVELOCR4:
001c20 933a      	ST   -Y,R19
                 __SAVELOCR3:
001c21 932a      	ST   -Y,R18
                 __SAVELOCR2:
001c22 931a      	ST   -Y,R17
001c23 930a      	ST   -Y,R16
001c24 9508      	RET
                 
                 __LOADLOCR6:
001c25 815d      	LDD  R21,Y+5
                 __LOADLOCR5:
001c26 814c      	LDD  R20,Y+4
                 __LOADLOCR4:
001c27 813b      	LDD  R19,Y+3
                 __LOADLOCR3:
001c28 812a      	LDD  R18,Y+2
                 __LOADLOCR2:
001c29 8119      	LDD  R17,Y+1
001c2a 8108      	LD   R16,Y
001c2b 9508      	RET
                 
                 ;END OF CODE MARKER
                 __END_OF_CODE:


RESOURCE USE INFORMATION
------------------------

Notice:
The register and instruction counts are symbol table hit counts,
and hence implicitly used resources are not counted, eg, the
'lpm' instruction without operands implicitly uses r0 and z,
none of which are counted.

x,y,z are separate entities in the symbol table and are
counted separately from r26..r31 here.

.dseg memory usage only counts static data declared with .byte

ATmega128 register use summary:
r0 : 123 r1 :   5 r2 :   3 r3 :   0 r4 :   0 r5 :   0 r6 :   0 r7 :   0 
r8 :   8 r9 :   3 r10:   4 r11:   1 r12:   4 r13:   2 r14:   0 r15:   4 
r16:  51 r17:  35 r18:  30 r19:  10 r20:  12 r21:  19 r22:  19 r23:  13 
r24:  22 r25:  12 r26: 536 r27: 103 r28:  19 r29:   1 r30:1516 r31: 801 
x  : 313 y  : 319 z  :  20 
Registers used: 29 out of 35 (82.9%)

ATmega128 instruction use summary:
.lds  :   0 .lds.l:   0 .sts  :   0 .sts.l:   0 adc   :   3 add   :   5 
adiw  :  27 and   :  56 andi  :  43 asr   :   0 bclr  :   0 bld   :   3 
brbc  :   0 brbs  :   0 brcc  :   1 brcs  :   0 break :   0 breq  :  80 
brge  :  26 brhc  :   0 brhs  :   0 brid  :   0 brie  :   0 brlo  :   6 
brlt  :   6 brmi  :   0 brne  : 272 brpl  :   1 brsh  :   2 brtc  :   0 
brts  :   0 brvc  :   0 brvs  :   0 bset  :   0 bst   :   0 call  : 899 
cbi   :  46 cbr   :   0 clc   :   1 clh   :   0 cli   :   1 cln   :   0 
clr   :  20 cls   :   0 clt   :   0 clv   :   0 clz   :   0 com   :   0 
cp    :  19 cpc   :  59 cpi   : 242 cpse  :   0 dec   :   4 des   :   0 
elpm  :   0 eor   :   0 fmul  :   0 fmuls :   0 fmulsu:   0 icall :   2 
ijmp  :   0 in    :   2 inc   :   0 jmp   :  64 ld    :  40 ldd   :  93 
ldi   :1120 lds   : 348 lpm   :  14 lsl   :  17 lsr   :   9 mov   :  60 
movw  :  21 mul   :   1 muls  :   0 mulsu :   0 neg   :   2 nop   :   1 
or    :  21 ori   :   8 out   :  51 pop   :  14 push  :  14 rcall :  47 
ret   : 126 reti  :   1 rjmp  : 167 rol   :   4 ror   :   4 sbc   :   2 
sbci  :   6 sbi   :  39 sbic  :   3 sbis  :   6 sbiw  :  46 sbr   :   0 
sbrc  :   2 sbrs  :  10 sec   :   1 seh   :   0 sei   :   1 sen   :   0 
ser   :   0 ses   :   0 set   :   1 sev   :   0 sez   :   0 sleep :   0 
spm   :   0 st    : 464 std   :  43 sts   : 186 sub   :   1 subi  :  16 
swap  :   6 tst   :   4 wdr   :   1 
Instructions used: 68 out of 117 (58.1%)

ATmega128 memory use summary [bytes]:
Segment   Begin    End      Code   Data   Used    Size   Use%
---------------------------------------------------------------
[.cseg] 0x000000 0x003858  12812   1612  14424  131072  11.0%
[.dseg] 0x000100 0x000583      0    131    131    4351   3.0%
[.eseg] 0x000000 0x000000      0      0      0    4096   0.0%

Assembly complete, 0 errors, 7 warnings
